; ModuleID = 'codes/cpp/pr-cpp/PR_CPP_Pull_FloatType_Reduction_Block_Determin.cpp'
source_filename = "codes/cpp/pr-cpp/PR_CPP_Pull_FloatType_Reduction_Block_Determin.cpp"
target datalayout = "e-m:e-p270:32:32-p271:32:32-p272:64:64-i64:64-f80:128-n8:16:32:64-S128"
target triple = "x86_64-unknown-linux-gnu"

%struct._IO_FILE = type { i32, i8*, i8*, i8*, i8*, i8*, i8*, i8*, i8*, i8*, i8*, i8*, %struct._IO_marker*, %struct._IO_FILE*, i32, i32, i64, i16, i8, [1 x i8], i8*, i64, %struct._IO_codecvt*, %struct._IO_wide_data*, %struct._IO_FILE*, i8*, i64, i32, [20 x i8] }
%struct._IO_marker = type opaque
%struct._IO_codecvt = type opaque
%struct._IO_wide_data = type opaque
%struct.ECLgraph = type { i32, i32, i32*, i32*, i32* }
%struct.timeval = type { i64, i64 }
%"class.std::thread" = type { %"class.std::thread::id" }
%"class.std::thread::id" = type { i64 }
%"class.std::reference_wrapper" = type { double* }
%"class.std::unique_ptr" = type { %"struct.std::__uniq_ptr_data" }
%"struct.std::__uniq_ptr_data" = type { %"class.std::__uniq_ptr_impl" }
%"class.std::__uniq_ptr_impl" = type { %"class.std::tuple" }
%"class.std::tuple" = type { %"struct.std::_Tuple_impl" }
%"struct.std::_Tuple_impl" = type { %"struct.std::_Head_base.1" }
%"struct.std::_Head_base.1" = type { %"struct.std::thread::_State"* }
%"struct.std::thread::_State" = type { i32 (...)** }
%"struct.std::thread::_State_impl" = type { %"struct.std::thread::_State", %"struct.std::thread::_Invoker" }
%"struct.std::thread::_Invoker" = type { %"class.std::tuple.2" }
%"class.std::tuple.2" = type { %"struct.std::_Tuple_impl.3" }
%"struct.std::_Tuple_impl.3" = type { %"struct.std::_Tuple_impl.4", %"struct.std::_Head_base.20" }
%"struct.std::_Tuple_impl.4" = type { %"struct.std::_Tuple_impl.5", %"struct.std::_Head_base.19" }
%"struct.std::_Tuple_impl.5" = type { %"struct.std::_Tuple_impl.6", %"struct.std::_Head_base.18" }
%"struct.std::_Tuple_impl.6" = type { %"struct.std::_Tuple_impl.7", %"struct.std::_Head_base.17" }
%"struct.std::_Tuple_impl.7" = type { %"struct.std::_Tuple_impl.8", %"struct.std::_Head_base.16" }
%"struct.std::_Tuple_impl.8" = type { %"struct.std::_Tuple_impl.9", %"struct.std::_Head_base.15" }
%"struct.std::_Tuple_impl.9" = type { %"struct.std::_Tuple_impl.10", %"struct.std::_Head_base.14" }
%"struct.std::_Tuple_impl.10" = type { %"struct.std::_Tuple_impl.11", %"struct.std::_Head_base.13" }
%"struct.std::_Tuple_impl.11" = type { %"struct.std::_Head_base.12" }
%"struct.std::_Head_base.12" = type { i32 }
%"struct.std::_Head_base.13" = type { i32 }
%"struct.std::_Head_base.14" = type { float }
%"struct.std::_Head_base.15" = type { i32* }
%"struct.std::_Head_base.16" = type { float* }
%"struct.std::_Head_base.17" = type { float* }
%"struct.std::_Head_base.18" = type { %"class.std::reference_wrapper" }
%"struct.std::_Head_base.19" = type { %struct.ECLgraph }
%"struct.std::_Head_base.20" = type { void (%struct.ECLgraph*, double*, float*, float*, i32*, float, i32, i32)* }
%"struct.std::_Reference_wrapper_base_memfun" = type { i8 }
%"struct.std::default_delete" = type { i8 }
%"struct.std::_Index_tuple" = type { i8 }
%"struct.std::__invoke_other" = type { i8 }
%"struct.std::_Tuple_impl.0" = type { i8 }
%"struct.std::_Head_base" = type { i8 }

$_ZSt4fillIPffEvT_S1_RKT0_ = comdat any

$_ZSt4fabsf = comdat any

$_ZNSt6threadC2Ev = comdat any

$_ZSt3refIdESt17reference_wrapperIT_ERS1_ = comdat any

$_ZNSt6threadC2IRFv8ECLgraphRdPfS3_PKifiiEJRKS1_St17reference_wrapperIdERS3_SC_RPiRKfRiRS4_EvEEOT_DpOT0_ = comdat any

$_ZNSt6threadaSEOS_ = comdat any

$_ZNSt6threadD2Ev = comdat any

$_ZNSt6thread2idC2Ev = comdat any

$_ZNSt17reference_wrapperIdEC2IRdvPdEEOT_ = comdat any

$_ZNSt17reference_wrapperIdE6_S_funERd = comdat any

$_ZSt7forwardIRdEOT_RNSt16remove_referenceIS1_E4typeE = comdat any

$_ZSt11__addressofIdEPT_RS0_ = comdat any

$_ZSt7forwardIRFv8ECLgraphRdPfS2_PKifiiEEOT_RNSt16remove_referenceIS7_E4typeE = comdat any

$_ZSt7forwardIRK8ECLgraphEOT_RNSt16remove_referenceIS3_E4typeE = comdat any

$_ZSt7forwardISt17reference_wrapperIdEEOT_RNSt16remove_referenceIS2_E4typeE = comdat any

$_ZSt7forwardIRPfEOT_RNSt16remove_referenceIS2_E4typeE = comdat any

$_ZSt7forwardIRPiEOT_RNSt16remove_referenceIS2_E4typeE = comdat any

$_ZSt7forwardIRKfEOT_RNSt16remove_referenceIS2_E4typeE = comdat any

$_ZSt7forwardIRiEOT_RNSt16remove_referenceIS1_E4typeE = comdat any

$_ZSt7forwardIRKiEOT_RNSt16remove_referenceIS2_E4typeE = comdat any

$_ZNSt6thread11_State_implINS_8_InvokerISt5tupleIJPFv8ECLgraphRdPfS5_PKifiiES3_St17reference_wrapperIdES5_S5_PifiiEEEEEC2IJRS8_RKS3_SB_RS5_SK_RSC_RKfRiRS6_EEEDpOT_ = comdat any

$_ZNSt10unique_ptrINSt6thread6_StateESt14default_deleteIS1_EEC2IS3_vEEPS1_ = comdat any

$_ZNSt10unique_ptrINSt6thread6_StateESt14default_deleteIS1_EED2Ev = comdat any

$_ZNSt6thread6_StateC2Ev = comdat any

$_ZNSt6thread8_InvokerISt5tupleIJPFv8ECLgraphRdPfS4_PKifiiES2_St17reference_wrapperIdES4_S4_PifiiEEEC2IJRS7_RKS2_SA_RS4_SI_RSB_RKfRiRS5_EEEDpOT_ = comdat any

$_ZNSt6thread11_State_implINS_8_InvokerISt5tupleIJPFv8ECLgraphRdPfS5_PKifiiES3_St17reference_wrapperIdES5_S5_PifiiEEEEED2Ev = comdat any

$_ZNSt6thread11_State_implINS_8_InvokerISt5tupleIJPFv8ECLgraphRdPfS5_PKifiiES3_St17reference_wrapperIdES5_S5_PifiiEEEEED0Ev = comdat any

$_ZNSt6thread11_State_implINS_8_InvokerISt5tupleIJPFv8ECLgraphRdPfS5_PKifiiES3_St17reference_wrapperIdES5_S5_PifiiEEEEE6_M_runEv = comdat any

$_ZNSt5tupleIJPFv8ECLgraphRdPfS2_PKifiiES0_St17reference_wrapperIdES2_S2_PifiiEEC2IJRS5_RKS0_S8_RS2_SF_RS9_RKfRiRS3_ELb1ELb1EEEDpOT_ = comdat any

$_ZNSt11_Tuple_implILm0EJPFv8ECLgraphRdPfS2_PKifiiES0_St17reference_wrapperIdES2_S2_PifiiEEC2IRS5_JRKS0_S8_RS2_SF_RS9_RKfRiRS3_EvEEOT_DpOT0_ = comdat any

$__clang_call_terminate = comdat any

$_ZNSt11_Tuple_implILm1EJ8ECLgraphSt17reference_wrapperIdEPfS3_PifiiEEC2IRKS0_JS2_RS3_S9_RS4_RKfRiRKiEvEEOT_DpOT0_ = comdat any

$_ZNSt10_Head_baseILm0EPFv8ECLgraphRdPfS2_PKifiiELb0EEC2ERKS6_ = comdat any

$_ZNSt11_Tuple_implILm2EJSt17reference_wrapperIdEPfS2_PifiiEEC2IS1_JRS2_S6_RS3_RKfRiRKiEvEEOT_DpOT0_ = comdat any

$_ZNSt10_Head_baseILm1E8ECLgraphLb0EEC2ERKS0_ = comdat any

$_ZNSt11_Tuple_implILm3EJPfS0_PifiiEEC2IRS0_JS4_RS1_RKfRiRKiEvEEOT_DpOT0_ = comdat any

$_ZNSt10_Head_baseILm2ESt17reference_wrapperIdELb0EEC2IS1_EEOT_ = comdat any

$_ZNSt11_Tuple_implILm4EJPfPifiiEEC2IRS0_JRS1_RKfRiRKiEvEEOT_DpOT0_ = comdat any

$_ZNSt10_Head_baseILm3EPfLb0EEC2IRS0_EEOT_ = comdat any

$_ZNSt11_Tuple_implILm5EJPifiiEEC2IRS0_JRKfRiRKiEvEEOT_DpOT0_ = comdat any

$_ZNSt10_Head_baseILm4EPfLb0EEC2IRS0_EEOT_ = comdat any

$_ZNSt11_Tuple_implILm6EJfiiEEC2IRKfJRiRKiEvEEOT_DpOT0_ = comdat any

$_ZNSt10_Head_baseILm5EPiLb0EEC2IRS0_EEOT_ = comdat any

$_ZNSt11_Tuple_implILm7EJiiEEC2IRiJRKiEvEEOT_DpOT0_ = comdat any

$_ZNSt10_Head_baseILm6EfLb0EEC2ERKf = comdat any

$_ZNSt11_Tuple_implILm8EJiEEC2ERKi = comdat any

$_ZNSt10_Head_baseILm7EiLb0EEC2IRiEEOT_ = comdat any

$_ZNSt10_Head_baseILm8EiLb0EEC2ERKi = comdat any

$_ZNSt6thread8_InvokerISt5tupleIJPFv8ECLgraphRdPfS4_PKifiiES2_St17reference_wrapperIdES4_S4_PifiiEEEclEv = comdat any

$_ZNSt6thread8_InvokerISt5tupleIJPFv8ECLgraphRdPfS4_PKifiiES2_St17reference_wrapperIdES4_S4_PifiiEEE9_M_invokeIJLm0ELm1ELm2ELm3ELm4ELm5ELm6ELm7ELm8EEEEvSt12_Index_tupleIJXspT_EEE = comdat any

$_ZSt8__invokeIPFv8ECLgraphRdPfS2_PKifiiEJS0_St17reference_wrapperIdES2_S2_PifiiEENSt15__invoke_resultIT_JDpT0_EE4typeEOSB_DpOSC_ = comdat any

$_ZSt3getILm0EJPFv8ECLgraphRdPfS2_PKifiiES0_St17reference_wrapperIdES2_S2_PifiiEEONSt13tuple_elementIXT_ESt5tupleIJDpT0_EEE4typeEOSE_ = comdat any

$_ZSt4moveIRSt5tupleIJPFv8ECLgraphRdPfS3_PKifiiES1_St17reference_wrapperIdES3_S3_PifiiEEEONSt16remove_referenceIT_E4typeEOSE_ = comdat any

$_ZSt3getILm1EJPFv8ECLgraphRdPfS2_PKifiiES0_St17reference_wrapperIdES2_S2_PifiiEEONSt13tuple_elementIXT_ESt5tupleIJDpT0_EEE4typeEOSE_ = comdat any

$_ZSt3getILm2EJPFv8ECLgraphRdPfS2_PKifiiES0_St17reference_wrapperIdES2_S2_PifiiEEONSt13tuple_elementIXT_ESt5tupleIJDpT0_EEE4typeEOSE_ = comdat any

$_ZSt3getILm3EJPFv8ECLgraphRdPfS2_PKifiiES0_St17reference_wrapperIdES2_S2_PifiiEEONSt13tuple_elementIXT_ESt5tupleIJDpT0_EEE4typeEOSE_ = comdat any

$_ZSt3getILm4EJPFv8ECLgraphRdPfS2_PKifiiES0_St17reference_wrapperIdES2_S2_PifiiEEONSt13tuple_elementIXT_ESt5tupleIJDpT0_EEE4typeEOSE_ = comdat any

$_ZSt3getILm5EJPFv8ECLgraphRdPfS2_PKifiiES0_St17reference_wrapperIdES2_S2_PifiiEEONSt13tuple_elementIXT_ESt5tupleIJDpT0_EEE4typeEOSE_ = comdat any

$_ZSt3getILm6EJPFv8ECLgraphRdPfS2_PKifiiES0_St17reference_wrapperIdES2_S2_PifiiEEONSt13tuple_elementIXT_ESt5tupleIJDpT0_EEE4typeEOSE_ = comdat any

$_ZSt3getILm7EJPFv8ECLgraphRdPfS2_PKifiiES0_St17reference_wrapperIdES2_S2_PifiiEEONSt13tuple_elementIXT_ESt5tupleIJDpT0_EEE4typeEOSE_ = comdat any

$_ZSt3getILm8EJPFv8ECLgraphRdPfS2_PKifiiES0_St17reference_wrapperIdES2_S2_PifiiEEONSt13tuple_elementIXT_ESt5tupleIJDpT0_EEE4typeEOSE_ = comdat any

$_ZSt13__invoke_implIvPFv8ECLgraphRdPfS2_PKifiiEJS0_St17reference_wrapperIdES2_S2_PifiiEET_St14__invoke_otherOT0_DpOT1_ = comdat any

$_ZSt7forwardIPFv8ECLgraphRdPfS2_PKifiiEEOT_RNSt16remove_referenceIS7_E4typeE = comdat any

$_ZSt7forwardI8ECLgraphEOT_RNSt16remove_referenceIS1_E4typeE = comdat any

$_ZSt7forwardIPfEOT_RNSt16remove_referenceIS1_E4typeE = comdat any

$_ZSt7forwardIPiEOT_RNSt16remove_referenceIS1_E4typeE = comdat any

$_ZSt7forwardIfEOT_RNSt16remove_referenceIS0_E4typeE = comdat any

$_ZSt7forwardIiEOT_RNSt16remove_referenceIS0_E4typeE = comdat any

$_ZNKSt17reference_wrapperIdEcvRdEv = comdat any

$_ZNKSt17reference_wrapperIdE3getEv = comdat any

$_ZSt12__get_helperILm0EPFv8ECLgraphRdPfS2_PKifiiEJS0_St17reference_wrapperIdES2_S2_PifiiEERT0_RSt11_Tuple_implIXT_EJSA_DpT1_EE = comdat any

$_ZNSt11_Tuple_implILm0EJPFv8ECLgraphRdPfS2_PKifiiES0_St17reference_wrapperIdES2_S2_PifiiEE7_M_headERSA_ = comdat any

$_ZNSt10_Head_baseILm0EPFv8ECLgraphRdPfS2_PKifiiELb0EE7_M_headERS7_ = comdat any

$_ZSt12__get_helperILm1E8ECLgraphJSt17reference_wrapperIdEPfS3_PifiiEERT0_RSt11_Tuple_implIXT_EJS5_DpT1_EE = comdat any

$_ZNSt11_Tuple_implILm1EJ8ECLgraphSt17reference_wrapperIdEPfS3_PifiiEE7_M_headERS5_ = comdat any

$_ZNSt10_Head_baseILm1E8ECLgraphLb0EE7_M_headERS1_ = comdat any

$_ZSt12__get_helperILm2ESt17reference_wrapperIdEJPfS2_PifiiEERT0_RSt11_Tuple_implIXT_EJS4_DpT1_EE = comdat any

$_ZNSt11_Tuple_implILm2EJSt17reference_wrapperIdEPfS2_PifiiEE7_M_headERS4_ = comdat any

$_ZNSt10_Head_baseILm2ESt17reference_wrapperIdELb0EE7_M_headERS2_ = comdat any

$_ZSt12__get_helperILm3EPfJS0_PifiiEERT0_RSt11_Tuple_implIXT_EJS2_DpT1_EE = comdat any

$_ZNSt11_Tuple_implILm3EJPfS0_PifiiEE7_M_headERS2_ = comdat any

$_ZNSt10_Head_baseILm3EPfLb0EE7_M_headERS1_ = comdat any

$_ZSt12__get_helperILm4EPfJPifiiEERT0_RSt11_Tuple_implIXT_EJS2_DpT1_EE = comdat any

$_ZNSt11_Tuple_implILm4EJPfPifiiEE7_M_headERS2_ = comdat any

$_ZNSt10_Head_baseILm4EPfLb0EE7_M_headERS1_ = comdat any

$_ZSt12__get_helperILm5EPiJfiiEERT0_RSt11_Tuple_implIXT_EJS1_DpT1_EE = comdat any

$_ZNSt11_Tuple_implILm5EJPifiiEE7_M_headERS1_ = comdat any

$_ZNSt10_Head_baseILm5EPiLb0EE7_M_headERS1_ = comdat any

$_ZSt12__get_helperILm6EfJiiEERT0_RSt11_Tuple_implIXT_EJS0_DpT1_EE = comdat any

$_ZNSt11_Tuple_implILm6EJfiiEE7_M_headERS0_ = comdat any

$_ZNSt10_Head_baseILm6EfLb0EE7_M_headERS0_ = comdat any

$_ZSt12__get_helperILm7EiJiEERT0_RSt11_Tuple_implIXT_EJS0_DpT1_EE = comdat any

$_ZNSt11_Tuple_implILm7EJiiEE7_M_headERS0_ = comdat any

$_ZNSt10_Head_baseILm7EiLb0EE7_M_headERS0_ = comdat any

$_ZSt12__get_helperILm8EiJEERT0_RSt11_Tuple_implIXT_EJS0_DpT1_EE = comdat any

$_ZNSt11_Tuple_implILm8EJiEE7_M_headERS0_ = comdat any

$_ZNSt10_Head_baseILm8EiLb0EE7_M_headERS0_ = comdat any

$_ZNSt15__uniq_ptr_dataINSt6thread6_StateESt14default_deleteIS1_ELb1ELb1EECI2St15__uniq_ptr_implIS1_S3_EEPS1_ = comdat any

$_ZNSt15__uniq_ptr_implINSt6thread6_StateESt14default_deleteIS1_EEC2EPS1_ = comdat any

$_ZNSt5tupleIJPNSt6thread6_StateESt14default_deleteIS1_EEEC2ILb1ELb1EEEv = comdat any

$_ZNSt15__uniq_ptr_implINSt6thread6_StateESt14default_deleteIS1_EE6_M_ptrEv = comdat any

$_ZNSt11_Tuple_implILm0EJPNSt6thread6_StateESt14default_deleteIS1_EEEC2Ev = comdat any

$_ZNSt11_Tuple_implILm1EJSt14default_deleteINSt6thread6_StateEEEEC2Ev = comdat any

$_ZNSt10_Head_baseILm0EPNSt6thread6_StateELb0EEC2Ev = comdat any

$_ZNSt10_Head_baseILm1ESt14default_deleteINSt6thread6_StateEELb1EEC2Ev = comdat any

$_ZSt3getILm0EJPNSt6thread6_StateESt14default_deleteIS1_EEERNSt13tuple_elementIXT_ESt5tupleIJDpT0_EEE4typeERS9_ = comdat any

$_ZSt12__get_helperILm0EPNSt6thread6_StateEJSt14default_deleteIS1_EEERT0_RSt11_Tuple_implIXT_EJS5_DpT1_EE = comdat any

$_ZNSt11_Tuple_implILm0EJPNSt6thread6_StateESt14default_deleteIS1_EEE7_M_headERS5_ = comdat any

$_ZNSt10_Head_baseILm0EPNSt6thread6_StateELb0EE7_M_headERS3_ = comdat any

$_ZNSt10unique_ptrINSt6thread6_StateESt14default_deleteIS1_EE11get_deleterEv = comdat any

$_ZNKSt14default_deleteINSt6thread6_StateEEclEPS1_ = comdat any

$_ZSt4moveIRPNSt6thread6_StateEEONSt16remove_referenceIT_E4typeEOS5_ = comdat any

$_ZNSt15__uniq_ptr_implINSt6thread6_StateESt14default_deleteIS1_EE10_M_deleterEv = comdat any

$_ZSt3getILm1EJPNSt6thread6_StateESt14default_deleteIS1_EEERNSt13tuple_elementIXT_ESt5tupleIJDpT0_EEE4typeERS9_ = comdat any

$_ZSt12__get_helperILm1ESt14default_deleteINSt6thread6_StateEEJEERT0_RSt11_Tuple_implIXT_EJS4_DpT1_EE = comdat any

$_ZNSt11_Tuple_implILm1EJSt14default_deleteINSt6thread6_StateEEEE7_M_headERS4_ = comdat any

$_ZNSt10_Head_baseILm1ESt14default_deleteINSt6thread6_StateEELb1EE7_M_headERS4_ = comdat any

$_ZNKSt6thread8joinableEv = comdat any

$_ZNSt6thread4swapERS_ = comdat any

$_ZSteqNSt6thread2idES0_ = comdat any

$_ZSt4swapINSt6thread2idEENSt9enable_ifIXsr6__and_ISt6__not_ISt15__is_tuple_likeIT_EESt21is_move_constructibleIS5_ESt18is_move_assignableIS5_EEE5valueEvE4typeERS5_SE_ = comdat any

$_ZSt4moveIRNSt6thread2idEEONSt16remove_referenceIT_E4typeEOS4_ = comdat any

$_ZSt8__fill_aIPffEvT_S1_RKT0_ = comdat any

$_ZSt9__fill_a1IPffEN9__gnu_cxx11__enable_ifIXsr11__is_scalarIT0_EE7__valueEvE6__typeET_S6_RKS3_ = comdat any

$_ZTVNSt6thread11_State_implINS_8_InvokerISt5tupleIJPFv8ECLgraphRdPfS5_PKifiiES3_St17reference_wrapperIdES5_S5_PifiiEEEEEE = comdat any

$_ZTSNSt6thread11_State_implINS_8_InvokerISt5tupleIJPFv8ECLgraphRdPfS5_PKifiiES3_St17reference_wrapperIdES5_S5_PifiiEEEEEE = comdat any

$_ZTINSt6thread11_State_implINS_8_InvokerISt5tupleIJPFv8ECLgraphRdPfS5_PKifiiES3_St17reference_wrapperIdES5_S5_PifiiEEEEEE = comdat any

@.str = private unnamed_addr constant [3 x i8] c"rb\00", align 1
@stderr = external global %struct._IO_FILE*, align 8
@.str.1 = private unnamed_addr constant [32 x i8] c"ERROR: could not open file %s\0A\0A\00", align 1
@.str.2 = private unnamed_addr constant [30 x i8] c"ERROR: failed to read nodes\0A\0A\00", align 1
@.str.3 = private unnamed_addr constant [30 x i8] c"ERROR: failed to read edges\0A\0A\00", align 1
@.str.4 = private unnamed_addr constant [36 x i8] c"input graph: %d nodes and %d edges\0A\00", align 1
@.str.5 = private unnamed_addr constant [36 x i8] c"ERROR: node or edge count too low\0A\0A\00", align 1
@.str.6 = private unnamed_addr constant [34 x i8] c"ERROR: memory allocation failed\0A\0A\00", align 1
@.str.7 = private unnamed_addr constant [44 x i8] c"ERROR: failed to read neighbor index list\0A\0A\00", align 1
@.str.8 = private unnamed_addr constant [38 x i8] c"ERROR: failed to read neighbor list\0A\0A\00", align 1
@.str.9 = private unnamed_addr constant [37 x i8] c"ERROR: failed to read edge weights\0A\0A\00", align 1
@.str.10 = private unnamed_addr constant [3 x i8] c"wb\00", align 1
@.str.11 = private unnamed_addr constant [31 x i8] c"ERROR: failed to write nodes\0A\0A\00", align 1
@.str.12 = private unnamed_addr constant [31 x i8] c"ERROR: failed to write edges\0A\0A\00", align 1
@.str.13 = private unnamed_addr constant [45 x i8] c"ERROR: failed to write neighbor index list\0A\0A\00", align 1
@.str.14 = private unnamed_addr constant [39 x i8] c"ERROR: failed to write neighbor list\0A\0A\00", align 1
@.str.15 = private unnamed_addr constant [38 x i8] c"ERROR: failed to write edge weights\0A\0A\00", align 1
@.str.16 = private unnamed_addr constant [24 x i8] c"PageRank CPP v0.1 (%s)\0A\00", align 1
@.str.17 = private unnamed_addr constant [75 x i8] c"/home/lukasrothenberger/git/Parallelization-Artifact-SC23/include/pr_cpp.h\00", align 1
@.str.18 = private unnamed_addr constant [40 x i8] c"Copyright 2022 Texas State University\0A\0A\00", align 1
@.str.19 = private unnamed_addr constant [47 x i8] c"USAGE: %s input_graph thread_count(optional)\0A\0A\00", align 1
@.str.20 = private unnamed_addr constant [11 x i8] c"graph: %s\0A\00", align 1
@.str.21 = private unnamed_addr constant [11 x i8] c"nodes: %d\0A\00", align 1
@.str.22 = private unnamed_addr constant [11 x i8] c"edges: %d\0A\00", align 1
@.str.23 = private unnamed_addr constant [18 x i8] c"avg degree: %.2f\0A\00", align 1
@.str.24 = private unnamed_addr constant [14 x i8] c"Threads: %d\0A\0A\00", align 1
@.str.25 = private unnamed_addr constant [21 x i8] c"CPU runtime: %.6fs\0A\0A\00", align 1
@.str.26 = private unnamed_addr constant [30 x i8] c"Throughput: %.6f gigaedges/s\0A\00", align 1
@.str.27 = private unnamed_addr constant [11 x i8] c"All good.\0A\00", align 1
@.str.28 = private unnamed_addr constant [17 x i8] c"Total Error: %f\0A\00", align 1
@.str.29 = private unnamed_addr constant [22 x i8] c"CPU iterations = %d.\0A\00", align 1
@_ZTVNSt6thread11_State_implINS_8_InvokerISt5tupleIJPFv8ECLgraphRdPfS5_PKifiiES3_St17reference_wrapperIdES5_S5_PifiiEEEEEE = linkonce_odr unnamed_addr constant { [5 x i8*] } { [5 x i8*] [i8* null, i8* bitcast ({ i8*, i8*, i8* }* @_ZTINSt6thread11_State_implINS_8_InvokerISt5tupleIJPFv8ECLgraphRdPfS5_PKifiiES3_St17reference_wrapperIdES5_S5_PifiiEEEEEE to i8*), i8* bitcast (void (%"struct.std::thread::_State_impl"*)* @_ZNSt6thread11_State_implINS_8_InvokerISt5tupleIJPFv8ECLgraphRdPfS5_PKifiiES3_St17reference_wrapperIdES5_S5_PifiiEEEEED2Ev to i8*), i8* bitcast (void (%"struct.std::thread::_State_impl"*)* @_ZNSt6thread11_State_implINS_8_InvokerISt5tupleIJPFv8ECLgraphRdPfS5_PKifiiES3_St17reference_wrapperIdES5_S5_PifiiEEEEED0Ev to i8*), i8* bitcast (void (%"struct.std::thread::_State_impl"*)* @_ZNSt6thread11_State_implINS_8_InvokerISt5tupleIJPFv8ECLgraphRdPfS5_PKifiiES3_St17reference_wrapperIdES5_S5_PifiiEEEEE6_M_runEv to i8*)] }, comdat, align 8
@_ZTVN10__cxxabiv120__si_class_type_infoE = external global i8*
@_ZTSNSt6thread11_State_implINS_8_InvokerISt5tupleIJPFv8ECLgraphRdPfS5_PKifiiES3_St17reference_wrapperIdES5_S5_PifiiEEEEEE = linkonce_odr constant [118 x i8] c"NSt6thread11_State_implINS_8_InvokerISt5tupleIJPFv8ECLgraphRdPfS5_PKifiiES3_St17reference_wrapperIdES5_S5_PifiiEEEEEE\00", comdat, align 1
@_ZTINSt6thread6_StateE = external constant i8*
@_ZTINSt6thread11_State_implINS_8_InvokerISt5tupleIJPFv8ECLgraphRdPfS5_PKifiiES3_St17reference_wrapperIdES5_S5_PifiiEEEEEE = linkonce_odr constant { i8*, i8*, i8* } { i8* bitcast (i8** getelementptr inbounds (i8*, i8** @_ZTVN10__cxxabiv120__si_class_type_infoE, i64 2) to i8*), i8* getelementptr inbounds ([118 x i8], [118 x i8]* @_ZTSNSt6thread11_State_implINS_8_InvokerISt5tupleIJPFv8ECLgraphRdPfS5_PKifiiES3_St17reference_wrapperIdES5_S5_PifiiEEEEEE, i32 0, i32 0), i8* bitcast (i8** @_ZTINSt6thread6_StateE to i8*) }, comdat, align 8
@_ZTVNSt6thread6_StateE = external unnamed_addr constant { [5 x i8*] }, align 8
@.str.30 = private unnamed_addr constant [6 x i8] c"fname\00", align 1
@.str.31 = private unnamed_addr constant [4 x i8] c"cnt\00", align 1
@.str.32 = private unnamed_addr constant [2 x i8] c"f\00", align 1
@.str.33 = private unnamed_addr constant [7 x i8] c"stderr\00", align 1
@.str.34 = private unnamed_addr constant [21 x i8] c"GEPRESULT_agg.result\00", align 1
@.str.35 = private unnamed_addr constant [1 x i8] zeroinitializer, align 1
@.str.36 = private unnamed_addr constant [12 x i8] c"GEPRESULT_g\00", align 1
@.str.37 = private unnamed_addr constant [2 x i8] c"g\00", align 1
@.str.38 = private unnamed_addr constant [5 x i8] c".str\00", align 1
@.str.39 = private unnamed_addr constant [7 x i8] c".str.1\00", align 1
@.str.40 = private unnamed_addr constant [7 x i8] c".str.2\00", align 1
@.str.41 = private unnamed_addr constant [7 x i8] c".str.3\00", align 1
@.str.42 = private unnamed_addr constant [7 x i8] c".str.4\00", align 1
@.str.43 = private unnamed_addr constant [7 x i8] c".str.5\00", align 1
@.str.44 = private unnamed_addr constant [7 x i8] c".str.6\00", align 1
@.str.45 = private unnamed_addr constant [7 x i8] c".str.7\00", align 1
@.str.46 = private unnamed_addr constant [7 x i8] c".str.8\00", align 1
@.str.47 = private unnamed_addr constant [7 x i8] c".str.9\00", align 1
@.str.48 = private unnamed_addr constant [8 x i8] c".str.10\00", align 1
@.str.49 = private unnamed_addr constant [8 x i8] c".str.11\00", align 1
@.str.50 = private unnamed_addr constant [8 x i8] c".str.12\00", align 1
@.str.51 = private unnamed_addr constant [8 x i8] c".str.13\00", align 1
@.str.52 = private unnamed_addr constant [8 x i8] c".str.14\00", align 1
@.str.53 = private unnamed_addr constant [8 x i8] c".str.15\00", align 1
@.str.54 = private unnamed_addr constant [8 x i8] c".str.16\00", align 1
@.str.55 = private unnamed_addr constant [8 x i8] c".str.17\00", align 1
@.str.56 = private unnamed_addr constant [8 x i8] c".str.18\00", align 1
@.str.57 = private unnamed_addr constant [8 x i8] c".str.19\00", align 1
@.str.58 = private unnamed_addr constant [8 x i8] c".str.20\00", align 1
@.str.59 = private unnamed_addr constant [8 x i8] c".str.21\00", align 1
@.str.60 = private unnamed_addr constant [8 x i8] c".str.22\00", align 1
@.str.61 = private unnamed_addr constant [8 x i8] c".str.23\00", align 1
@.str.62 = private unnamed_addr constant [8 x i8] c".str.24\00", align 1
@.str.63 = private unnamed_addr constant [8 x i8] c".str.25\00", align 1
@.str.64 = private unnamed_addr constant [8 x i8] c".str.26\00", align 1
@.str.65 = private unnamed_addr constant [8 x i8] c".str.27\00", align 1
@.str.66 = private unnamed_addr constant [8 x i8] c".str.28\00", align 1
@.str.67 = private unnamed_addr constant [8 x i8] c".str.29\00", align 1
@.str.68 = private unnamed_addr constant [122 x i8] c"_ZTVNSt6thread11_State_implINS_8_InvokerISt5tupleIJPFv8ECLgraphRdPfS5_PKifiiES3_St17reference_wrapperIdES5_S5_PifiiEEEEEE\00", align 1
@.str.69 = private unnamed_addr constant [41 x i8] c"_ZTVN10__cxxabiv120__si_class_type_infoE\00", align 1
@.str.70 = private unnamed_addr constant [122 x i8] c"_ZTSNSt6thread11_State_implINS_8_InvokerISt5tupleIJPFv8ECLgraphRdPfS5_PKifiiES3_St17reference_wrapperIdES5_S5_PifiiEEEEEE\00", align 1
@.str.71 = private unnamed_addr constant [23 x i8] c"_ZTINSt6thread6_StateE\00", align 1
@.str.72 = private unnamed_addr constant [122 x i8] c"_ZTINSt6thread11_State_implINS_8_InvokerISt5tupleIJPFv8ECLgraphRdPfS5_PKifiiES3_St17reference_wrapperIdES5_S5_PifiiEEEEEE\00", align 1
@.str.73 = private unnamed_addr constant [23 x i8] c"_ZTVNSt6thread6_StateE\00", align 1
@.str.74 = private unnamed_addr constant [8 x i8] c".str.30\00", align 1
@.str.75 = private unnamed_addr constant [8 x i8] c".str.31\00", align 1
@.str.76 = private unnamed_addr constant [8 x i8] c".str.32\00", align 1
@.str.77 = private unnamed_addr constant [8 x i8] c".str.33\00", align 1
@.str.78 = private unnamed_addr constant [8 x i8] c".str.34\00", align 1
@.str.79 = private unnamed_addr constant [8 x i8] c".str.35\00", align 1
@.str.80 = private unnamed_addr constant [8 x i8] c".str.36\00", align 1
@.str.81 = private unnamed_addr constant [7 x i8] c"retval\00", align 1
@.str.82 = private unnamed_addr constant [5 x i8] c"argc\00", align 1
@.str.83 = private unnamed_addr constant [5 x i8] c"argv\00", align 1
@.str.84 = private unnamed_addr constant [7 x i8] c"degree\00", align 1
@.str.85 = private unnamed_addr constant [2 x i8] c"i\00", align 1
@.str.86 = private unnamed_addr constant [12 x i8] c"threadCount\00", align 1
@.str.87 = private unnamed_addr constant [9 x i8] c"countInt\00", align 1
@.str.88 = private unnamed_addr constant [11 x i8] c"init_score\00", align 1
@.str.89 = private unnamed_addr constant [7 x i8] c"scores\00", align 1
@.str.90 = private unnamed_addr constant [8 x i8] c"runtime\00", align 1
@.str.91 = private unnamed_addr constant [8 x i8] c"agg.tmp\00", align 1
@.str.92 = private unnamed_addr constant [11 x i8] c"base_score\00", align 1
@.str.93 = private unnamed_addr constant [15 x i8] c"incomming_sums\00", align 1
@.str.94 = private unnamed_addr constant [6 x i8] c"error\00", align 1
@.str.95 = private unnamed_addr constant [4 x i8] c"src\00", align 1
@.str.96 = private unnamed_addr constant [9 x i8] c"outgoing\00", align 1
@.str.97 = private unnamed_addr constant [10 x i8] c"new_score\00", align 1
@.str.98 = private unnamed_addr constant [15 x i8] c"GEPRESULT_argv\00", align 1
@.str.99 = private unnamed_addr constant [22 x i8] c"GEPRESULT_GEPRESULT_g\00", align 1
@.str.100 = private unnamed_addr constant [17 x i8] c"GEPRESULT_degree\00", align 1
@.str.101 = private unnamed_addr constant [25 x i8] c"GEPRESULT_incomming_sums\00", align 1
@.str.102 = private unnamed_addr constant [17 x i8] c"GEPRESULT_scores\00", align 1
@.str.103 = private unnamed_addr constant [17 x i8] c"outgoing_contrib\00", align 1
@.str.104 = private unnamed_addr constant [12 x i8] c"saved_stack\00", align 1
@.str.105 = private unnamed_addr constant [12 x i8] c"__vla_expr0\00", align 1
@.str.106 = private unnamed_addr constant [12 x i8] c"__vla_expr1\00", align 1
@.str.107 = private unnamed_addr constant [5 x i8] c"iter\00", align 1
@.str.108 = private unnamed_addr constant [6 x i8] c"start\00", align 1
@.str.109 = private unnamed_addr constant [4 x i8] c"end\00", align 1
@.str.110 = private unnamed_addr constant [8 x i8] c"ref.tmp\00", align 1
@.str.111 = private unnamed_addr constant [10 x i8] c"ref.tmp19\00", align 1
@.str.112 = private unnamed_addr constant [9 x i8] c"exn.slot\00", align 1
@.str.113 = private unnamed_addr constant [16 x i8] c"ehselector.slot\00", align 1
@.str.114 = private unnamed_addr constant [14 x i8] c"threadHandles\00", align 1
@.str.115 = private unnamed_addr constant [10 x i8] c"localSums\00", align 1
@.str.116 = private unnamed_addr constant [27 x i8] c"GEPRESULT_outgoing_contrib\00", align 1
@.str.117 = private unnamed_addr constant [20 x i8] c"GEPRESULT_ref.tmp19\00", align 1
@.str.118 = private unnamed_addr constant [15 x i8] c"GEPRESULT_vla3\00", align 1
@.str.119 = private unnamed_addr constant [14 x i8] c"GEPRESULT_end\00", align 1
@.str.120 = private unnamed_addr constant [16 x i8] c"GEPRESULT_start\00", align 1
@.str.121 = private unnamed_addr constant [9 x i8] c"threadID\00", align 1
@.str.122 = private unnamed_addr constant [12 x i8] c"local_error\00", align 1
@.str.123 = private unnamed_addr constant [8 x i8] c"begNode\00", align 1
@.str.124 = private unnamed_addr constant [8 x i8] c"endNode\00", align 1
@.str.125 = private unnamed_addr constant [15 x i8] c"incoming_total\00", align 1
@.str.126 = private unnamed_addr constant [2 x i8] c"j\00", align 1
@.str.127 = private unnamed_addr constant [4 x i8] c"nei\00", align 1
@.str.128 = private unnamed_addr constant [10 x i8] c"old_score\00", align 1

; Function Attrs: noinline optnone uwtable
define void @_Z12readECLgraphPKc(%struct.ECLgraph* noalias sret align 8 %agg.result, i8* %fname) #0 !dbg !1657 {
entry:
  call void @__dp_func_entry(i32 16436, i32 0), !dp.md.instr.id !1661
  %fname.addr = alloca i8*, align 8, !dp.md.instr.id !1662
  %0 = ptrtoint i8** %fname.addr to i64, !dp.md.instr.id !1663
  %cnt = alloca i32, align 4, !dp.md.instr.id !1664
  %1 = ptrtoint i32* %cnt to i64, !dp.md.instr.id !1665
  %f = alloca %struct._IO_FILE*, align 8, !dp.md.instr.id !1666
  %2 = ptrtoint %struct._IO_FILE** %f to i64, !dp.md.instr.id !1667
  %3 = ptrtoint i8** %fname.addr to i64
  store i8* %fname, i8** %fname.addr, align 8, !dp.md.instr.id !1668
  call void @llvm.dbg.declare(metadata i8** %fname.addr, metadata !1669, metadata !DIExpression()), !dbg !1670, !dp.md.instr.id !1671
  call void @llvm.dbg.declare(metadata %struct.ECLgraph* %agg.result, metadata !1672, metadata !DIExpression()), !dbg !1673, !dp.md.instr.id !1674
  call void @llvm.dbg.declare(metadata i32* %cnt, metadata !1675, metadata !DIExpression()), !dbg !1676, !dp.md.instr.id !1677
  call void @llvm.dbg.declare(metadata %struct._IO_FILE** %f, metadata !1678, metadata !DIExpression()), !dbg !1679, !dp.md.instr.id !1680
  %4 = ptrtoint i8** %fname.addr to i64
  %5 = load i8*, i8** %fname.addr, align 8, !dbg !1681, !dp.md.instr.id !1682
  call void @__dp_call(i32 16441), !dbg !1683
  %call = call noalias %struct._IO_FILE* @fopen(i8* %5, i8* getelementptr inbounds ([3 x i8], [3 x i8]* @.str, i64 0, i64 0)), !dbg !1683, !dp.md.instr.id !1684
  %6 = ptrtoint %struct._IO_FILE** %f to i64
  store %struct._IO_FILE* %call, %struct._IO_FILE** %f, align 8, !dbg !1679, !dp.md.instr.id !1685
  %7 = ptrtoint %struct._IO_FILE** %f to i64
  %8 = load %struct._IO_FILE*, %struct._IO_FILE** %f, align 8, !dbg !1686, !dp.md.instr.id !1688
  %cmp = icmp eq %struct._IO_FILE* %8, null, !dbg !1689, !dp.md.instr.id !1690
  call void @__dp_report_bb(i32 0)
  br i1 %cmp, label %if.then, label %if.end, !dbg !1691, !dp.md.instr.id !1692

if.then:                                          ; preds = %entry
  %9 = ptrtoint %struct._IO_FILE** @stderr to i64
  call void @__dp_read(i32 22, i64 %9, i8* getelementptr inbounds ([7 x i8], [7 x i8]* @.str.33, i32 0, i32 0))
  %10 = load %struct._IO_FILE*, %struct._IO_FILE** @stderr, align 8, !dbg !1693, !dp.md.instr.id !1695
  %11 = ptrtoint i8** %fname.addr to i64
  %12 = load i8*, i8** %fname.addr, align 8, !dbg !1696, !dp.md.instr.id !1697
  call void @__dp_call(i32 16441), !dbg !1698
  %call1 = call i32 (%struct._IO_FILE*, i8*, ...) @fprintf(%struct._IO_FILE* %10, i8* getelementptr inbounds ([32 x i8], [32 x i8]* @.str.1, i64 0, i64 0), i8* %12), !dbg !1698, !dp.md.instr.id !1699
  call void @__dp_finalize(i32 16441), !dbg !1700
  call void @exit(i32 -1) #13, !dbg !1700, !dp.md.instr.id !1701
  call void @__dp_report_bb(i32 1)
  unreachable, !dbg !1700, !dp.md.instr.id !1702

if.end:                                           ; preds = %entry
  %nodes = getelementptr inbounds %struct.ECLgraph, %struct.ECLgraph* %agg.result, i32 0, i32 0, !dbg !1703, !dp.md.instr.id !1704
  %13 = bitcast i32* %nodes to i8*, !dbg !1705, !dp.md.instr.id !1706
  %14 = ptrtoint %struct._IO_FILE** %f to i64
  %15 = load %struct._IO_FILE*, %struct._IO_FILE** %f, align 8, !dbg !1707, !dp.md.instr.id !1708
  call void @__dp_call(i32 16442), !dbg !1709
  %call2 = call i64 @fread(i8* %13, i64 4, i64 1, %struct._IO_FILE* %15), !dbg !1709, !dp.md.instr.id !1710
  %conv = trunc i64 %call2 to i32, !dbg !1709, !dp.md.instr.id !1711
  %16 = ptrtoint i32* %cnt to i64
  store i32 %conv, i32* %cnt, align 4, !dbg !1712, !dp.md.instr.id !1713
  %17 = ptrtoint i32* %cnt to i64
  %18 = load i32, i32* %cnt, align 4, !dbg !1714, !dp.md.instr.id !1716
  %cmp3 = icmp ne i32 %18, 1, !dbg !1717, !dp.md.instr.id !1718
  call void @__dp_report_bb(i32 2)
  br i1 %cmp3, label %if.then4, label %if.end6, !dbg !1719, !dp.md.instr.id !1720

if.then4:                                         ; preds = %if.end
  %19 = ptrtoint %struct._IO_FILE** @stderr to i64
  call void @__dp_read(i32 36, i64 %19, i8* getelementptr inbounds ([7 x i8], [7 x i8]* @.str.33, i32 0, i32 0))
  %20 = load %struct._IO_FILE*, %struct._IO_FILE** @stderr, align 8, !dbg !1721, !dp.md.instr.id !1723
  call void @__dp_call(i32 16442), !dbg !1724
  %call5 = call i32 (%struct._IO_FILE*, i8*, ...) @fprintf(%struct._IO_FILE* %20, i8* getelementptr inbounds ([30 x i8], [30 x i8]* @.str.2, i64 0, i64 0)), !dbg !1724, !dp.md.instr.id !1725
  call void @__dp_finalize(i32 16442), !dbg !1726
  call void @exit(i32 -1) #13, !dbg !1726, !dp.md.instr.id !1727
  unreachable, !dbg !1726, !dp.md.instr.id !1728

if.end6:                                          ; preds = %if.end
  %edges = getelementptr inbounds %struct.ECLgraph, %struct.ECLgraph* %agg.result, i32 0, i32 1, !dbg !1729, !dp.md.instr.id !1730
  %21 = bitcast i32* %edges to i8*, !dbg !1731, !dp.md.instr.id !1732
  %22 = ptrtoint %struct._IO_FILE** %f to i64
  %23 = load %struct._IO_FILE*, %struct._IO_FILE** %f, align 8, !dbg !1733, !dp.md.instr.id !1734
  call void @__dp_call(i32 16443), !dbg !1735
  %call7 = call i64 @fread(i8* %21, i64 4, i64 1, %struct._IO_FILE* %23), !dbg !1735, !dp.md.instr.id !1736
  %conv8 = trunc i64 %call7 to i32, !dbg !1735, !dp.md.instr.id !1737
  %24 = ptrtoint i32* %cnt to i64
  store i32 %conv8, i32* %cnt, align 4, !dbg !1738, !dp.md.instr.id !1739
  %25 = ptrtoint i32* %cnt to i64
  %26 = load i32, i32* %cnt, align 4, !dbg !1740, !dp.md.instr.id !1742
  %cmp9 = icmp ne i32 %26, 1, !dbg !1743, !dp.md.instr.id !1744
  call void @__dp_report_bb(i32 3)
  br i1 %cmp9, label %if.then10, label %if.end12, !dbg !1745, !dp.md.instr.id !1746

if.then10:                                        ; preds = %if.end6
  %27 = ptrtoint %struct._IO_FILE** @stderr to i64
  call void @__dp_read(i32 49, i64 %27, i8* getelementptr inbounds ([7 x i8], [7 x i8]* @.str.33, i32 0, i32 0))
  %28 = load %struct._IO_FILE*, %struct._IO_FILE** @stderr, align 8, !dbg !1747, !dp.md.instr.id !1749
  call void @__dp_call(i32 16443), !dbg !1750
  %call11 = call i32 (%struct._IO_FILE*, i8*, ...) @fprintf(%struct._IO_FILE* %28, i8* getelementptr inbounds ([30 x i8], [30 x i8]* @.str.3, i64 0, i64 0)), !dbg !1750, !dp.md.instr.id !1751
  call void @__dp_finalize(i32 16443), !dbg !1752
  call void @exit(i32 -1) #13, !dbg !1752, !dp.md.instr.id !1753
  unreachable, !dbg !1752, !dp.md.instr.id !1754

if.end12:                                         ; preds = %if.end6
  %nodes13 = getelementptr inbounds %struct.ECLgraph, %struct.ECLgraph* %agg.result, i32 0, i32 0, !dbg !1755, !dp.md.instr.id !1756
  %29 = ptrtoint i32* %nodes13 to i64
  call void @__dp_read(i32 54, i64 %29, i8* getelementptr inbounds ([21 x i8], [21 x i8]* @.str.34, i32 0, i32 0))
  %30 = load i32, i32* %nodes13, align 8, !dbg !1755, !dp.md.instr.id !1757
  %edges14 = getelementptr inbounds %struct.ECLgraph, %struct.ECLgraph* %agg.result, i32 0, i32 1, !dbg !1758, !dp.md.instr.id !1759
  %31 = ptrtoint i32* %edges14 to i64
  call void @__dp_read(i32 56, i64 %31, i8* getelementptr inbounds ([21 x i8], [21 x i8]* @.str.34, i32 0, i32 0))
  %32 = load i32, i32* %edges14, align 4, !dbg !1758, !dp.md.instr.id !1760
  call void @__dp_call(i32 16444), !dbg !1761
  %call15 = call i32 (i8*, ...) @printf(i8* getelementptr inbounds ([36 x i8], [36 x i8]* @.str.4, i64 0, i64 0), i32 %30, i32 %32), !dbg !1761, !dp.md.instr.id !1762
  %nodes16 = getelementptr inbounds %struct.ECLgraph, %struct.ECLgraph* %agg.result, i32 0, i32 0, !dbg !1763, !dp.md.instr.id !1765
  %33 = ptrtoint i32* %nodes16 to i64
  call void @__dp_read(i32 59, i64 %33, i8* getelementptr inbounds ([21 x i8], [21 x i8]* @.str.34, i32 0, i32 0))
  %34 = load i32, i32* %nodes16, align 8, !dbg !1763, !dp.md.instr.id !1766
  %cmp17 = icmp slt i32 %34, 1, !dbg !1767, !dp.md.instr.id !1768
  br i1 %cmp17, label %if.then20, label %lor.lhs.false, !dbg !1769, !dp.md.instr.id !1770

lor.lhs.false:                                    ; preds = %if.end12
  %edges18 = getelementptr inbounds %struct.ECLgraph, %struct.ECLgraph* %agg.result, i32 0, i32 1, !dbg !1771, !dp.md.instr.id !1772
  %35 = ptrtoint i32* %edges18 to i64
  call void @__dp_read(i32 63, i64 %35, i8* getelementptr inbounds ([21 x i8], [21 x i8]* @.str.34, i32 0, i32 0))
  %36 = load i32, i32* %edges18, align 4, !dbg !1771, !dp.md.instr.id !1773
  %cmp19 = icmp slt i32 %36, 0, !dbg !1774, !dp.md.instr.id !1775
  br i1 %cmp19, label %if.then20, label %if.end22, !dbg !1776, !dp.md.instr.id !1777

if.then20:                                        ; preds = %lor.lhs.false, %if.end12
  %37 = ptrtoint %struct._IO_FILE** @stderr to i64
  call void @__dp_read(i32 66, i64 %37, i8* getelementptr inbounds ([7 x i8], [7 x i8]* @.str.33, i32 0, i32 0))
  %38 = load %struct._IO_FILE*, %struct._IO_FILE** @stderr, align 8, !dbg !1778, !dp.md.instr.id !1780
  call void @__dp_call(i32 16445), !dbg !1781
  %call21 = call i32 (%struct._IO_FILE*, i8*, ...) @fprintf(%struct._IO_FILE* %38, i8* getelementptr inbounds ([36 x i8], [36 x i8]* @.str.5, i64 0, i64 0)), !dbg !1781, !dp.md.instr.id !1782
  call void @__dp_finalize(i32 16445), !dbg !1783
  call void @exit(i32 -1) #13, !dbg !1783, !dp.md.instr.id !1784
  unreachable, !dbg !1783, !dp.md.instr.id !1785

if.end22:                                         ; preds = %lor.lhs.false
  %nodes23 = getelementptr inbounds %struct.ECLgraph, %struct.ECLgraph* %agg.result, i32 0, i32 0, !dbg !1786, !dp.md.instr.id !1787
  %39 = ptrtoint i32* %nodes23 to i64
  call void @__dp_read(i32 71, i64 %39, i8* getelementptr inbounds ([21 x i8], [21 x i8]* @.str.34, i32 0, i32 0))
  %40 = load i32, i32* %nodes23, align 8, !dbg !1786, !dp.md.instr.id !1788
  %add = add nsw i32 %40, 1, !dbg !1789, !dp.md.instr.id !1790
  %conv24 = sext i32 %add to i64, !dbg !1791, !dp.md.instr.id !1792
  %mul = mul i64 %conv24, 4, !dbg !1793, !dp.md.instr.id !1794
  %call25 = call noalias i8* @malloc(i64 %mul) #9, !dbg !1795, !dp.md.instr.id !1796
  %41 = ptrtoint i8* %call25 to i64, !dp.md.instr.id !1797
  call void @__dp_new(i32 16447, i64 %41, i64 %41, i64 %mul), !dbg !1798, !dp.md.instr.id !1799
  %42 = bitcast i8* %call25 to i32*, !dbg !1798, !dp.md.instr.id !1800
  %nindex = getelementptr inbounds %struct.ECLgraph, %struct.ECLgraph* %agg.result, i32 0, i32 2, !dbg !1801, !dp.md.instr.id !1802
  %43 = ptrtoint i32** %nindex to i64
  call void @__dp_write(i32 80, i64 %43, i8* getelementptr inbounds ([21 x i8], [21 x i8]* @.str.34, i32 0, i32 0))
  store i32* %42, i32** %nindex, align 8, !dbg !1803, !dp.md.instr.id !1804
  %edges26 = getelementptr inbounds %struct.ECLgraph, %struct.ECLgraph* %agg.result, i32 0, i32 1, !dbg !1805, !dp.md.instr.id !1806
  %44 = ptrtoint i32* %edges26 to i64
  call void @__dp_read(i32 82, i64 %44, i8* getelementptr inbounds ([21 x i8], [21 x i8]* @.str.34, i32 0, i32 0))
  %45 = load i32, i32* %edges26, align 4, !dbg !1805, !dp.md.instr.id !1807
  %conv27 = sext i32 %45 to i64, !dbg !1808, !dp.md.instr.id !1809
  %mul28 = mul i64 %conv27, 4, !dbg !1810, !dp.md.instr.id !1811
  %call29 = call noalias i8* @malloc(i64 %mul28) #9, !dbg !1812, !dp.md.instr.id !1813
  %46 = ptrtoint i8* %call29 to i64, !dp.md.instr.id !1814
  call void @__dp_new(i32 16448, i64 %46, i64 %46, i64 %mul28), !dbg !1815, !dp.md.instr.id !1816
  %47 = bitcast i8* %call29 to i32*, !dbg !1815, !dp.md.instr.id !1817
  %nlist = getelementptr inbounds %struct.ECLgraph, %struct.ECLgraph* %agg.result, i32 0, i32 3, !dbg !1818, !dp.md.instr.id !1819
  %48 = ptrtoint i32** %nlist to i64
  call void @__dp_write(i32 90, i64 %48, i8* getelementptr inbounds ([21 x i8], [21 x i8]* @.str.34, i32 0, i32 0))
  store i32* %47, i32** %nlist, align 8, !dbg !1820, !dp.md.instr.id !1821
  %edges30 = getelementptr inbounds %struct.ECLgraph, %struct.ECLgraph* %agg.result, i32 0, i32 1, !dbg !1822, !dp.md.instr.id !1823
  %49 = ptrtoint i32* %edges30 to i64
  call void @__dp_read(i32 92, i64 %49, i8* getelementptr inbounds ([21 x i8], [21 x i8]* @.str.34, i32 0, i32 0))
  %50 = load i32, i32* %edges30, align 4, !dbg !1822, !dp.md.instr.id !1824
  %conv31 = sext i32 %50 to i64, !dbg !1825, !dp.md.instr.id !1826
  %mul32 = mul i64 %conv31, 4, !dbg !1827, !dp.md.instr.id !1828
  %call33 = call noalias i8* @malloc(i64 %mul32) #9, !dbg !1829, !dp.md.instr.id !1830
  %51 = ptrtoint i8* %call33 to i64, !dp.md.instr.id !1831
  call void @__dp_new(i32 16449, i64 %51, i64 %51, i64 %mul32), !dbg !1832, !dp.md.instr.id !1833
  %52 = bitcast i8* %call33 to i32*, !dbg !1832, !dp.md.instr.id !1834
  %eweight = getelementptr inbounds %struct.ECLgraph, %struct.ECLgraph* %agg.result, i32 0, i32 4, !dbg !1835, !dp.md.instr.id !1836
  %53 = ptrtoint i32** %eweight to i64
  call void @__dp_write(i32 100, i64 %53, i8* getelementptr inbounds ([21 x i8], [21 x i8]* @.str.34, i32 0, i32 0))
  store i32* %52, i32** %eweight, align 8, !dbg !1837, !dp.md.instr.id !1838
  %nindex34 = getelementptr inbounds %struct.ECLgraph, %struct.ECLgraph* %agg.result, i32 0, i32 2, !dbg !1839, !dp.md.instr.id !1841
  %54 = ptrtoint i32** %nindex34 to i64
  call void @__dp_read(i32 102, i64 %54, i8* getelementptr inbounds ([21 x i8], [21 x i8]* @.str.34, i32 0, i32 0))
  %55 = load i32*, i32** %nindex34, align 8, !dbg !1839, !dp.md.instr.id !1842
  %cmp35 = icmp eq i32* %55, null, !dbg !1843, !dp.md.instr.id !1844
  br i1 %cmp35, label %if.then42, label %lor.lhs.false36, !dbg !1845, !dp.md.instr.id !1846

lor.lhs.false36:                                  ; preds = %if.end22
  %nlist37 = getelementptr inbounds %struct.ECLgraph, %struct.ECLgraph* %agg.result, i32 0, i32 3, !dbg !1847, !dp.md.instr.id !1848
  %56 = ptrtoint i32** %nlist37 to i64
  call void @__dp_read(i32 106, i64 %56, i8* getelementptr inbounds ([21 x i8], [21 x i8]* @.str.34, i32 0, i32 0))
  %57 = load i32*, i32** %nlist37, align 8, !dbg !1847, !dp.md.instr.id !1849
  %cmp38 = icmp eq i32* %57, null, !dbg !1850, !dp.md.instr.id !1851
  br i1 %cmp38, label %if.then42, label %lor.lhs.false39, !dbg !1852, !dp.md.instr.id !1853

lor.lhs.false39:                                  ; preds = %lor.lhs.false36
  %eweight40 = getelementptr inbounds %struct.ECLgraph, %struct.ECLgraph* %agg.result, i32 0, i32 4, !dbg !1854, !dp.md.instr.id !1855
  %58 = ptrtoint i32** %eweight40 to i64
  call void @__dp_read(i32 110, i64 %58, i8* getelementptr inbounds ([21 x i8], [21 x i8]* @.str.34, i32 0, i32 0))
  %59 = load i32*, i32** %eweight40, align 8, !dbg !1854, !dp.md.instr.id !1856
  %cmp41 = icmp eq i32* %59, null, !dbg !1857, !dp.md.instr.id !1858
  br i1 %cmp41, label %if.then42, label %if.end44, !dbg !1859, !dp.md.instr.id !1860

if.then42:                                        ; preds = %lor.lhs.false39, %lor.lhs.false36, %if.end22
  %60 = ptrtoint %struct._IO_FILE** @stderr to i64
  call void @__dp_read(i32 113, i64 %60, i8* getelementptr inbounds ([7 x i8], [7 x i8]* @.str.33, i32 0, i32 0))
  %61 = load %struct._IO_FILE*, %struct._IO_FILE** @stderr, align 8, !dbg !1861, !dp.md.instr.id !1863
  call void @__dp_call(i32 16450), !dbg !1864
  %call43 = call i32 (%struct._IO_FILE*, i8*, ...) @fprintf(%struct._IO_FILE* %61, i8* getelementptr inbounds ([34 x i8], [34 x i8]* @.str.6, i64 0, i64 0)), !dbg !1864, !dp.md.instr.id !1865
  call void @__dp_finalize(i32 16450), !dbg !1866
  call void @exit(i32 -1) #13, !dbg !1866, !dp.md.instr.id !1867
  unreachable, !dbg !1866, !dp.md.instr.id !1868

if.end44:                                         ; preds = %lor.lhs.false39
  %nindex45 = getelementptr inbounds %struct.ECLgraph, %struct.ECLgraph* %agg.result, i32 0, i32 2, !dbg !1869, !dp.md.instr.id !1870
  %62 = ptrtoint i32** %nindex45 to i64
  call void @__dp_read(i32 118, i64 %62, i8* getelementptr inbounds ([21 x i8], [21 x i8]* @.str.34, i32 0, i32 0))
  %63 = load i32*, i32** %nindex45, align 8, !dbg !1869, !dp.md.instr.id !1871
  %64 = bitcast i32* %63 to i8*, !dbg !1872, !dp.md.instr.id !1873
  %nodes46 = getelementptr inbounds %struct.ECLgraph, %struct.ECLgraph* %agg.result, i32 0, i32 0, !dbg !1874, !dp.md.instr.id !1875
  %65 = ptrtoint i32* %nodes46 to i64
  call void @__dp_read(i32 121, i64 %65, i8* getelementptr inbounds ([21 x i8], [21 x i8]* @.str.34, i32 0, i32 0))
  %66 = load i32, i32* %nodes46, align 8, !dbg !1874, !dp.md.instr.id !1876
  %add47 = add nsw i32 %66, 1, !dbg !1877, !dp.md.instr.id !1878
  %conv48 = sext i32 %add47 to i64, !dbg !1879, !dp.md.instr.id !1880
  %67 = ptrtoint %struct._IO_FILE** %f to i64
  %68 = load %struct._IO_FILE*, %struct._IO_FILE** %f, align 8, !dbg !1881, !dp.md.instr.id !1882
  call void @__dp_call(i32 16452), !dbg !1883
  %call49 = call i64 @fread(i8* %64, i64 4, i64 %conv48, %struct._IO_FILE* %68), !dbg !1883, !dp.md.instr.id !1884
  %conv50 = trunc i64 %call49 to i32, !dbg !1883, !dp.md.instr.id !1885
  %69 = ptrtoint i32* %cnt to i64
  store i32 %conv50, i32* %cnt, align 4, !dbg !1886, !dp.md.instr.id !1887
  %70 = ptrtoint i32* %cnt to i64
  %71 = load i32, i32* %cnt, align 4, !dbg !1888, !dp.md.instr.id !1890
  %nodes51 = getelementptr inbounds %struct.ECLgraph, %struct.ECLgraph* %agg.result, i32 0, i32 0, !dbg !1891, !dp.md.instr.id !1892
  %72 = ptrtoint i32* %nodes51 to i64
  call void @__dp_read(i32 130, i64 %72, i8* getelementptr inbounds ([21 x i8], [21 x i8]* @.str.34, i32 0, i32 0))
  %73 = load i32, i32* %nodes51, align 8, !dbg !1891, !dp.md.instr.id !1893
  %add52 = add nsw i32 %73, 1, !dbg !1894, !dp.md.instr.id !1895
  %cmp53 = icmp ne i32 %71, %add52, !dbg !1896, !dp.md.instr.id !1897
  call void @__dp_report_bb(i32 4)
  br i1 %cmp53, label %if.then54, label %if.end56, !dbg !1898, !dp.md.instr.id !1899

if.then54:                                        ; preds = %if.end44
  %74 = ptrtoint %struct._IO_FILE** @stderr to i64
  call void @__dp_read(i32 134, i64 %74, i8* getelementptr inbounds ([7 x i8], [7 x i8]* @.str.33, i32 0, i32 0))
  %75 = load %struct._IO_FILE*, %struct._IO_FILE** @stderr, align 8, !dbg !1900, !dp.md.instr.id !1902
  call void @__dp_call(i32 16452), !dbg !1903
  %call55 = call i32 (%struct._IO_FILE*, i8*, ...) @fprintf(%struct._IO_FILE* %75, i8* getelementptr inbounds ([44 x i8], [44 x i8]* @.str.7, i64 0, i64 0)), !dbg !1903, !dp.md.instr.id !1904
  call void @__dp_finalize(i32 16452), !dbg !1905
  call void @exit(i32 -1) #13, !dbg !1905, !dp.md.instr.id !1906
  unreachable, !dbg !1905, !dp.md.instr.id !1907

if.end56:                                         ; preds = %if.end44
  %nlist57 = getelementptr inbounds %struct.ECLgraph, %struct.ECLgraph* %agg.result, i32 0, i32 3, !dbg !1908, !dp.md.instr.id !1909
  %76 = ptrtoint i32** %nlist57 to i64
  call void @__dp_read(i32 139, i64 %76, i8* getelementptr inbounds ([21 x i8], [21 x i8]* @.str.34, i32 0, i32 0))
  %77 = load i32*, i32** %nlist57, align 8, !dbg !1908, !dp.md.instr.id !1910
  %78 = bitcast i32* %77 to i8*, !dbg !1911, !dp.md.instr.id !1912
  %edges58 = getelementptr inbounds %struct.ECLgraph, %struct.ECLgraph* %agg.result, i32 0, i32 1, !dbg !1913, !dp.md.instr.id !1914
  %79 = ptrtoint i32* %edges58 to i64
  call void @__dp_read(i32 142, i64 %79, i8* getelementptr inbounds ([21 x i8], [21 x i8]* @.str.34, i32 0, i32 0))
  %80 = load i32, i32* %edges58, align 4, !dbg !1913, !dp.md.instr.id !1915
  %conv59 = sext i32 %80 to i64, !dbg !1916, !dp.md.instr.id !1917
  %81 = ptrtoint %struct._IO_FILE** %f to i64
  %82 = load %struct._IO_FILE*, %struct._IO_FILE** %f, align 8, !dbg !1918, !dp.md.instr.id !1919
  call void @__dp_call(i32 16453), !dbg !1920
  %call60 = call i64 @fread(i8* %78, i64 4, i64 %conv59, %struct._IO_FILE* %82), !dbg !1920, !dp.md.instr.id !1921
  %conv61 = trunc i64 %call60 to i32, !dbg !1920, !dp.md.instr.id !1922
  %83 = ptrtoint i32* %cnt to i64
  store i32 %conv61, i32* %cnt, align 4, !dbg !1923, !dp.md.instr.id !1924
  %84 = ptrtoint i32* %cnt to i64
  %85 = load i32, i32* %cnt, align 4, !dbg !1925, !dp.md.instr.id !1927
  %edges62 = getelementptr inbounds %struct.ECLgraph, %struct.ECLgraph* %agg.result, i32 0, i32 1, !dbg !1928, !dp.md.instr.id !1929
  %86 = ptrtoint i32* %edges62 to i64
  call void @__dp_read(i32 150, i64 %86, i8* getelementptr inbounds ([21 x i8], [21 x i8]* @.str.34, i32 0, i32 0))
  %87 = load i32, i32* %edges62, align 4, !dbg !1928, !dp.md.instr.id !1930
  %cmp63 = icmp ne i32 %85, %87, !dbg !1931, !dp.md.instr.id !1932
  call void @__dp_report_bb(i32 6)
  br i1 %cmp63, label %if.then64, label %if.end66, !dbg !1933, !dp.md.instr.id !1934

if.then64:                                        ; preds = %if.end56
  %88 = ptrtoint %struct._IO_FILE** @stderr to i64
  call void @__dp_read(i32 153, i64 %88, i8* getelementptr inbounds ([7 x i8], [7 x i8]* @.str.33, i32 0, i32 0))
  %89 = load %struct._IO_FILE*, %struct._IO_FILE** @stderr, align 8, !dbg !1935, !dp.md.instr.id !1937
  call void @__dp_call(i32 16453), !dbg !1938
  %call65 = call i32 (%struct._IO_FILE*, i8*, ...) @fprintf(%struct._IO_FILE* %89, i8* getelementptr inbounds ([38 x i8], [38 x i8]* @.str.8, i64 0, i64 0)), !dbg !1938, !dp.md.instr.id !1939
  call void @__dp_finalize(i32 16453), !dbg !1940
  call void @exit(i32 -1) #13, !dbg !1940, !dp.md.instr.id !1941
  unreachable, !dbg !1940, !dp.md.instr.id !1942

if.end66:                                         ; preds = %if.end56
  %eweight67 = getelementptr inbounds %struct.ECLgraph, %struct.ECLgraph* %agg.result, i32 0, i32 4, !dbg !1943, !dp.md.instr.id !1944
  %90 = ptrtoint i32** %eweight67 to i64
  call void @__dp_read(i32 158, i64 %90, i8* getelementptr inbounds ([21 x i8], [21 x i8]* @.str.34, i32 0, i32 0))
  %91 = load i32*, i32** %eweight67, align 8, !dbg !1943, !dp.md.instr.id !1945
  %92 = bitcast i32* %91 to i8*, !dbg !1946, !dp.md.instr.id !1947
  %edges68 = getelementptr inbounds %struct.ECLgraph, %struct.ECLgraph* %agg.result, i32 0, i32 1, !dbg !1948, !dp.md.instr.id !1949
  %93 = ptrtoint i32* %edges68 to i64
  call void @__dp_read(i32 161, i64 %93, i8* getelementptr inbounds ([21 x i8], [21 x i8]* @.str.34, i32 0, i32 0))
  %94 = load i32, i32* %edges68, align 4, !dbg !1948, !dp.md.instr.id !1950
  %conv69 = sext i32 %94 to i64, !dbg !1951, !dp.md.instr.id !1952
  %95 = ptrtoint %struct._IO_FILE** %f to i64
  %96 = load %struct._IO_FILE*, %struct._IO_FILE** %f, align 8, !dbg !1953, !dp.md.instr.id !1954
  call void @__dp_call(i32 16454), !dbg !1955
  %call70 = call i64 @fread(i8* %92, i64 4, i64 %conv69, %struct._IO_FILE* %96), !dbg !1955, !dp.md.instr.id !1956
  %conv71 = trunc i64 %call70 to i32, !dbg !1955, !dp.md.instr.id !1957
  %97 = ptrtoint i32* %cnt to i64
  store i32 %conv71, i32* %cnt, align 4, !dbg !1958, !dp.md.instr.id !1959
  %98 = ptrtoint i32* %cnt to i64
  %99 = load i32, i32* %cnt, align 4, !dbg !1960, !dp.md.instr.id !1962
  %cmp72 = icmp eq i32 %99, 0, !dbg !1963, !dp.md.instr.id !1964
  call void @__dp_report_bb(i32 5)
  br i1 %cmp72, label %if.then73, label %if.else, !dbg !1965, !dp.md.instr.id !1966

if.then73:                                        ; preds = %if.end66
  %eweight74 = getelementptr inbounds %struct.ECLgraph, %struct.ECLgraph* %agg.result, i32 0, i32 4, !dbg !1967, !dp.md.instr.id !1969
  %100 = ptrtoint i32** %eweight74 to i64
  call void @__dp_read(i32 171, i64 %100, i8* getelementptr inbounds ([21 x i8], [21 x i8]* @.str.34, i32 0, i32 0))
  %101 = load i32*, i32** %eweight74, align 8, !dbg !1967, !dp.md.instr.id !1970
  %102 = bitcast i32* %101 to i8*, !dbg !1971, !dp.md.instr.id !1972
  call void @free(i8* %102) #9, !dbg !1973, !dp.md.instr.id !1974
  %103 = ptrtoint i8* %102 to i64, !dp.md.instr.id !1975
  call void @__dp_delete(i32 16456, i64 %103), !dbg !1976, !dp.md.instr.id !1977
  %eweight75 = getelementptr inbounds %struct.ECLgraph, %struct.ECLgraph* %agg.result, i32 0, i32 4, !dbg !1976, !dp.md.instr.id !1978
  %104 = ptrtoint i32** %eweight75 to i64
  call void @__dp_write(i32 177, i64 %104, i8* getelementptr inbounds ([21 x i8], [21 x i8]* @.str.34, i32 0, i32 0))
  store i32* null, i32** %eweight75, align 8, !dbg !1979, !dp.md.instr.id !1980
  br label %if.end81, !dbg !1981, !dp.md.instr.id !1982

if.else:                                          ; preds = %if.end66
  %105 = ptrtoint i32* %cnt to i64
  %106 = load i32, i32* %cnt, align 4, !dbg !1983, !dp.md.instr.id !1986
  %edges76 = getelementptr inbounds %struct.ECLgraph, %struct.ECLgraph* %agg.result, i32 0, i32 1, !dbg !1987, !dp.md.instr.id !1988
  %107 = ptrtoint i32* %edges76 to i64
  call void @__dp_read(i32 181, i64 %107, i8* getelementptr inbounds ([21 x i8], [21 x i8]* @.str.34, i32 0, i32 0))
  %108 = load i32, i32* %edges76, align 4, !dbg !1987, !dp.md.instr.id !1989
  %cmp77 = icmp ne i32 %106, %108, !dbg !1990, !dp.md.instr.id !1991
  call void @__dp_report_bb(i32 8)
  br i1 %cmp77, label %if.then78, label %if.end80, !dbg !1992, !dp.md.instr.id !1993

if.then78:                                        ; preds = %if.else
  %109 = ptrtoint %struct._IO_FILE** @stderr to i64
  call void @__dp_read(i32 184, i64 %109, i8* getelementptr inbounds ([7 x i8], [7 x i8]* @.str.33, i32 0, i32 0))
  %110 = load %struct._IO_FILE*, %struct._IO_FILE** @stderr, align 8, !dbg !1994, !dp.md.instr.id !1996
  call void @__dp_call(i32 16459), !dbg !1997
  %call79 = call i32 (%struct._IO_FILE*, i8*, ...) @fprintf(%struct._IO_FILE* %110, i8* getelementptr inbounds ([37 x i8], [37 x i8]* @.str.9, i64 0, i64 0)), !dbg !1997, !dp.md.instr.id !1998
  call void @__dp_finalize(i32 16459), !dbg !1999
  call void @exit(i32 -1) #13, !dbg !1999, !dp.md.instr.id !2000
  unreachable, !dbg !1999, !dp.md.instr.id !2001

if.end80:                                         ; preds = %if.else
  br label %if.end81, !dp.md.instr.id !2002

if.end81:                                         ; preds = %if.end80, %if.then73
  %111 = ptrtoint %struct._IO_FILE** %f to i64
  %112 = load %struct._IO_FILE*, %struct._IO_FILE** %f, align 8, !dbg !2003, !dp.md.instr.id !2004
  call void @__dp_call(i32 16461), !dbg !2005
  %call82 = call i32 @fclose(%struct._IO_FILE* %112), !dbg !2005, !dp.md.instr.id !2006
  call void @__dp_report_bb(i32 7)
  call void @__dp_func_exit(i32 16463, i32 0), !dbg !2007
  ret void, !dbg !2007, !dp.md.instr.id !2008
}

; Function Attrs: nounwind readnone speculatable willreturn
declare void @llvm.dbg.declare(metadata, metadata, metadata) #1

declare noalias %struct._IO_FILE* @fopen(i8*, i8*) #2

declare i32 @fprintf(%struct._IO_FILE*, i8*, ...) #2

; Function Attrs: noreturn nounwind
declare void @exit(i32) #3

declare i64 @fread(i8*, i64, i64, %struct._IO_FILE*) #2

declare i32 @printf(i8*, ...) #2

; Function Attrs: nounwind
declare noalias i8* @malloc(i64) #4

; Function Attrs: nounwind
declare void @free(i8*) #4

declare i32 @fclose(%struct._IO_FILE*) #2

; Function Attrs: noinline optnone uwtable
define void @_Z13writeECLgraph8ECLgraphPKc(%struct.ECLgraph* byval(%struct.ECLgraph) align 8 %g, i8* %fname) #0 !dbg !2009 {
entry:
  call void @__dp_func_entry(i32 16466, i32 0), !dp.md.instr.id !2013
  %fname.addr = alloca i8*, align 8, !dp.md.instr.id !2014
  %0 = ptrtoint i8** %fname.addr to i64, !dp.md.instr.id !2015
  %cnt = alloca i32, align 4, !dp.md.instr.id !2016
  %1 = ptrtoint i32* %cnt to i64, !dp.md.instr.id !2017
  %f = alloca %struct._IO_FILE*, align 8, !dp.md.instr.id !2018
  %2 = ptrtoint %struct._IO_FILE** %f to i64, !dbg !2019, !dp.md.instr.id !2020
  call void @llvm.dbg.declare(metadata %struct.ECLgraph* %g, metadata !2021, metadata !DIExpression()), !dbg !2019, !dp.md.instr.id !2022
  %3 = ptrtoint i8** %fname.addr to i64
  store i8* %fname, i8** %fname.addr, align 8, !dp.md.instr.id !2023
  call void @llvm.dbg.declare(metadata i8** %fname.addr, metadata !2024, metadata !DIExpression()), !dbg !2025, !dp.md.instr.id !2026
  %nodes = getelementptr inbounds %struct.ECLgraph, %struct.ECLgraph* %g, i32 0, i32 0, !dbg !2027, !dp.md.instr.id !2029
  %4 = ptrtoint i32* %nodes to i64
  call void @__dp_read(i32 206, i64 %4, i8* getelementptr inbounds ([12 x i8], [12 x i8]* @.str.36, i32 0, i32 0))
  %5 = load i32, i32* %nodes, align 8, !dbg !2027, !dp.md.instr.id !2030
  %cmp = icmp slt i32 %5, 1, !dbg !2031, !dp.md.instr.id !2032
  call void @__dp_report_bb(i32 9)
  br i1 %cmp, label %if.then, label %lor.lhs.false, !dbg !2033, !dp.md.instr.id !2034

lor.lhs.false:                                    ; preds = %entry
  %edges = getelementptr inbounds %struct.ECLgraph, %struct.ECLgraph* %g, i32 0, i32 1, !dbg !2035, !dp.md.instr.id !2036
  %6 = ptrtoint i32* %edges to i64
  call void @__dp_read(i32 210, i64 %6, i8* getelementptr inbounds ([12 x i8], [12 x i8]* @.str.36, i32 0, i32 0))
  %7 = load i32, i32* %edges, align 4, !dbg !2035, !dp.md.instr.id !2037
  %cmp1 = icmp slt i32 %7, 0, !dbg !2038, !dp.md.instr.id !2039
  br i1 %cmp1, label %if.then, label %if.end, !dbg !2040, !dp.md.instr.id !2041

if.then:                                          ; preds = %lor.lhs.false, %entry
  %8 = ptrtoint %struct._IO_FILE** @stderr to i64
  call void @__dp_read(i32 213, i64 %8, i8* getelementptr inbounds ([7 x i8], [7 x i8]* @.str.33, i32 0, i32 0))
  %9 = load %struct._IO_FILE*, %struct._IO_FILE** @stderr, align 8, !dbg !2042, !dp.md.instr.id !2044
  call void @__dp_call(i32 16468), !dbg !2045
  %call = call i32 (%struct._IO_FILE*, i8*, ...) @fprintf(%struct._IO_FILE* %9, i8* getelementptr inbounds ([36 x i8], [36 x i8]* @.str.5, i64 0, i64 0)), !dbg !2045, !dp.md.instr.id !2046
  call void @__dp_finalize(i32 16468), !dbg !2047
  call void @exit(i32 -1) #13, !dbg !2047, !dp.md.instr.id !2048
  unreachable, !dbg !2047, !dp.md.instr.id !2049

if.end:                                           ; preds = %lor.lhs.false
  call void @llvm.dbg.declare(metadata i32* %cnt, metadata !2050, metadata !DIExpression()), !dbg !2051, !dp.md.instr.id !2052
  call void @llvm.dbg.declare(metadata %struct._IO_FILE** %f, metadata !2053, metadata !DIExpression()), !dbg !2054, !dp.md.instr.id !2055
  %10 = ptrtoint i8** %fname.addr to i64
  %11 = load i8*, i8** %fname.addr, align 8, !dbg !2056, !dp.md.instr.id !2057
  call void @__dp_call(i32 16470), !dbg !2058
  %call2 = call noalias %struct._IO_FILE* @fopen(i8* %11, i8* getelementptr inbounds ([3 x i8], [3 x i8]* @.str.10, i64 0, i64 0)), !dbg !2058, !dp.md.instr.id !2059
  %12 = ptrtoint %struct._IO_FILE** %f to i64
  store %struct._IO_FILE* %call2, %struct._IO_FILE** %f, align 8, !dbg !2054, !dp.md.instr.id !2060
  %13 = ptrtoint %struct._IO_FILE** %f to i64
  %14 = load %struct._IO_FILE*, %struct._IO_FILE** %f, align 8, !dbg !2061, !dp.md.instr.id !2063
  %cmp3 = icmp eq %struct._IO_FILE* %14, null, !dbg !2064, !dp.md.instr.id !2065
  call void @__dp_report_bb(i32 10)
  br i1 %cmp3, label %if.then4, label %if.end6, !dbg !2066, !dp.md.instr.id !2067

if.then4:                                         ; preds = %if.end
  %15 = ptrtoint %struct._IO_FILE** @stderr to i64
  call void @__dp_read(i32 225, i64 %15, i8* getelementptr inbounds ([7 x i8], [7 x i8]* @.str.33, i32 0, i32 0))
  %16 = load %struct._IO_FILE*, %struct._IO_FILE** @stderr, align 8, !dbg !2068, !dp.md.instr.id !2070
  %17 = ptrtoint i8** %fname.addr to i64
  %18 = load i8*, i8** %fname.addr, align 8, !dbg !2071, !dp.md.instr.id !2072
  call void @__dp_call(i32 16470), !dbg !2073
  %call5 = call i32 (%struct._IO_FILE*, i8*, ...) @fprintf(%struct._IO_FILE* %16, i8* getelementptr inbounds ([32 x i8], [32 x i8]* @.str.1, i64 0, i64 0), i8* %18), !dbg !2073, !dp.md.instr.id !2074
  call void @__dp_finalize(i32 16470), !dbg !2075
  call void @exit(i32 -1) #13, !dbg !2075, !dp.md.instr.id !2076
  call void @__dp_report_bb(i32 11)
  unreachable, !dbg !2075, !dp.md.instr.id !2077

if.end6:                                          ; preds = %if.end
  %nodes7 = getelementptr inbounds %struct.ECLgraph, %struct.ECLgraph* %g, i32 0, i32 0, !dbg !2078, !dp.md.instr.id !2079
  %19 = bitcast i32* %nodes7 to i8*, !dbg !2080, !dp.md.instr.id !2081
  %20 = ptrtoint %struct._IO_FILE** %f to i64
  %21 = load %struct._IO_FILE*, %struct._IO_FILE** %f, align 8, !dbg !2082, !dp.md.instr.id !2083
  call void @__dp_call(i32 16471), !dbg !2084
  %call8 = call i64 @fwrite(i8* %19, i64 4, i64 1, %struct._IO_FILE* %21), !dbg !2084, !dp.md.instr.id !2085
  %conv = trunc i64 %call8 to i32, !dbg !2084, !dp.md.instr.id !2086
  %22 = ptrtoint i32* %cnt to i64
  store i32 %conv, i32* %cnt, align 4, !dbg !2087, !dp.md.instr.id !2088
  %23 = ptrtoint i32* %cnt to i64
  %24 = load i32, i32* %cnt, align 4, !dbg !2089, !dp.md.instr.id !2091
  %cmp9 = icmp ne i32 %24, 1, !dbg !2092, !dp.md.instr.id !2093
  call void @__dp_report_bb(i32 12)
  br i1 %cmp9, label %if.then10, label %if.end12, !dbg !2094, !dp.md.instr.id !2095

if.then10:                                        ; preds = %if.end6
  %25 = ptrtoint %struct._IO_FILE** @stderr to i64
  call void @__dp_read(i32 239, i64 %25, i8* getelementptr inbounds ([7 x i8], [7 x i8]* @.str.33, i32 0, i32 0))
  %26 = load %struct._IO_FILE*, %struct._IO_FILE** @stderr, align 8, !dbg !2096, !dp.md.instr.id !2098
  call void @__dp_call(i32 16471), !dbg !2099
  %call11 = call i32 (%struct._IO_FILE*, i8*, ...) @fprintf(%struct._IO_FILE* %26, i8* getelementptr inbounds ([31 x i8], [31 x i8]* @.str.11, i64 0, i64 0)), !dbg !2099, !dp.md.instr.id !2100
  call void @__dp_finalize(i32 16471), !dbg !2101
  call void @exit(i32 -1) #13, !dbg !2101, !dp.md.instr.id !2102
  unreachable, !dbg !2101, !dp.md.instr.id !2103

if.end12:                                         ; preds = %if.end6
  %edges13 = getelementptr inbounds %struct.ECLgraph, %struct.ECLgraph* %g, i32 0, i32 1, !dbg !2104, !dp.md.instr.id !2105
  %27 = bitcast i32* %edges13 to i8*, !dbg !2106, !dp.md.instr.id !2107
  %28 = ptrtoint %struct._IO_FILE** %f to i64
  %29 = load %struct._IO_FILE*, %struct._IO_FILE** %f, align 8, !dbg !2108, !dp.md.instr.id !2109
  call void @__dp_call(i32 16472), !dbg !2110
  %call14 = call i64 @fwrite(i8* %27, i64 4, i64 1, %struct._IO_FILE* %29), !dbg !2110, !dp.md.instr.id !2111
  %conv15 = trunc i64 %call14 to i32, !dbg !2110, !dp.md.instr.id !2112
  %30 = ptrtoint i32* %cnt to i64
  store i32 %conv15, i32* %cnt, align 4, !dbg !2113, !dp.md.instr.id !2114
  %31 = ptrtoint i32* %cnt to i64
  %32 = load i32, i32* %cnt, align 4, !dbg !2115, !dp.md.instr.id !2117
  %cmp16 = icmp ne i32 %32, 1, !dbg !2118, !dp.md.instr.id !2119
  call void @__dp_report_bb(i32 13)
  br i1 %cmp16, label %if.then17, label %if.end19, !dbg !2120, !dp.md.instr.id !2121

if.then17:                                        ; preds = %if.end12
  %33 = ptrtoint %struct._IO_FILE** @stderr to i64
  call void @__dp_read(i32 252, i64 %33, i8* getelementptr inbounds ([7 x i8], [7 x i8]* @.str.33, i32 0, i32 0))
  %34 = load %struct._IO_FILE*, %struct._IO_FILE** @stderr, align 8, !dbg !2122, !dp.md.instr.id !2124
  call void @__dp_call(i32 16472), !dbg !2125
  %call18 = call i32 (%struct._IO_FILE*, i8*, ...) @fprintf(%struct._IO_FILE* %34, i8* getelementptr inbounds ([31 x i8], [31 x i8]* @.str.12, i64 0, i64 0)), !dbg !2125, !dp.md.instr.id !2126
  call void @__dp_finalize(i32 16472), !dbg !2127
  call void @exit(i32 -1) #13, !dbg !2127, !dp.md.instr.id !2128
  unreachable, !dbg !2127, !dp.md.instr.id !2129

if.end19:                                         ; preds = %if.end12
  %nindex = getelementptr inbounds %struct.ECLgraph, %struct.ECLgraph* %g, i32 0, i32 2, !dbg !2130, !dp.md.instr.id !2131
  %35 = ptrtoint i32** %nindex to i64
  call void @__dp_read(i32 257, i64 %35, i8* getelementptr inbounds ([12 x i8], [12 x i8]* @.str.36, i32 0, i32 0))
  %36 = load i32*, i32** %nindex, align 8, !dbg !2130, !dp.md.instr.id !2132
  %37 = bitcast i32* %36 to i8*, !dbg !2133, !dp.md.instr.id !2134
  %nodes20 = getelementptr inbounds %struct.ECLgraph, %struct.ECLgraph* %g, i32 0, i32 0, !dbg !2135, !dp.md.instr.id !2136
  %38 = ptrtoint i32* %nodes20 to i64
  call void @__dp_read(i32 260, i64 %38, i8* getelementptr inbounds ([12 x i8], [12 x i8]* @.str.36, i32 0, i32 0))
  %39 = load i32, i32* %nodes20, align 8, !dbg !2135, !dp.md.instr.id !2137
  %add = add nsw i32 %39, 1, !dbg !2138, !dp.md.instr.id !2139
  %conv21 = sext i32 %add to i64, !dbg !2140, !dp.md.instr.id !2141
  %40 = ptrtoint %struct._IO_FILE** %f to i64
  %41 = load %struct._IO_FILE*, %struct._IO_FILE** %f, align 8, !dbg !2142, !dp.md.instr.id !2143
  call void @__dp_call(i32 16474), !dbg !2144
  %call22 = call i64 @fwrite(i8* %37, i64 4, i64 %conv21, %struct._IO_FILE* %41), !dbg !2144, !dp.md.instr.id !2145
  %conv23 = trunc i64 %call22 to i32, !dbg !2144, !dp.md.instr.id !2146
  %42 = ptrtoint i32* %cnt to i64
  store i32 %conv23, i32* %cnt, align 4, !dbg !2147, !dp.md.instr.id !2148
  %43 = ptrtoint i32* %cnt to i64
  %44 = load i32, i32* %cnt, align 4, !dbg !2149, !dp.md.instr.id !2151
  %nodes24 = getelementptr inbounds %struct.ECLgraph, %struct.ECLgraph* %g, i32 0, i32 0, !dbg !2152, !dp.md.instr.id !2153
  %45 = ptrtoint i32* %nodes24 to i64
  call void @__dp_read(i32 269, i64 %45, i8* getelementptr inbounds ([12 x i8], [12 x i8]* @.str.36, i32 0, i32 0))
  %46 = load i32, i32* %nodes24, align 8, !dbg !2152, !dp.md.instr.id !2154
  %add25 = add nsw i32 %46, 1, !dbg !2155, !dp.md.instr.id !2156
  %cmp26 = icmp ne i32 %44, %add25, !dbg !2157, !dp.md.instr.id !2158
  call void @__dp_report_bb(i32 14)
  br i1 %cmp26, label %if.then27, label %if.end29, !dbg !2159, !dp.md.instr.id !2160

if.then27:                                        ; preds = %if.end19
  %47 = ptrtoint %struct._IO_FILE** @stderr to i64
  call void @__dp_read(i32 273, i64 %47, i8* getelementptr inbounds ([7 x i8], [7 x i8]* @.str.33, i32 0, i32 0))
  %48 = load %struct._IO_FILE*, %struct._IO_FILE** @stderr, align 8, !dbg !2161, !dp.md.instr.id !2163
  call void @__dp_call(i32 16474), !dbg !2164
  %call28 = call i32 (%struct._IO_FILE*, i8*, ...) @fprintf(%struct._IO_FILE* %48, i8* getelementptr inbounds ([45 x i8], [45 x i8]* @.str.13, i64 0, i64 0)), !dbg !2164, !dp.md.instr.id !2165
  call void @__dp_finalize(i32 16474), !dbg !2166
  call void @exit(i32 -1) #13, !dbg !2166, !dp.md.instr.id !2167
  unreachable, !dbg !2166, !dp.md.instr.id !2168

if.end29:                                         ; preds = %if.end19
  %nlist = getelementptr inbounds %struct.ECLgraph, %struct.ECLgraph* %g, i32 0, i32 3, !dbg !2169, !dp.md.instr.id !2170
  %49 = ptrtoint i32** %nlist to i64
  call void @__dp_read(i32 278, i64 %49, i8* getelementptr inbounds ([12 x i8], [12 x i8]* @.str.36, i32 0, i32 0))
  %50 = load i32*, i32** %nlist, align 8, !dbg !2169, !dp.md.instr.id !2171
  %51 = bitcast i32* %50 to i8*, !dbg !2172, !dp.md.instr.id !2173
  %edges30 = getelementptr inbounds %struct.ECLgraph, %struct.ECLgraph* %g, i32 0, i32 1, !dbg !2174, !dp.md.instr.id !2175
  %52 = ptrtoint i32* %edges30 to i64
  call void @__dp_read(i32 281, i64 %52, i8* getelementptr inbounds ([12 x i8], [12 x i8]* @.str.36, i32 0, i32 0))
  %53 = load i32, i32* %edges30, align 4, !dbg !2174, !dp.md.instr.id !2176
  %conv31 = sext i32 %53 to i64, !dbg !2177, !dp.md.instr.id !2178
  %54 = ptrtoint %struct._IO_FILE** %f to i64
  %55 = load %struct._IO_FILE*, %struct._IO_FILE** %f, align 8, !dbg !2179, !dp.md.instr.id !2180
  call void @__dp_call(i32 16475), !dbg !2181
  %call32 = call i64 @fwrite(i8* %51, i64 4, i64 %conv31, %struct._IO_FILE* %55), !dbg !2181, !dp.md.instr.id !2182
  %conv33 = trunc i64 %call32 to i32, !dbg !2181, !dp.md.instr.id !2183
  %56 = ptrtoint i32* %cnt to i64
  store i32 %conv33, i32* %cnt, align 4, !dbg !2184, !dp.md.instr.id !2185
  %57 = ptrtoint i32* %cnt to i64
  %58 = load i32, i32* %cnt, align 4, !dbg !2186, !dp.md.instr.id !2188
  %edges34 = getelementptr inbounds %struct.ECLgraph, %struct.ECLgraph* %g, i32 0, i32 1, !dbg !2189, !dp.md.instr.id !2190
  %59 = ptrtoint i32* %edges34 to i64
  call void @__dp_read(i32 289, i64 %59, i8* getelementptr inbounds ([12 x i8], [12 x i8]* @.str.36, i32 0, i32 0))
  %60 = load i32, i32* %edges34, align 4, !dbg !2189, !dp.md.instr.id !2191
  %cmp35 = icmp ne i32 %58, %60, !dbg !2192, !dp.md.instr.id !2193
  call void @__dp_report_bb(i32 15)
  br i1 %cmp35, label %if.then36, label %if.end38, !dbg !2194, !dp.md.instr.id !2195

if.then36:                                        ; preds = %if.end29
  %61 = ptrtoint %struct._IO_FILE** @stderr to i64
  call void @__dp_read(i32 292, i64 %61, i8* getelementptr inbounds ([7 x i8], [7 x i8]* @.str.33, i32 0, i32 0))
  %62 = load %struct._IO_FILE*, %struct._IO_FILE** @stderr, align 8, !dbg !2196, !dp.md.instr.id !2198
  call void @__dp_call(i32 16475), !dbg !2199
  %call37 = call i32 (%struct._IO_FILE*, i8*, ...) @fprintf(%struct._IO_FILE* %62, i8* getelementptr inbounds ([39 x i8], [39 x i8]* @.str.14, i64 0, i64 0)), !dbg !2199, !dp.md.instr.id !2200
  call void @__dp_finalize(i32 16475), !dbg !2201
  call void @exit(i32 -1) #13, !dbg !2201, !dp.md.instr.id !2202
  unreachable, !dbg !2201, !dp.md.instr.id !2203

if.end38:                                         ; preds = %if.end29
  %eweight = getelementptr inbounds %struct.ECLgraph, %struct.ECLgraph* %g, i32 0, i32 4, !dbg !2204, !dp.md.instr.id !2206
  %63 = ptrtoint i32** %eweight to i64
  call void @__dp_read(i32 297, i64 %63, i8* getelementptr inbounds ([12 x i8], [12 x i8]* @.str.36, i32 0, i32 0))
  %64 = load i32*, i32** %eweight, align 8, !dbg !2204, !dp.md.instr.id !2207
  %cmp39 = icmp ne i32* %64, null, !dbg !2208, !dp.md.instr.id !2209
  br i1 %cmp39, label %if.then40, label %if.end51, !dbg !2210, !dp.md.instr.id !2211

if.then40:                                        ; preds = %if.end38
  %eweight41 = getelementptr inbounds %struct.ECLgraph, %struct.ECLgraph* %g, i32 0, i32 4, !dbg !2212, !dp.md.instr.id !2214
  %65 = ptrtoint i32** %eweight41 to i64
  call void @__dp_read(i32 301, i64 %65, i8* getelementptr inbounds ([12 x i8], [12 x i8]* @.str.36, i32 0, i32 0))
  %66 = load i32*, i32** %eweight41, align 8, !dbg !2212, !dp.md.instr.id !2215
  %67 = bitcast i32* %66 to i8*, !dbg !2216, !dp.md.instr.id !2217
  %edges42 = getelementptr inbounds %struct.ECLgraph, %struct.ECLgraph* %g, i32 0, i32 1, !dbg !2218, !dp.md.instr.id !2219
  %68 = ptrtoint i32* %edges42 to i64
  call void @__dp_read(i32 304, i64 %68, i8* getelementptr inbounds ([12 x i8], [12 x i8]* @.str.36, i32 0, i32 0))
  %69 = load i32, i32* %edges42, align 4, !dbg !2218, !dp.md.instr.id !2220
  %conv43 = sext i32 %69 to i64, !dbg !2221, !dp.md.instr.id !2222
  %70 = ptrtoint %struct._IO_FILE** %f to i64
  %71 = load %struct._IO_FILE*, %struct._IO_FILE** %f, align 8, !dbg !2223, !dp.md.instr.id !2224
  call void @__dp_call(i32 16477), !dbg !2225
  %call44 = call i64 @fwrite(i8* %67, i64 4, i64 %conv43, %struct._IO_FILE* %71), !dbg !2225, !dp.md.instr.id !2226
  %conv45 = trunc i64 %call44 to i32, !dbg !2225, !dp.md.instr.id !2227
  %72 = ptrtoint i32* %cnt to i64
  store i32 %conv45, i32* %cnt, align 4, !dbg !2228, !dp.md.instr.id !2229
  %73 = ptrtoint i32* %cnt to i64
  %74 = load i32, i32* %cnt, align 4, !dbg !2230, !dp.md.instr.id !2232
  %edges46 = getelementptr inbounds %struct.ECLgraph, %struct.ECLgraph* %g, i32 0, i32 1, !dbg !2233, !dp.md.instr.id !2234
  %75 = ptrtoint i32* %edges46 to i64
  call void @__dp_read(i32 312, i64 %75, i8* getelementptr inbounds ([12 x i8], [12 x i8]* @.str.36, i32 0, i32 0))
  %76 = load i32, i32* %edges46, align 4, !dbg !2233, !dp.md.instr.id !2235
  %cmp47 = icmp ne i32 %74, %76, !dbg !2236, !dp.md.instr.id !2237
  call void @__dp_report_bb(i32 16)
  br i1 %cmp47, label %if.then48, label %if.end50, !dbg !2238, !dp.md.instr.id !2239

if.then48:                                        ; preds = %if.then40
  %77 = ptrtoint %struct._IO_FILE** @stderr to i64
  call void @__dp_read(i32 315, i64 %77, i8* getelementptr inbounds ([7 x i8], [7 x i8]* @.str.33, i32 0, i32 0))
  %78 = load %struct._IO_FILE*, %struct._IO_FILE** @stderr, align 8, !dbg !2240, !dp.md.instr.id !2242
  call void @__dp_call(i32 16477), !dbg !2243
  %call49 = call i32 (%struct._IO_FILE*, i8*, ...) @fprintf(%struct._IO_FILE* %78, i8* getelementptr inbounds ([38 x i8], [38 x i8]* @.str.15, i64 0, i64 0)), !dbg !2243, !dp.md.instr.id !2244
  call void @__dp_finalize(i32 16477), !dbg !2245
  call void @exit(i32 -1) #13, !dbg !2245, !dp.md.instr.id !2246
  unreachable, !dbg !2245, !dp.md.instr.id !2247

if.end50:                                         ; preds = %if.then40
  br label %if.end51, !dbg !2248, !dp.md.instr.id !2249

if.end51:                                         ; preds = %if.end50, %if.end38
  %79 = ptrtoint %struct._IO_FILE** %f to i64
  %80 = load %struct._IO_FILE*, %struct._IO_FILE** %f, align 8, !dbg !2250, !dp.md.instr.id !2251
  call void @__dp_call(i32 16479), !dbg !2252
  %call52 = call i32 @fclose(%struct._IO_FILE* %80), !dbg !2252, !dp.md.instr.id !2253
  call void @__dp_report_bb(i32 17)
  call void @__dp_func_exit(i32 16480, i32 0), !dbg !2254
  ret void, !dbg !2254, !dp.md.instr.id !2255
}

declare i64 @fwrite(i8*, i64, i64, %struct._IO_FILE*) #2

; Function Attrs: noinline nounwind optnone uwtable
define void @_Z12freeECLgraphR8ECLgraph(%struct.ECLgraph* nonnull align 8 dereferenceable(32) %g) #5 !dbg !2256 {
entry:
  call void @__dp_func_entry(i32 16482, i32 0), !dp.md.instr.id !2260
  %g.addr = alloca %struct.ECLgraph*, align 8, !dp.md.instr.id !2261
  %0 = ptrtoint %struct.ECLgraph** %g.addr to i64, !dp.md.instr.id !2262
  %1 = ptrtoint %struct.ECLgraph** %g.addr to i64
  store %struct.ECLgraph* %g, %struct.ECLgraph** %g.addr, align 8, !dp.md.instr.id !2263
  call void @llvm.dbg.declare(metadata %struct.ECLgraph** %g.addr, metadata !2264, metadata !DIExpression()), !dbg !2265, !dp.md.instr.id !2266
  %2 = ptrtoint %struct.ECLgraph** %g.addr to i64
  %3 = load %struct.ECLgraph*, %struct.ECLgraph** %g.addr, align 8, !dbg !2267, !dp.md.instr.id !2269
  %nindex = getelementptr inbounds %struct.ECLgraph, %struct.ECLgraph* %3, i32 0, i32 2, !dbg !2270, !dp.md.instr.id !2271
  %4 = ptrtoint i32** %nindex to i64
  call void @__dp_read(i32 331, i64 %4, i8* getelementptr inbounds ([12 x i8], [12 x i8]* @.str.36, i32 0, i32 0))
  %5 = load i32*, i32** %nindex, align 8, !dbg !2270, !dp.md.instr.id !2272
  %cmp = icmp ne i32* %5, null, !dbg !2273, !dp.md.instr.id !2274
  call void @__dp_report_bb(i32 18)
  br i1 %cmp, label %if.then, label %if.end, !dbg !2275, !dp.md.instr.id !2276

if.then:                                          ; preds = %entry
  %6 = ptrtoint %struct.ECLgraph** %g.addr to i64
  %7 = load %struct.ECLgraph*, %struct.ECLgraph** %g.addr, align 8, !dbg !2277, !dp.md.instr.id !2278
  %nindex1 = getelementptr inbounds %struct.ECLgraph, %struct.ECLgraph* %7, i32 0, i32 2, !dbg !2279, !dp.md.instr.id !2280
  %8 = ptrtoint i32** %nindex1 to i64
  call void @__dp_read(i32 336, i64 %8, i8* getelementptr inbounds ([12 x i8], [12 x i8]* @.str.36, i32 0, i32 0))
  %9 = load i32*, i32** %nindex1, align 8, !dbg !2279, !dp.md.instr.id !2281
  %10 = bitcast i32* %9 to i8*, !dbg !2277, !dp.md.instr.id !2282
  call void @free(i8* %10) #9, !dbg !2283, !dp.md.instr.id !2284
  %11 = ptrtoint i8* %10 to i64, !dp.md.instr.id !2285
  call void @__dp_delete(i32 16484, i64 %11), !dbg !2283, !dp.md.instr.id !2286
  call void @__dp_report_bb(i32 20)
  br label %if.end, !dbg !2283, !dp.md.instr.id !2287

if.end:                                           ; preds = %if.then, %entry
  %12 = ptrtoint %struct.ECLgraph** %g.addr to i64
  %13 = load %struct.ECLgraph*, %struct.ECLgraph** %g.addr, align 8, !dbg !2288, !dp.md.instr.id !2290
  %nlist = getelementptr inbounds %struct.ECLgraph, %struct.ECLgraph* %13, i32 0, i32 3, !dbg !2291, !dp.md.instr.id !2292
  %14 = ptrtoint i32** %nlist to i64
  call void @__dp_read(i32 344, i64 %14, i8* getelementptr inbounds ([12 x i8], [12 x i8]* @.str.36, i32 0, i32 0))
  %15 = load i32*, i32** %nlist, align 8, !dbg !2291, !dp.md.instr.id !2293
  %cmp2 = icmp ne i32* %15, null, !dbg !2294, !dp.md.instr.id !2295
  call void @__dp_report_bb(i32 19)
  br i1 %cmp2, label %if.then3, label %if.end5, !dbg !2296, !dp.md.instr.id !2297

if.then3:                                         ; preds = %if.end
  %16 = ptrtoint %struct.ECLgraph** %g.addr to i64
  %17 = load %struct.ECLgraph*, %struct.ECLgraph** %g.addr, align 8, !dbg !2298, !dp.md.instr.id !2299
  %nlist4 = getelementptr inbounds %struct.ECLgraph, %struct.ECLgraph* %17, i32 0, i32 3, !dbg !2300, !dp.md.instr.id !2301
  %18 = ptrtoint i32** %nlist4 to i64
  call void @__dp_read(i32 349, i64 %18, i8* getelementptr inbounds ([12 x i8], [12 x i8]* @.str.36, i32 0, i32 0))
  %19 = load i32*, i32** %nlist4, align 8, !dbg !2300, !dp.md.instr.id !2302
  %20 = bitcast i32* %19 to i8*, !dbg !2298, !dp.md.instr.id !2303
  call void @free(i8* %20) #9, !dbg !2304, !dp.md.instr.id !2305
  %21 = ptrtoint i8* %20 to i64, !dp.md.instr.id !2306
  call void @__dp_delete(i32 16485, i64 %21), !dbg !2304, !dp.md.instr.id !2307
  call void @__dp_report_bb(i32 21)
  br label %if.end5, !dbg !2304, !dp.md.instr.id !2308

if.end5:                                          ; preds = %if.then3, %if.end
  %22 = ptrtoint %struct.ECLgraph** %g.addr to i64
  %23 = load %struct.ECLgraph*, %struct.ECLgraph** %g.addr, align 8, !dbg !2309, !dp.md.instr.id !2311
  %eweight = getelementptr inbounds %struct.ECLgraph, %struct.ECLgraph* %23, i32 0, i32 4, !dbg !2312, !dp.md.instr.id !2313
  %24 = ptrtoint i32** %eweight to i64
  call void @__dp_read(i32 357, i64 %24, i8* getelementptr inbounds ([12 x i8], [12 x i8]* @.str.36, i32 0, i32 0))
  %25 = load i32*, i32** %eweight, align 8, !dbg !2312, !dp.md.instr.id !2314
  %cmp6 = icmp ne i32* %25, null, !dbg !2315, !dp.md.instr.id !2316
  call void @__dp_report_bb(i32 22)
  br i1 %cmp6, label %if.then7, label %if.end9, !dbg !2317, !dp.md.instr.id !2318

if.then7:                                         ; preds = %if.end5
  %26 = ptrtoint %struct.ECLgraph** %g.addr to i64
  %27 = load %struct.ECLgraph*, %struct.ECLgraph** %g.addr, align 8, !dbg !2319, !dp.md.instr.id !2320
  %eweight8 = getelementptr inbounds %struct.ECLgraph, %struct.ECLgraph* %27, i32 0, i32 4, !dbg !2321, !dp.md.instr.id !2322
  %28 = ptrtoint i32** %eweight8 to i64
  call void @__dp_read(i32 362, i64 %28, i8* getelementptr inbounds ([12 x i8], [12 x i8]* @.str.36, i32 0, i32 0))
  %29 = load i32*, i32** %eweight8, align 8, !dbg !2321, !dp.md.instr.id !2323
  %30 = bitcast i32* %29 to i8*, !dbg !2319, !dp.md.instr.id !2324
  call void @free(i8* %30) #9, !dbg !2325, !dp.md.instr.id !2326
  %31 = ptrtoint i8* %30 to i64, !dp.md.instr.id !2327
  call void @__dp_delete(i32 16486, i64 %31), !dbg !2325, !dp.md.instr.id !2328
  call void @__dp_report_bb(i32 23)
  br label %if.end9, !dbg !2325, !dp.md.instr.id !2329

if.end9:                                          ; preds = %if.then7, %if.end5
  %32 = ptrtoint %struct.ECLgraph** %g.addr to i64
  %33 = load %struct.ECLgraph*, %struct.ECLgraph** %g.addr, align 8, !dbg !2330, !dp.md.instr.id !2331
  %nindex10 = getelementptr inbounds %struct.ECLgraph, %struct.ECLgraph* %33, i32 0, i32 2, !dbg !2332, !dp.md.instr.id !2333
  %34 = ptrtoint i32** %nindex10 to i64
  call void @__dp_write(i32 370, i64 %34, i8* getelementptr inbounds ([12 x i8], [12 x i8]* @.str.36, i32 0, i32 0))
  store i32* null, i32** %nindex10, align 8, !dbg !2334, !dp.md.instr.id !2335
  %35 = ptrtoint %struct.ECLgraph** %g.addr to i64
  %36 = load %struct.ECLgraph*, %struct.ECLgraph** %g.addr, align 8, !dbg !2336, !dp.md.instr.id !2337
  %nlist11 = getelementptr inbounds %struct.ECLgraph, %struct.ECLgraph* %36, i32 0, i32 3, !dbg !2338, !dp.md.instr.id !2339
  %37 = ptrtoint i32** %nlist11 to i64
  call void @__dp_write(i32 373, i64 %37, i8* getelementptr inbounds ([12 x i8], [12 x i8]* @.str.36, i32 0, i32 0))
  store i32* null, i32** %nlist11, align 8, !dbg !2340, !dp.md.instr.id !2341
  %38 = ptrtoint %struct.ECLgraph** %g.addr to i64
  %39 = load %struct.ECLgraph*, %struct.ECLgraph** %g.addr, align 8, !dbg !2342, !dp.md.instr.id !2343
  %eweight12 = getelementptr inbounds %struct.ECLgraph, %struct.ECLgraph* %39, i32 0, i32 4, !dbg !2344, !dp.md.instr.id !2345
  %40 = ptrtoint i32** %eweight12 to i64
  call void @__dp_write(i32 376, i64 %40, i8* getelementptr inbounds ([12 x i8], [12 x i8]* @.str.36, i32 0, i32 0))
  store i32* null, i32** %eweight12, align 8, !dbg !2346, !dp.md.instr.id !2347
  call void @__dp_report_bb(i32 24)
  call void @__dp_func_exit(i32 16490, i32 0), !dbg !2348
  ret void, !dbg !2348, !dp.md.instr.id !2349
}

; Function Attrs: noinline norecurse optnone uwtable
define i32 @main(i32 %argc, i8** %argv) #6 !dbg !2350 {
entry:
  call void @__dp_func_entry(i32 32836, i32 1), !dp.md.instr.id !2353
  %__dp_bb131 = alloca i32, align 4
  store i32 0, i32* %__dp_bb131, align 4
  %__dp_bb130 = alloca i32, align 4
  store i32 0, i32* %__dp_bb130, align 4
  %__dp_bb129 = alloca i32, align 4
  store i32 0, i32* %__dp_bb129, align 4
  %__dp_bb128 = alloca i32, align 4
  store i32 0, i32* %__dp_bb128, align 4
  %__dp_bb127 = alloca i32, align 4
  store i32 0, i32* %__dp_bb127, align 4
  %__dp_bb126 = alloca i32, align 4
  store i32 0, i32* %__dp_bb126, align 4
  %__dp_bb125 = alloca i32, align 4
  store i32 0, i32* %__dp_bb125, align 4
  %__dp_bb124 = alloca i32, align 4
  store i32 0, i32* %__dp_bb124, align 4
  %__dp_bb123 = alloca i32, align 4
  store i32 0, i32* %__dp_bb123, align 4
  %__dp_bb = alloca i32, align 4
  store i32 0, i32* %__dp_bb, align 4
  %retval = alloca i32, align 4, !dp.md.instr.id !2354
  %0 = ptrtoint i32* %retval to i64, !dp.md.instr.id !2355
  %argc.addr = alloca i32, align 4, !dp.md.instr.id !2356
  %1 = ptrtoint i32* %argc.addr to i64, !dp.md.instr.id !2357
  %argv.addr = alloca i8**, align 8, !dp.md.instr.id !2358
  %2 = ptrtoint i8*** %argv.addr to i64, !dp.md.instr.id !2359
  %g = alloca %struct.ECLgraph, align 8, !dp.md.instr.id !2360
  %3 = ptrtoint %struct.ECLgraph* %g to i64, !dp.md.instr.id !2361
  call void @__dp_alloca(i32 32836, i8* getelementptr inbounds ([2 x i8], [2 x i8]* @.str.37, i32 0, i32 0), i64 %3, i64 %3, i64 0, i64 1), !dp.md.instr.id !2362
  %degree = alloca i32*, align 8, !dp.md.instr.id !2363
  %4 = ptrtoint i32** %degree to i64, !dp.md.instr.id !2364
  %i = alloca i32, align 4, !dp.md.instr.id !2365
  %5 = ptrtoint i32* %i to i64, !dp.md.instr.id !2366
  %threadCount = alloca i32, align 4, !dp.md.instr.id !2367
  %6 = ptrtoint i32* %threadCount to i64, !dp.md.instr.id !2368
  %countInt = alloca i32, align 4, !dp.md.instr.id !2369
  %7 = ptrtoint i32* %countInt to i64, !dp.md.instr.id !2370
  %init_score = alloca float, align 4, !dp.md.instr.id !2371
  %8 = ptrtoint float* %init_score to i64, !dp.md.instr.id !2372
  call void @__dp_alloca(i32 32836, i8* getelementptr inbounds ([11 x i8], [11 x i8]* @.str.88, i32 0, i32 0), i64 %8, i64 %8, i64 4, i64 1), !dp.md.instr.id !2373
  %scores = alloca float*, align 8, !dp.md.instr.id !2374
  %9 = ptrtoint float** %scores to i64, !dp.md.instr.id !2375
  %runtime = alloca double, align 8, !dp.md.instr.id !2376
  %10 = ptrtoint double* %runtime to i64, !dp.md.instr.id !2377
  %agg.tmp = alloca %struct.ECLgraph, align 8, !dp.md.instr.id !2378
  %11 = ptrtoint %struct.ECLgraph* %agg.tmp to i64, !dp.md.instr.id !2379
  call void @__dp_alloca(i32 32836, i8* getelementptr inbounds ([8 x i8], [8 x i8]* @.str.91, i32 0, i32 0), i64 %11, i64 %11, i64 0, i64 1), !dp.md.instr.id !2380
  %base_score = alloca float, align 4, !dp.md.instr.id !2381
  %12 = ptrtoint float* %base_score to i64, !dp.md.instr.id !2382
  %incomming_sums = alloca float*, align 8, !dp.md.instr.id !2383
  %13 = ptrtoint float** %incomming_sums to i64, !dp.md.instr.id !2384
  %i56 = alloca i32, align 4, !dp.md.instr.id !2385
  %14 = ptrtoint i32* %i56 to i64, !dp.md.instr.id !2386
  %error = alloca double, align 8, !dp.md.instr.id !2387
  %15 = ptrtoint double* %error to i64, !dp.md.instr.id !2388
  %src = alloca i32, align 4, !dp.md.instr.id !2389
  %16 = ptrtoint i32* %src to i64, !dp.md.instr.id !2390
  %outgoing = alloca float, align 4, !dp.md.instr.id !2391
  %17 = ptrtoint float* %outgoing to i64, !dp.md.instr.id !2392
  %i76 = alloca i32, align 4, !dp.md.instr.id !2393
  %18 = ptrtoint i32* %i76 to i64, !dp.md.instr.id !2394
  %i98 = alloca i32, align 4, !dp.md.instr.id !2395
  %19 = ptrtoint i32* %i98 to i64, !dp.md.instr.id !2396
  %new_score = alloca float, align 4, !dp.md.instr.id !2397
  %20 = ptrtoint float* %new_score to i64, !dp.md.instr.id !2398
  %21 = ptrtoint i32* %retval to i64
  store i32 0, i32* %retval, align 4, !dp.md.instr.id !2399
  %22 = ptrtoint i32* %argc.addr to i64
  store i32 %argc, i32* %argc.addr, align 4, !dp.md.instr.id !2400
  call void @llvm.dbg.declare(metadata i32* %argc.addr, metadata !2401, metadata !DIExpression()), !dbg !2402, !dp.md.instr.id !2403
  %23 = ptrtoint i8*** %argv.addr to i64
  store i8** %argv, i8*** %argv.addr, align 8, !dp.md.instr.id !2404
  call void @llvm.dbg.declare(metadata i8*** %argv.addr, metadata !2405, metadata !DIExpression()), !dbg !2406, !dp.md.instr.id !2407
  call void @__dp_call(i32 32837), !dbg !2408
  %call = call i32 (i8*, ...) @printf(i8* getelementptr inbounds ([24 x i8], [24 x i8]* @.str.16, i64 0, i64 0), i8* getelementptr inbounds ([75 x i8], [75 x i8]* @.str.17, i64 0, i64 0)), !dbg !2408, !dp.md.instr.id !2409
  call void @__dp_call(i32 32838), !dbg !2410
  %call1 = call i32 (i8*, ...) @printf(i8* getelementptr inbounds ([40 x i8], [40 x i8]* @.str.18, i64 0, i64 0)), !dbg !2410, !dp.md.instr.id !2411
  %24 = ptrtoint i32* %argc.addr to i64
  %25 = load i32, i32* %argc.addr, align 4, !dbg !2412, !dp.md.instr.id !2414
  %cmp = icmp ne i32 %25, 2, !dbg !2415, !dp.md.instr.id !2416
  call void @__dp_report_bb(i32 32)
  br i1 %cmp, label %land.lhs.true, label %if.end, !dbg !2417, !dp.md.instr.id !2418

land.lhs.true:                                    ; preds = %entry
  %26 = ptrtoint i32* %argc.addr to i64
  %27 = load i32, i32* %argc.addr, align 4, !dbg !2419, !dp.md.instr.id !2420
  %cmp2 = icmp ne i32 %27, 3, !dbg !2421, !dp.md.instr.id !2422
  call void @__dp_report_bb(i32 26)
  br i1 %cmp2, label %if.then, label %if.end, !dbg !2423, !dp.md.instr.id !2424

if.then:                                          ; preds = %land.lhs.true
  %28 = ptrtoint i8*** %argv.addr to i64
  %29 = load i8**, i8*** %argv.addr, align 8, !dbg !2425, !dp.md.instr.id !2427
  %arrayidx = getelementptr inbounds i8*, i8** %29, i64 0, !dbg !2425, !dp.md.instr.id !2428
  %30 = ptrtoint i8** %arrayidx to i64
  call void @__dp_read(i32 457, i64 %30, i8* getelementptr inbounds ([15 x i8], [15 x i8]* @.str.98, i32 0, i32 0))
  %31 = load i8*, i8** %arrayidx, align 8, !dbg !2425, !dp.md.instr.id !2429
  call void @__dp_call(i32 32840), !dbg !2430
  %call3 = call i32 (i8*, ...) @printf(i8* getelementptr inbounds ([47 x i8], [47 x i8]* @.str.19, i64 0, i64 0), i8* %31), !dbg !2430, !dp.md.instr.id !2431
  call void @__dp_finalize(i32 32840), !dbg !2432
  call void @exit(i32 -1) #13, !dbg !2432, !dp.md.instr.id !2433
  call void @__dp_report_bb(i32 27)
  unreachable, !dbg !2432, !dp.md.instr.id !2434

if.end:                                           ; preds = %land.lhs.true, %entry
  call void @llvm.dbg.declare(metadata %struct.ECLgraph* %g, metadata !2435, metadata !DIExpression()), !dbg !2436, !dp.md.instr.id !2437
  %32 = ptrtoint i8*** %argv.addr to i64
  %33 = load i8**, i8*** %argv.addr, align 8, !dbg !2438, !dp.md.instr.id !2439
  %arrayidx4 = getelementptr inbounds i8*, i8** %33, i64 1, !dbg !2438, !dp.md.instr.id !2440
  %34 = ptrtoint i8** %arrayidx4 to i64
  call void @__dp_read(i32 464, i64 %34, i8* getelementptr inbounds ([15 x i8], [15 x i8]* @.str.98, i32 0, i32 0))
  %35 = load i8*, i8** %arrayidx4, align 8, !dbg !2438, !dp.md.instr.id !2441
  call void @__dp_call(i32 32843), !dbg !2442
  call void @_Z12readECLgraphPKc(%struct.ECLgraph* sret align 8 %g, i8* %35), !dbg !2442, !dp.md.instr.id !2443
  %36 = ptrtoint i8*** %argv.addr to i64
  %37 = load i8**, i8*** %argv.addr, align 8, !dbg !2444, !dp.md.instr.id !2445
  %arrayidx5 = getelementptr inbounds i8*, i8** %37, i64 1, !dbg !2444, !dp.md.instr.id !2446
  %38 = ptrtoint i8** %arrayidx5 to i64
  call void @__dp_read(i32 468, i64 %38, i8* getelementptr inbounds ([15 x i8], [15 x i8]* @.str.98, i32 0, i32 0))
  %39 = load i8*, i8** %arrayidx5, align 8, !dbg !2444, !dp.md.instr.id !2447
  call void @__dp_call(i32 32844), !dbg !2448
  %call6 = call i32 (i8*, ...) @printf(i8* getelementptr inbounds ([11 x i8], [11 x i8]* @.str.20, i64 0, i64 0), i8* %39), !dbg !2448, !dp.md.instr.id !2449
  %nodes = getelementptr inbounds %struct.ECLgraph, %struct.ECLgraph* %g, i32 0, i32 0, !dbg !2450, !dp.md.instr.id !2451
  %40 = ptrtoint i32* %nodes to i64
  call void @__dp_read(i32 471, i64 %40, i8* getelementptr inbounds ([12 x i8], [12 x i8]* @.str.36, i32 0, i32 0))
  %41 = load i32, i32* %nodes, align 8, !dbg !2450, !dp.md.instr.id !2452
  call void @__dp_call(i32 32845), !dbg !2453
  %call7 = call i32 (i8*, ...) @printf(i8* getelementptr inbounds ([11 x i8], [11 x i8]* @.str.21, i64 0, i64 0), i32 %41), !dbg !2453, !dp.md.instr.id !2454
  %edges = getelementptr inbounds %struct.ECLgraph, %struct.ECLgraph* %g, i32 0, i32 1, !dbg !2455, !dp.md.instr.id !2456
  %42 = ptrtoint i32* %edges to i64
  call void @__dp_read(i32 474, i64 %42, i8* getelementptr inbounds ([12 x i8], [12 x i8]* @.str.36, i32 0, i32 0))
  %43 = load i32, i32* %edges, align 4, !dbg !2455, !dp.md.instr.id !2457
  call void @__dp_call(i32 32846), !dbg !2458
  %call8 = call i32 (i8*, ...) @printf(i8* getelementptr inbounds ([11 x i8], [11 x i8]* @.str.22, i64 0, i64 0), i32 %43), !dbg !2458, !dp.md.instr.id !2459
  %edges9 = getelementptr inbounds %struct.ECLgraph, %struct.ECLgraph* %g, i32 0, i32 1, !dbg !2460, !dp.md.instr.id !2461
  %44 = ptrtoint i32* %edges9 to i64
  call void @__dp_read(i32 477, i64 %44, i8* getelementptr inbounds ([12 x i8], [12 x i8]* @.str.36, i32 0, i32 0))
  %45 = load i32, i32* %edges9, align 4, !dbg !2460, !dp.md.instr.id !2462
  %conv = sitofp i32 %45 to double, !dbg !2463, !dp.md.instr.id !2464
  %mul = fmul double 1.000000e+00, %conv, !dbg !2465, !dp.md.instr.id !2466
  %nodes10 = getelementptr inbounds %struct.ECLgraph, %struct.ECLgraph* %g, i32 0, i32 0, !dbg !2467, !dp.md.instr.id !2468
  %46 = ptrtoint i32* %nodes10 to i64
  call void @__dp_read(i32 481, i64 %46, i8* getelementptr inbounds ([12 x i8], [12 x i8]* @.str.36, i32 0, i32 0))
  %47 = load i32, i32* %nodes10, align 8, !dbg !2467, !dp.md.instr.id !2469
  %conv11 = sitofp i32 %47 to double, !dbg !2470, !dp.md.instr.id !2471
  %div = fdiv double %mul, %conv11, !dbg !2472, !dp.md.instr.id !2473
  call void @__dp_call(i32 32847), !dbg !2474
  %call12 = call i32 (i8*, ...) @printf(i8* getelementptr inbounds ([18 x i8], [18 x i8]* @.str.23, i64 0, i64 0), double %div), !dbg !2474, !dp.md.instr.id !2475
  call void @llvm.dbg.declare(metadata i32** %degree, metadata !2476, metadata !DIExpression()), !dbg !2477, !dp.md.instr.id !2478
  %nodes13 = getelementptr inbounds %struct.ECLgraph, %struct.ECLgraph* %g, i32 0, i32 0, !dbg !2479, !dp.md.instr.id !2480
  %48 = ptrtoint i32* %nodes13 to i64
  call void @__dp_read(i32 487, i64 %48, i8* getelementptr inbounds ([12 x i8], [12 x i8]* @.str.36, i32 0, i32 0))
  %49 = load i32, i32* %nodes13, align 8, !dbg !2479, !dp.md.instr.id !2481
  %conv14 = sext i32 %49 to i64, !dbg !2482, !dp.md.instr.id !2483
  %mul15 = mul i64 %conv14, 4, !dbg !2484, !dp.md.instr.id !2485
  %call16 = call noalias i8* @malloc(i64 %mul15) #9, !dbg !2486, !dp.md.instr.id !2487
  %50 = ptrtoint i8* %call16 to i64, !dp.md.instr.id !2488
  call void @__dp_new(i32 32850, i64 %50, i64 %50, i64 %mul15), !dbg !2489, !dp.md.instr.id !2490
  %51 = bitcast i8* %call16 to i32*, !dbg !2489, !dp.md.instr.id !2491
  %52 = ptrtoint i32** %degree to i64
  store i32* %51, i32** %degree, align 8, !dbg !2477, !dp.md.instr.id !2492
  call void @llvm.dbg.declare(metadata i32* %i, metadata !2493, metadata !DIExpression()), !dbg !2495, !dp.md.instr.id !2496
  %53 = ptrtoint i32* %i to i64
  store i32 0, i32* %i, align 4, !dbg !2495, !dp.md.instr.id !2497
  call void @__dp_report_bb(i32 25)
  br label %for.cond, !dbg !2498, !dp.md.instr.id !2499

for.cond:                                         ; preds = %for.inc, %if.end
  call void @__dp_loop_entry(i32 32851, i32 0), !dp.md.instr.id !2500
  %54 = ptrtoint i32* %i to i64
  %55 = load i32, i32* %i, align 4, !dbg !2501, !dp.md.instr.id !2503
  %nodes17 = getelementptr inbounds %struct.ECLgraph, %struct.ECLgraph* %g, i32 0, i32 0, !dbg !2504, !dp.md.instr.id !2505
  %56 = ptrtoint i32* %nodes17 to i64
  call void @__dp_read(i32 501, i64 %56, i8* getelementptr inbounds ([12 x i8], [12 x i8]* @.str.36, i32 0, i32 0))
  %57 = load i32, i32* %nodes17, align 8, !dbg !2504, !dp.md.instr.id !2506
  %cmp18 = icmp slt i32 %55, %57, !dbg !2507, !dp.md.instr.id !2508
  call void @__dp_report_bb(i32 34)
  %58 = load i32, i32* %__dp_bb124, align 4
  call void @__dp_report_bb_pair(i32 %58, i32 58)
  br i1 %cmp18, label %for.body, label %for.end, !dbg !2509, !dp.md.instr.id !2510

for.body:                                         ; preds = %for.cond
  call void @__dp_loop_incr(i32 5)
  %nindex = getelementptr inbounds %struct.ECLgraph, %struct.ECLgraph* %g, i32 0, i32 2, !dbg !2511, !dp.md.instr.id !2513
  %59 = ptrtoint i32** %nindex to i64
  call void @__dp_read(i32 505, i64 %59, i8* getelementptr inbounds ([12 x i8], [12 x i8]* @.str.36, i32 0, i32 0))
  %60 = load i32*, i32** %nindex, align 8, !dbg !2511, !dp.md.instr.id !2514
  %61 = ptrtoint i32* %i to i64
  %62 = load i32, i32* %i, align 4, !dbg !2515, !dp.md.instr.id !2516
  %add = add nsw i32 %62, 1, !dbg !2517, !dp.md.instr.id !2518
  %idxprom = sext i32 %add to i64, !dbg !2519, !dp.md.instr.id !2520
  %arrayidx19 = getelementptr inbounds i32, i32* %60, i64 %idxprom, !dbg !2519, !dp.md.instr.id !2521
  %63 = ptrtoint i32* %arrayidx19 to i64
  call void @__dp_read(i32 510, i64 %63, i8* getelementptr inbounds ([22 x i8], [22 x i8]* @.str.99, i32 0, i32 0))
  %64 = load i32, i32* %arrayidx19, align 4, !dbg !2519, !dp.md.instr.id !2522
  %nindex20 = getelementptr inbounds %struct.ECLgraph, %struct.ECLgraph* %g, i32 0, i32 2, !dbg !2523, !dp.md.instr.id !2524
  %65 = ptrtoint i32** %nindex20 to i64
  call void @__dp_read(i32 512, i64 %65, i8* getelementptr inbounds ([12 x i8], [12 x i8]* @.str.36, i32 0, i32 0))
  %66 = load i32*, i32** %nindex20, align 8, !dbg !2523, !dp.md.instr.id !2525
  %67 = ptrtoint i32* %i to i64
  %68 = load i32, i32* %i, align 4, !dbg !2526, !dp.md.instr.id !2527
  %idxprom21 = sext i32 %68 to i64, !dbg !2528, !dp.md.instr.id !2529
  %arrayidx22 = getelementptr inbounds i32, i32* %66, i64 %idxprom21, !dbg !2528, !dp.md.instr.id !2530
  %69 = ptrtoint i32* %arrayidx22 to i64
  call void @__dp_read(i32 516, i64 %69, i8* getelementptr inbounds ([22 x i8], [22 x i8]* @.str.99, i32 0, i32 0))
  %70 = load i32, i32* %arrayidx22, align 4, !dbg !2528, !dp.md.instr.id !2531
  %sub = sub nsw i32 %64, %70, !dbg !2532, !dp.md.instr.id !2533
  %71 = ptrtoint i32** %degree to i64
  %72 = load i32*, i32** %degree, align 8, !dbg !2534, !dp.md.instr.id !2535
  %73 = ptrtoint i32* %i to i64
  %74 = load i32, i32* %i, align 4, !dbg !2536, !dp.md.instr.id !2537
  %idxprom23 = sext i32 %74 to i64, !dbg !2534, !dp.md.instr.id !2538
  %arrayidx24 = getelementptr inbounds i32, i32* %72, i64 %idxprom23, !dbg !2534, !dp.md.instr.id !2539
  %75 = ptrtoint i32* %arrayidx24 to i64
  call void @__dp_write(i32 522, i64 %75, i8* getelementptr inbounds ([17 x i8], [17 x i8]* @.str.100, i32 0, i32 0))
  store i32 %sub, i32* %arrayidx24, align 4, !dbg !2540, !dp.md.instr.id !2541
  call void @__dp_report_bb(i32 36)
  %76 = load i32, i32* %__dp_bb124, align 4
  call void @__dp_report_bb_pair(i32 %76, i32 60)
  br label %for.inc, !dbg !2542, !dp.md.instr.id !2543

for.inc:                                          ; preds = %for.body
  %77 = ptrtoint i32* %i to i64
  %78 = load i32, i32* %i, align 4, !dbg !2544, !dp.md.instr.id !2545
  %inc = add nsw i32 %78, 1, !dbg !2544, !dp.md.instr.id !2546
  %79 = ptrtoint i32* %i to i64
  store i32 %inc, i32* %i, align 4, !dbg !2544, !dp.md.instr.id !2547
  call void @__dp_report_bb(i32 35)
  %80 = load i32, i32* %__dp_bb124, align 4
  call void @__dp_report_bb_pair(i32 %80, i32 59)
  store i32 1, i32* %__dp_bb124, align 4
  br label %for.cond, !dbg !2548, !llvm.loop !2549, !dp.md.instr.id !2551

for.end:                                          ; preds = %for.cond
  call void @__dp_loop_exit(i32 32855, i32 0), !dp.md.instr.id !2552
  call void @llvm.dbg.declare(metadata i32* %threadCount, metadata !2553, metadata !DIExpression()), !dbg !2554, !dp.md.instr.id !2555
  call void @__dp_call(i32 32855), !dbg !2556
  %call25 = call i32 @_ZNSt6thread20hardware_concurrencyEv() #9, !dbg !2556, !dp.md.instr.id !2557
  %81 = ptrtoint i32* %threadCount to i64
  store i32 %call25, i32* %threadCount, align 4, !dbg !2554, !dp.md.instr.id !2558
  %82 = ptrtoint i32* %argc.addr to i64
  %83 = load i32, i32* %argc.addr, align 4, !dbg !2559, !dp.md.instr.id !2561
  %cmp26 = icmp eq i32 %83, 3, !dbg !2562, !dp.md.instr.id !2563
  call void @__dp_report_bb(i32 33)
  br i1 %cmp26, label %if.then27, label %if.end32, !dbg !2564, !dp.md.instr.id !2565

if.then27:                                        ; preds = %for.end
  call void @llvm.dbg.declare(metadata i32* %countInt, metadata !2566, metadata !DIExpression()), !dbg !2568, !dp.md.instr.id !2569
  %84 = ptrtoint i8*** %argv.addr to i64
  %85 = load i8**, i8*** %argv.addr, align 8, !dbg !2570, !dp.md.instr.id !2571
  %arrayidx28 = getelementptr inbounds i8*, i8** %85, i64 2, !dbg !2570, !dp.md.instr.id !2572
  %86 = ptrtoint i8** %arrayidx28 to i64
  call void @__dp_read(i32 538, i64 %86, i8* getelementptr inbounds ([15 x i8], [15 x i8]* @.str.98, i32 0, i32 0))
  %87 = load i8*, i8** %arrayidx28, align 8, !dbg !2570, !dp.md.instr.id !2573
  call void @__dp_call(i32 32857), !dbg !2574
  %call29 = call i32 @atoi(i8* %87) #14, !dbg !2574, !dp.md.instr.id !2575
  %88 = ptrtoint i32* %countInt to i64
  store i32 %call29, i32* %countInt, align 4, !dbg !2568, !dp.md.instr.id !2576
  %89 = ptrtoint i32* %countInt to i64
  %90 = load i32, i32* %countInt, align 4, !dbg !2568, !dp.md.instr.id !2577
  %tobool = icmp ne i32 %90, 0, !dbg !2568, !dp.md.instr.id !2578
  call void @__dp_report_bb(i32 40)
  br i1 %tobool, label %if.then30, label %if.end31, !dbg !2579, !dp.md.instr.id !2580

if.then30:                                        ; preds = %if.then27
  %91 = ptrtoint i32* %countInt to i64
  %92 = load i32, i32* %countInt, align 4, !dbg !2581, !dp.md.instr.id !2582
  %93 = ptrtoint i32* %threadCount to i64
  store i32 %92, i32* %threadCount, align 4, !dbg !2583, !dp.md.instr.id !2584
  call void @__dp_report_bb(i32 42)
  store i32 1, i32* %__dp_bb126, align 4
  br label %if.end31, !dbg !2585, !dp.md.instr.id !2586

if.end31:                                         ; preds = %if.then30, %if.then27
  br label %if.end32, !dbg !2568, !dp.md.instr.id !2587

if.end32:                                         ; preds = %if.end31, %for.end
  %94 = ptrtoint i32* %threadCount to i64
  %95 = load i32, i32* %threadCount, align 4, !dbg !2588, !dp.md.instr.id !2589
  call void @__dp_call(i32 32859), !dbg !2590
  %call33 = call i32 (i8*, ...) @printf(i8* getelementptr inbounds ([14 x i8], [14 x i8]* @.str.24, i64 0, i64 0), i32 %95), !dbg !2590, !dp.md.instr.id !2591
  call void @llvm.dbg.declare(metadata float* %init_score, metadata !2592, metadata !DIExpression()), !dbg !2593, !dp.md.instr.id !2594
  %nodes34 = getelementptr inbounds %struct.ECLgraph, %struct.ECLgraph* %g, i32 0, i32 0, !dbg !2595, !dp.md.instr.id !2596
  %96 = ptrtoint i32* %nodes34 to i64
  call void @__dp_read(i32 552, i64 %96, i8* getelementptr inbounds ([12 x i8], [12 x i8]* @.str.36, i32 0, i32 0))
  %97 = load i32, i32* %nodes34, align 8, !dbg !2595, !dp.md.instr.id !2597
  %conv35 = sitofp i32 %97 to float, !dbg !2598, !dp.md.instr.id !2599
  %div36 = fdiv float 1.000000e+00, %conv35, !dbg !2600, !dp.md.instr.id !2601
  %98 = ptrtoint float* %init_score to i64
  call void @__dp_write(i32 555, i64 %98, i8* getelementptr inbounds ([11 x i8], [11 x i8]* @.str.88, i32 0, i32 0))
  store float %div36, float* %init_score, align 4, !dbg !2593, !dp.md.instr.id !2602
  call void @llvm.dbg.declare(metadata float** %scores, metadata !2603, metadata !DIExpression()), !dbg !2604, !dp.md.instr.id !2605
  %nodes37 = getelementptr inbounds %struct.ECLgraph, %struct.ECLgraph* %g, i32 0, i32 0, !dbg !2606, !dp.md.instr.id !2607
  %99 = ptrtoint i32* %nodes37 to i64
  call void @__dp_read(i32 558, i64 %99, i8* getelementptr inbounds ([12 x i8], [12 x i8]* @.str.36, i32 0, i32 0))
  %100 = load i32, i32* %nodes37, align 8, !dbg !2606, !dp.md.instr.id !2608
  %conv38 = sext i32 %100 to i64, !dbg !2609, !dp.md.instr.id !2610
  %mul39 = mul i64 %conv38, 4, !dbg !2611, !dp.md.instr.id !2612
  %call40 = call noalias i8* @malloc(i64 %mul39) #9, !dbg !2613, !dp.md.instr.id !2614
  %101 = ptrtoint i8* %call40 to i64, !dp.md.instr.id !2615
  call void @__dp_new(i32 32863, i64 %101, i64 %101, i64 %mul39), !dbg !2616, !dp.md.instr.id !2617
  %102 = bitcast i8* %call40 to float*, !dbg !2616, !dp.md.instr.id !2618
  %103 = ptrtoint float** %scores to i64
  store float* %102, float** %scores, align 8, !dbg !2604, !dp.md.instr.id !2619
  %104 = ptrtoint float** %scores to i64
  %105 = load float*, float** %scores, align 8, !dbg !2620, !dp.md.instr.id !2621
  %106 = ptrtoint float** %scores to i64
  %107 = load float*, float** %scores, align 8, !dbg !2622, !dp.md.instr.id !2623
  %nodes41 = getelementptr inbounds %struct.ECLgraph, %struct.ECLgraph* %g, i32 0, i32 0, !dbg !2624, !dp.md.instr.id !2625
  %108 = ptrtoint i32* %nodes41 to i64
  call void @__dp_read(i32 569, i64 %108, i8* getelementptr inbounds ([12 x i8], [12 x i8]* @.str.36, i32 0, i32 0))
  %109 = load i32, i32* %nodes41, align 8, !dbg !2624, !dp.md.instr.id !2626
  %idx.ext = sext i32 %109 to i64, !dbg !2627, !dp.md.instr.id !2628
  %add.ptr = getelementptr inbounds float, float* %107, i64 %idx.ext, !dbg !2627, !dp.md.instr.id !2629
  call void @__dp_call(i32 32864), !dbg !2630
  call void @_ZSt4fillIPffEvT_S1_RKT0_(float* %105, float* %add.ptr, float* nonnull align 4 dereferenceable(4) %init_score), !dbg !2630, !dp.md.instr.id !2631
  call void @llvm.dbg.declare(metadata double* %runtime, metadata !2632, metadata !DIExpression()), !dbg !2633, !dp.md.instr.id !2634
  %110 = bitcast %struct.ECLgraph* %agg.tmp to i8*, !dbg !2635, !dp.md.instr.id !2636
  %111 = bitcast %struct.ECLgraph* %g to i8*, !dbg !2635, !dp.md.instr.id !2637
  call void @__dp_call(i32 32866), !dbg !2635
  call void @llvm.memcpy.p0i8.p0i8.i64(i8* align 8 %110, i8* align 8 %111, i64 32, i1 false), !dbg !2635, !dp.md.instr.id !2638
  %112 = ptrtoint float** %scores to i64
  %113 = load float*, float** %scores, align 8, !dbg !2639, !dp.md.instr.id !2640
  %114 = ptrtoint i32** %degree to i64
  %115 = load i32*, i32** %degree, align 8, !dbg !2641, !dp.md.instr.id !2642
  %116 = ptrtoint i32* %threadCount to i64
  %117 = load i32, i32* %threadCount, align 4, !dbg !2643, !dp.md.instr.id !2644
  call void @__dp_call(i32 32866), !dbg !2645
  %call42 = call double @_ZL6PR_CPU8ECLgraphPfPii(%struct.ECLgraph* byval(%struct.ECLgraph) align 8 %agg.tmp, float* %113, i32* %115, i32 %117), !dbg !2645, !dp.md.instr.id !2646
  %118 = ptrtoint double* %runtime to i64
  store double %call42, double* %runtime, align 8, !dbg !2633, !dp.md.instr.id !2647
  %119 = ptrtoint double* %runtime to i64
  %120 = load double, double* %runtime, align 8, !dbg !2648, !dp.md.instr.id !2649
  call void @__dp_call(i32 32868), !dbg !2650
  %call43 = call i32 (i8*, ...) @printf(i8* getelementptr inbounds ([21 x i8], [21 x i8]* @.str.25, i64 0, i64 0), double %120), !dbg !2650, !dp.md.instr.id !2651
  %edges44 = getelementptr inbounds %struct.ECLgraph, %struct.ECLgraph* %g, i32 0, i32 1, !dbg !2652, !dp.md.instr.id !2653
  %121 = ptrtoint i32* %edges44 to i64
  call void @__dp_read(i32 585, i64 %121, i8* getelementptr inbounds ([12 x i8], [12 x i8]* @.str.36, i32 0, i32 0))
  %122 = load i32, i32* %edges44, align 4, !dbg !2652, !dp.md.instr.id !2654
  %conv45 = sitofp i32 %122 to double, !dbg !2655, !dp.md.instr.id !2656
  %mul46 = fmul double 1.000000e-09, %conv45, !dbg !2657, !dp.md.instr.id !2658
  %123 = ptrtoint double* %runtime to i64
  %124 = load double, double* %runtime, align 8, !dbg !2659, !dp.md.instr.id !2660
  %div47 = fdiv double %mul46, %124, !dbg !2661, !dp.md.instr.id !2662
  call void @__dp_call(i32 32869), !dbg !2663
  %call48 = call i32 (i8*, ...) @printf(i8* getelementptr inbounds ([30 x i8], [30 x i8]* @.str.26, i64 0, i64 0), double %div47), !dbg !2663, !dp.md.instr.id !2664
  call void @llvm.dbg.declare(metadata float* %base_score, metadata !2665, metadata !DIExpression()), !dbg !2666, !dp.md.instr.id !2667
  %nodes49 = getelementptr inbounds %struct.ECLgraph, %struct.ECLgraph* %g, i32 0, i32 0, !dbg !2668, !dp.md.instr.id !2669
  %125 = ptrtoint i32* %nodes49 to i64
  call void @__dp_read(i32 593, i64 %125, i8* getelementptr inbounds ([12 x i8], [12 x i8]* @.str.36, i32 0, i32 0))
  %126 = load i32, i32* %nodes49, align 8, !dbg !2668, !dp.md.instr.id !2670
  %conv50 = sitofp i32 %126 to float, !dbg !2671, !dp.md.instr.id !2672
  %div51 = fdiv float 0x3FC3333300000000, %conv50, !dbg !2673, !dp.md.instr.id !2674
  %127 = ptrtoint float* %base_score to i64
  store float %div51, float* %base_score, align 4, !dbg !2666, !dp.md.instr.id !2675
  call void @llvm.dbg.declare(metadata float** %incomming_sums, metadata !2676, metadata !DIExpression()), !dbg !2677, !dp.md.instr.id !2678
  %nodes52 = getelementptr inbounds %struct.ECLgraph, %struct.ECLgraph* %g, i32 0, i32 0, !dbg !2679, !dp.md.instr.id !2680
  %128 = ptrtoint i32* %nodes52 to i64
  call void @__dp_read(i32 599, i64 %128, i8* getelementptr inbounds ([12 x i8], [12 x i8]* @.str.36, i32 0, i32 0))
  %129 = load i32, i32* %nodes52, align 8, !dbg !2679, !dp.md.instr.id !2681
  %conv53 = sext i32 %129 to i64, !dbg !2682, !dp.md.instr.id !2683
  %mul54 = mul i64 %conv53, 4, !dbg !2684, !dp.md.instr.id !2685
  %call55 = call noalias i8* @malloc(i64 %mul54) #9, !dbg !2686, !dp.md.instr.id !2687
  %130 = ptrtoint i8* %call55 to i64, !dp.md.instr.id !2688
  call void @__dp_new(i32 32873, i64 %130, i64 %130, i64 %mul54), !dbg !2689, !dp.md.instr.id !2690
  %131 = bitcast i8* %call55 to float*, !dbg !2689, !dp.md.instr.id !2691
  %132 = ptrtoint float** %incomming_sums to i64
  store float* %131, float** %incomming_sums, align 8, !dbg !2677, !dp.md.instr.id !2692
  call void @llvm.dbg.declare(metadata i32* %i56, metadata !2693, metadata !DIExpression()), !dbg !2695, !dp.md.instr.id !2696
  %133 = ptrtoint i32* %i56 to i64
  store i32 0, i32* %i56, align 4, !dbg !2695, !dp.md.instr.id !2697
  call void @__dp_report_bb(i32 41)
  %134 = load i32, i32* %__dp_bb126, align 4
  call void @__dp_report_bb_pair(i32 %134, i32 64)
  br label %for.cond57, !dbg !2698, !dp.md.instr.id !2699

for.cond57:                                       ; preds = %for.inc63, %if.end32
  call void @__dp_loop_entry(i32 32874, i32 1), !dp.md.instr.id !2700
  %135 = ptrtoint i32* %i56 to i64
  %136 = load i32, i32* %i56, align 4, !dbg !2701, !dp.md.instr.id !2703
  %nodes58 = getelementptr inbounds %struct.ECLgraph, %struct.ECLgraph* %g, i32 0, i32 0, !dbg !2704, !dp.md.instr.id !2705
  %137 = ptrtoint i32* %nodes58 to i64
  call void @__dp_read(i32 613, i64 %137, i8* getelementptr inbounds ([12 x i8], [12 x i8]* @.str.36, i32 0, i32 0))
  %138 = load i32, i32* %nodes58, align 8, !dbg !2704, !dp.md.instr.id !2706
  %cmp59 = icmp slt i32 %136, %138, !dbg !2707, !dp.md.instr.id !2708
  call void @__dp_report_bb(i32 37)
  %139 = load i32, i32* %__dp_bb125, align 4
  call void @__dp_report_bb_pair(i32 %139, i32 61)
  br i1 %cmp59, label %for.body60, label %for.end65, !dbg !2709, !dp.md.instr.id !2710

for.body60:                                       ; preds = %for.cond57
  call void @__dp_loop_incr(i32 4)
  %140 = ptrtoint float** %incomming_sums to i64
  %141 = load float*, float** %incomming_sums, align 8, !dbg !2711, !dp.md.instr.id !2712
  %142 = ptrtoint i32* %i56 to i64
  %143 = load i32, i32* %i56, align 4, !dbg !2713, !dp.md.instr.id !2714
  %idxprom61 = sext i32 %143 to i64, !dbg !2711, !dp.md.instr.id !2715
  %arrayidx62 = getelementptr inbounds float, float* %141, i64 %idxprom61, !dbg !2711, !dp.md.instr.id !2716
  %144 = ptrtoint float* %arrayidx62 to i64
  call void @__dp_write(i32 620, i64 %144, i8* getelementptr inbounds ([25 x i8], [25 x i8]* @.str.101, i32 0, i32 0))
  store float 0.000000e+00, float* %arrayidx62, align 4, !dbg !2717, !dp.md.instr.id !2718
  call void @__dp_report_bb(i32 39)
  %145 = load i32, i32* %__dp_bb125, align 4
  call void @__dp_report_bb_pair(i32 %145, i32 63)
  br label %for.inc63, !dbg !2711, !dp.md.instr.id !2719

for.inc63:                                        ; preds = %for.body60
  %146 = ptrtoint i32* %i56 to i64
  %147 = load i32, i32* %i56, align 4, !dbg !2720, !dp.md.instr.id !2721
  %inc64 = add nsw i32 %147, 1, !dbg !2720, !dp.md.instr.id !2722
  %148 = ptrtoint i32* %i56 to i64
  store i32 %inc64, i32* %i56, align 4, !dbg !2720, !dp.md.instr.id !2723
  call void @__dp_report_bb(i32 38)
  %149 = load i32, i32* %__dp_bb125, align 4
  call void @__dp_report_bb_pair(i32 %149, i32 62)
  store i32 1, i32* %__dp_bb125, align 4
  br label %for.cond57, !dbg !2724, !llvm.loop !2725, !dp.md.instr.id !2727

for.end65:                                        ; preds = %for.cond57
  call void @__dp_loop_exit(i32 32875, i32 1), !dp.md.instr.id !2728
  call void @llvm.dbg.declare(metadata double* %error, metadata !2729, metadata !DIExpression()), !dbg !2730, !dp.md.instr.id !2731
  %150 = ptrtoint double* %error to i64
  store double 0.000000e+00, double* %error, align 8, !dbg !2730, !dp.md.instr.id !2732
  call void @llvm.dbg.declare(metadata i32* %src, metadata !2733, metadata !DIExpression()), !dbg !2735, !dp.md.instr.id !2736
  %151 = ptrtoint i32* %src to i64
  store i32 0, i32* %src, align 4, !dbg !2735, !dp.md.instr.id !2737
  call void @__dp_report_bb(i32 43)
  br label %for.cond66, !dbg !2738, !dp.md.instr.id !2739

for.cond66:                                       ; preds = %for.inc95, %for.end65
  call void @__dp_loop_entry(i32 32877, i32 2), !dp.md.instr.id !2740
  %152 = ptrtoint i32* %src to i64
  %153 = load i32, i32* %src, align 4, !dbg !2741, !dp.md.instr.id !2743
  %nodes67 = getelementptr inbounds %struct.ECLgraph, %struct.ECLgraph* %g, i32 0, i32 0, !dbg !2744, !dp.md.instr.id !2745
  %154 = ptrtoint i32* %nodes67 to i64
  call void @__dp_read(i32 635, i64 %154, i8* getelementptr inbounds ([12 x i8], [12 x i8]* @.str.36, i32 0, i32 0))
  %155 = load i32, i32* %nodes67, align 8, !dbg !2744, !dp.md.instr.id !2746
  %cmp68 = icmp slt i32 %153, %155, !dbg !2747, !dp.md.instr.id !2748
  call void @__dp_report_bb(i32 45)
  %156 = load i32, i32* %__dp_bb127, align 4
  call void @__dp_report_bb_pair(i32 %156, i32 65)
  br i1 %cmp68, label %for.body69, label %for.end97, !dbg !2749, !dp.md.instr.id !2750

for.body69:                                       ; preds = %for.cond66
  call void @__dp_loop_incr(i32 2)
  call void @llvm.dbg.declare(metadata float* %outgoing, metadata !2751, metadata !DIExpression()), !dbg !2753, !dp.md.instr.id !2754
  %157 = ptrtoint float** %scores to i64
  %158 = load float*, float** %scores, align 8, !dbg !2755, !dp.md.instr.id !2756
  %159 = ptrtoint i32* %src to i64
  %160 = load i32, i32* %src, align 4, !dbg !2757, !dp.md.instr.id !2758
  %idxprom70 = sext i32 %160 to i64, !dbg !2755, !dp.md.instr.id !2759
  %arrayidx71 = getelementptr inbounds float, float* %158, i64 %idxprom70, !dbg !2755, !dp.md.instr.id !2760
  %161 = ptrtoint float* %arrayidx71 to i64
  call void @__dp_read(i32 643, i64 %161, i8* getelementptr inbounds ([17 x i8], [17 x i8]* @.str.102, i32 0, i32 0))
  %162 = load float, float* %arrayidx71, align 4, !dbg !2755, !dp.md.instr.id !2761
  %163 = ptrtoint i32** %degree to i64
  %164 = load i32*, i32** %degree, align 8, !dbg !2762, !dp.md.instr.id !2763
  %165 = ptrtoint i32* %src to i64
  %166 = load i32, i32* %src, align 4, !dbg !2764, !dp.md.instr.id !2765
  %idxprom72 = sext i32 %166 to i64, !dbg !2762, !dp.md.instr.id !2766
  %arrayidx73 = getelementptr inbounds i32, i32* %164, i64 %idxprom72, !dbg !2762, !dp.md.instr.id !2767
  %167 = ptrtoint i32* %arrayidx73 to i64
  call void @__dp_read(i32 648, i64 %167, i8* getelementptr inbounds ([17 x i8], [17 x i8]* @.str.100, i32 0, i32 0))
  %168 = load i32, i32* %arrayidx73, align 4, !dbg !2762, !dp.md.instr.id !2768
  %conv74 = sitofp i32 %168 to float, !dbg !2762, !dp.md.instr.id !2769
  %div75 = fdiv float %162, %conv74, !dbg !2770, !dp.md.instr.id !2771
  %169 = ptrtoint float* %outgoing to i64
  store float %div75, float* %outgoing, align 4, !dbg !2753, !dp.md.instr.id !2772
  call void @llvm.dbg.declare(metadata i32* %i76, metadata !2773, metadata !DIExpression()), !dbg !2775, !dp.md.instr.id !2776
  %nindex77 = getelementptr inbounds %struct.ECLgraph, %struct.ECLgraph* %g, i32 0, i32 2, !dbg !2777, !dp.md.instr.id !2778
  %170 = ptrtoint i32** %nindex77 to i64
  call void @__dp_read(i32 654, i64 %170, i8* getelementptr inbounds ([12 x i8], [12 x i8]* @.str.36, i32 0, i32 0))
  %171 = load i32*, i32** %nindex77, align 8, !dbg !2777, !dp.md.instr.id !2779
  %172 = ptrtoint i32* %src to i64
  %173 = load i32, i32* %src, align 4, !dbg !2780, !dp.md.instr.id !2781
  %idxprom78 = sext i32 %173 to i64, !dbg !2782, !dp.md.instr.id !2783
  %arrayidx79 = getelementptr inbounds i32, i32* %171, i64 %idxprom78, !dbg !2782, !dp.md.instr.id !2784
  %174 = ptrtoint i32* %arrayidx79 to i64
  call void @__dp_read(i32 658, i64 %174, i8* getelementptr inbounds ([22 x i8], [22 x i8]* @.str.99, i32 0, i32 0))
  %175 = load i32, i32* %arrayidx79, align 4, !dbg !2782, !dp.md.instr.id !2785
  %176 = ptrtoint i32* %i76 to i64
  store i32 %175, i32* %i76, align 4, !dbg !2775, !dp.md.instr.id !2786
  call void @__dp_report_bb(i32 47)
  %177 = load i32, i32* %__dp_bb127, align 4
  call void @__dp_report_bb_pair(i32 %177, i32 67)
  %178 = load i32, i32* %__dp_bb128, align 4
  call void @__dp_report_bb_pair(i32 %178, i32 69)
  store i32 1, i32* %__dp_bb128, align 4
  %179 = load i32, i32* %__dp_bb129, align 4
  call void @__dp_report_bb_pair(i32 %179, i32 70)
  %180 = load i32, i32* %__dp_bb131, align 4
  call void @__dp_report_bb_pair(i32 %180, i32 74)
  br label %for.cond80, !dbg !2787, !dp.md.instr.id !2788

for.cond80:                                       ; preds = %for.inc92, %for.body69
  call void @__dp_loop_entry(i32 32879, i32 3), !dp.md.instr.id !2789
  %181 = ptrtoint i32* %i76 to i64
  %182 = load i32, i32* %i76, align 4, !dbg !2790, !dp.md.instr.id !2792
  %nindex81 = getelementptr inbounds %struct.ECLgraph, %struct.ECLgraph* %g, i32 0, i32 2, !dbg !2793, !dp.md.instr.id !2794
  %183 = ptrtoint i32** %nindex81 to i64
  call void @__dp_read(i32 664, i64 %183, i8* getelementptr inbounds ([12 x i8], [12 x i8]* @.str.36, i32 0, i32 0))
  %184 = load i32*, i32** %nindex81, align 8, !dbg !2793, !dp.md.instr.id !2795
  %185 = ptrtoint i32* %src to i64
  %186 = load i32, i32* %src, align 4, !dbg !2796, !dp.md.instr.id !2797
  %add82 = add nsw i32 %186, 1, !dbg !2798, !dp.md.instr.id !2799
  %idxprom83 = sext i32 %add82 to i64, !dbg !2800, !dp.md.instr.id !2801
  %arrayidx84 = getelementptr inbounds i32, i32* %184, i64 %idxprom83, !dbg !2800, !dp.md.instr.id !2802
  %187 = ptrtoint i32* %arrayidx84 to i64
  call void @__dp_read(i32 669, i64 %187, i8* getelementptr inbounds ([22 x i8], [22 x i8]* @.str.99, i32 0, i32 0))
  %188 = load i32, i32* %arrayidx84, align 4, !dbg !2800, !dp.md.instr.id !2803
  %cmp85 = icmp slt i32 %182, %188, !dbg !2804, !dp.md.instr.id !2805
  call void @__dp_report_bb(i32 48)
  %189 = load i32, i32* %__dp_bb127, align 4
  call void @__dp_report_bb_pair(i32 %189, i32 68)
  store i32 1, i32* %__dp_bb129, align 4
  %190 = load i32, i32* %__dp_bb130, align 4
  call void @__dp_report_bb_pair(i32 %190, i32 71)
  br i1 %cmp85, label %for.body86, label %for.end94, !dbg !2806, !dp.md.instr.id !2807

for.body86:                                       ; preds = %for.cond80
  call void @__dp_loop_incr(i32 3)
  %191 = ptrtoint float* %outgoing to i64
  %192 = load float, float* %outgoing, align 4, !dbg !2808, !dp.md.instr.id !2810
  %193 = ptrtoint float** %incomming_sums to i64
  %194 = load float*, float** %incomming_sums, align 8, !dbg !2811, !dp.md.instr.id !2812
  %nlist = getelementptr inbounds %struct.ECLgraph, %struct.ECLgraph* %g, i32 0, i32 3, !dbg !2813, !dp.md.instr.id !2814
  %195 = ptrtoint i32** %nlist to i64
  call void @__dp_read(i32 675, i64 %195, i8* getelementptr inbounds ([12 x i8], [12 x i8]* @.str.36, i32 0, i32 0))
  %196 = load i32*, i32** %nlist, align 8, !dbg !2813, !dp.md.instr.id !2815
  %197 = ptrtoint i32* %i76 to i64
  %198 = load i32, i32* %i76, align 4, !dbg !2816, !dp.md.instr.id !2817
  %idxprom87 = sext i32 %198 to i64, !dbg !2818, !dp.md.instr.id !2819
  %arrayidx88 = getelementptr inbounds i32, i32* %196, i64 %idxprom87, !dbg !2818, !dp.md.instr.id !2820
  %199 = ptrtoint i32* %arrayidx88 to i64
  call void @__dp_read(i32 679, i64 %199, i8* getelementptr inbounds ([22 x i8], [22 x i8]* @.str.99, i32 0, i32 0))
  %200 = load i32, i32* %arrayidx88, align 4, !dbg !2818, !dp.md.instr.id !2821
  %idxprom89 = sext i32 %200 to i64, !dbg !2811, !dp.md.instr.id !2822
  %arrayidx90 = getelementptr inbounds float, float* %194, i64 %idxprom89, !dbg !2811, !dp.md.instr.id !2823
  %201 = ptrtoint float* %arrayidx90 to i64
  call void @__dp_read(i32 682, i64 %201, i8* getelementptr inbounds ([25 x i8], [25 x i8]* @.str.101, i32 0, i32 0))
  %202 = load float, float* %arrayidx90, align 4, !dbg !2824, !dp.md.instr.id !2825
  %add91 = fadd float %202, %192, !dbg !2824, !dp.md.instr.id !2826
  %203 = ptrtoint float* %arrayidx90 to i64
  call void @__dp_write(i32 684, i64 %203, i8* getelementptr inbounds ([25 x i8], [25 x i8]* @.str.101, i32 0, i32 0))
  store float %add91, float* %arrayidx90, align 4, !dbg !2824, !dp.md.instr.id !2827
  call void @__dp_report_bb(i32 50)
  %204 = load i32, i32* %__dp_bb130, align 4
  call void @__dp_report_bb_pair(i32 %204, i32 73)
  store i32 1, i32* %__dp_bb131, align 4
  br label %for.inc92, !dbg !2828, !dp.md.instr.id !2829

for.inc92:                                        ; preds = %for.body86
  %205 = ptrtoint i32* %i76 to i64
  %206 = load i32, i32* %i76, align 4, !dbg !2830, !dp.md.instr.id !2831
  %inc93 = add nsw i32 %206, 1, !dbg !2830, !dp.md.instr.id !2832
  %207 = ptrtoint i32* %i76 to i64
  store i32 %inc93, i32* %i76, align 4, !dbg !2830, !dp.md.instr.id !2833
  call void @__dp_report_bb(i32 49)
  %208 = load i32, i32* %__dp_bb130, align 4
  call void @__dp_report_bb_pair(i32 %208, i32 72)
  store i32 1, i32* %__dp_bb130, align 4
  br label %for.cond80, !dbg !2834, !llvm.loop !2835, !dp.md.instr.id !2837

for.end94:                                        ; preds = %for.cond80
  call void @__dp_loop_exit(i32 32882, i32 3), !dp.md.instr.id !2838
  br label %for.inc95, !dbg !2839, !dp.md.instr.id !2840

for.inc95:                                        ; preds = %for.end94
  %209 = ptrtoint i32* %src to i64
  %210 = load i32, i32* %src, align 4, !dbg !2841, !dp.md.instr.id !2842
  %inc96 = add nsw i32 %210, 1, !dbg !2841, !dp.md.instr.id !2843
  %211 = ptrtoint i32* %src to i64
  store i32 %inc96, i32* %src, align 4, !dbg !2841, !dp.md.instr.id !2844
  call void @__dp_report_bb(i32 46)
  %212 = load i32, i32* %__dp_bb127, align 4
  call void @__dp_report_bb_pair(i32 %212, i32 66)
  store i32 1, i32* %__dp_bb127, align 4
  br label %for.cond66, !dbg !2845, !llvm.loop !2846, !dp.md.instr.id !2848

for.end97:                                        ; preds = %for.cond66
  call void @__dp_loop_exit(i32 32884, i32 2), !dp.md.instr.id !2849
  call void @llvm.dbg.declare(metadata i32* %i98, metadata !2850, metadata !DIExpression()), !dbg !2852, !dp.md.instr.id !2853
  %213 = ptrtoint i32* %i98 to i64
  store i32 0, i32* %i98, align 4, !dbg !2852, !dp.md.instr.id !2854
  call void @__dp_report_bb(i32 44)
  br label %for.cond99, !dbg !2855, !dp.md.instr.id !2856

for.cond99:                                       ; preds = %for.inc115, %for.end97
  call void @__dp_loop_entry(i32 32884, i32 4), !dp.md.instr.id !2857
  %214 = ptrtoint i32* %i98 to i64
  %215 = load i32, i32* %i98, align 4, !dbg !2858, !dp.md.instr.id !2860
  %nodes100 = getelementptr inbounds %struct.ECLgraph, %struct.ECLgraph* %g, i32 0, i32 0, !dbg !2861, !dp.md.instr.id !2862
  %216 = ptrtoint i32* %nodes100 to i64
  call void @__dp_read(i32 703, i64 %216, i8* getelementptr inbounds ([12 x i8], [12 x i8]* @.str.36, i32 0, i32 0))
  %217 = load i32, i32* %nodes100, align 8, !dbg !2861, !dp.md.instr.id !2863
  %cmp101 = icmp slt i32 %215, %217, !dbg !2864, !dp.md.instr.id !2865
  call void @__dp_report_bb(i32 29)
  %218 = load i32, i32* %__dp_bb, align 4
  call void @__dp_report_bb_pair(i32 %218, i32 52)
  br i1 %cmp101, label %for.body102, label %for.end117, !dbg !2866, !dp.md.instr.id !2867

for.body102:                                      ; preds = %for.cond99
  call void @__dp_loop_incr(i32 1)
  call void @llvm.dbg.declare(metadata float* %new_score, metadata !2868, metadata !DIExpression()), !dbg !2870, !dp.md.instr.id !2871
  %219 = ptrtoint float* %base_score to i64
  %220 = load float, float* %base_score, align 4, !dbg !2872, !dp.md.instr.id !2873
  %221 = ptrtoint float** %incomming_sums to i64
  %222 = load float*, float** %incomming_sums, align 8, !dbg !2874, !dp.md.instr.id !2875
  %223 = ptrtoint i32* %i98 to i64
  %224 = load i32, i32* %i98, align 4, !dbg !2876, !dp.md.instr.id !2877
  %idxprom103 = sext i32 %224 to i64, !dbg !2874, !dp.md.instr.id !2878
  %arrayidx104 = getelementptr inbounds float, float* %222, i64 %idxprom103, !dbg !2874, !dp.md.instr.id !2879
  %225 = ptrtoint float* %arrayidx104 to i64
  call void @__dp_read(i32 712, i64 %225, i8* getelementptr inbounds ([25 x i8], [25 x i8]* @.str.101, i32 0, i32 0))
  %226 = load float, float* %arrayidx104, align 4, !dbg !2874, !dp.md.instr.id !2880
  %mul105 = fmul float 0x3FEB333340000000, %226, !dbg !2881, !dp.md.instr.id !2882
  %add106 = fadd float %220, %mul105, !dbg !2883, !dp.md.instr.id !2884
  %227 = ptrtoint float* %new_score to i64
  store float %add106, float* %new_score, align 4, !dbg !2870, !dp.md.instr.id !2885
  %228 = ptrtoint float* %new_score to i64
  %229 = load float, float* %new_score, align 4, !dbg !2886, !dp.md.instr.id !2887
  %230 = ptrtoint float** %scores to i64
  %231 = load float*, float** %scores, align 8, !dbg !2888, !dp.md.instr.id !2889
  %232 = ptrtoint i32* %i98 to i64
  %233 = load i32, i32* %i98, align 4, !dbg !2890, !dp.md.instr.id !2891
  %idxprom107 = sext i32 %233 to i64, !dbg !2888, !dp.md.instr.id !2892
  %arrayidx108 = getelementptr inbounds float, float* %231, i64 %idxprom107, !dbg !2888, !dp.md.instr.id !2893
  %234 = ptrtoint float* %arrayidx108 to i64
  call void @__dp_read(i32 721, i64 %234, i8* getelementptr inbounds ([17 x i8], [17 x i8]* @.str.102, i32 0, i32 0))
  %235 = load float, float* %arrayidx108, align 4, !dbg !2888, !dp.md.instr.id !2894
  %sub109 = fsub float %229, %235, !dbg !2895, !dp.md.instr.id !2896
  call void @__dp_call(i32 32886), !dbg !2897
  %call110 = call float @_ZSt4fabsf(float %sub109), !dbg !2897, !dp.md.instr.id !2898
  %conv111 = fpext float %call110 to double, !dbg !2897, !dp.md.instr.id !2899
  %236 = ptrtoint double* %error to i64
  %237 = load double, double* %error, align 8, !dbg !2900, !dp.md.instr.id !2901
  %add112 = fadd double %237, %conv111, !dbg !2900, !dp.md.instr.id !2902
  %238 = ptrtoint double* %error to i64
  store double %add112, double* %error, align 8, !dbg !2900, !dp.md.instr.id !2903
  %239 = ptrtoint float** %incomming_sums to i64
  %240 = load float*, float** %incomming_sums, align 8, !dbg !2904, !dp.md.instr.id !2905
  %241 = ptrtoint i32* %i98 to i64
  %242 = load i32, i32* %i98, align 4, !dbg !2906, !dp.md.instr.id !2907
  %idxprom113 = sext i32 %242 to i64, !dbg !2904, !dp.md.instr.id !2908
  %arrayidx114 = getelementptr inbounds float, float* %240, i64 %idxprom113, !dbg !2904, !dp.md.instr.id !2909
  %243 = ptrtoint float* %arrayidx114 to i64
  call void @__dp_write(i32 732, i64 %243, i8* getelementptr inbounds ([25 x i8], [25 x i8]* @.str.101, i32 0, i32 0))
  store float 0.000000e+00, float* %arrayidx114, align 4, !dbg !2910, !dp.md.instr.id !2911
  call void @__dp_report_bb(i32 31)
  %244 = load i32, i32* %__dp_bb, align 4
  call void @__dp_report_bb_pair(i32 %244, i32 54)
  %245 = load i32, i32* %__dp_bb123, align 4
  call void @__dp_report_bb_pair(i32 %245, i32 56)
  store i32 1, i32* %__dp_bb123, align 4
  br label %for.inc115, !dbg !2912, !dp.md.instr.id !2913

for.inc115:                                       ; preds = %for.body102
  %246 = ptrtoint i32* %i98 to i64
  %247 = load i32, i32* %i98, align 4, !dbg !2914, !dp.md.instr.id !2915
  %inc116 = add nsw i32 %247, 1, !dbg !2914, !dp.md.instr.id !2916
  %248 = ptrtoint i32* %i98 to i64
  store i32 %inc116, i32* %i98, align 4, !dbg !2914, !dp.md.instr.id !2917
  call void @__dp_report_bb(i32 30)
  %249 = load i32, i32* %__dp_bb, align 4
  call void @__dp_report_bb_pair(i32 %249, i32 53)
  store i32 1, i32* %__dp_bb, align 4
  br label %for.cond99, !dbg !2918, !llvm.loop !2919, !dp.md.instr.id !2921

for.end117:                                       ; preds = %for.cond99
  call void @__dp_loop_exit(i32 32889, i32 4), !dp.md.instr.id !2922
  %250 = ptrtoint double* %error to i64
  %251 = load double, double* %error, align 8, !dbg !2923, !dp.md.instr.id !2925
  %cmp118 = fcmp olt double %251, 0x3F1A36E2E0000000, !dbg !2926, !dp.md.instr.id !2927
  call void @__dp_report_bb(i32 51)
  %252 = load i32, i32* %__dp_bb123, align 4
  call void @__dp_report_bb_pair(i32 %252, i32 57)
  br i1 %cmp118, label %if.then119, label %if.else, !dbg !2928, !dp.md.instr.id !2929

if.then119:                                       ; preds = %for.end117
  call void @__dp_call(i32 32889), !dbg !2930
  %call120 = call i32 (i8*, ...) @printf(i8* getelementptr inbounds ([11 x i8], [11 x i8]* @.str.27, i64 0, i64 0)), !dbg !2930, !dp.md.instr.id !2931
  br label %if.end122, !dbg !2930, !dp.md.instr.id !2932

if.else:                                          ; preds = %for.end117
  %253 = ptrtoint double* %error to i64
  %254 = load double, double* %error, align 8, !dbg !2933, !dp.md.instr.id !2934
  call void @__dp_call(i32 32890), !dbg !2935
  %call121 = call i32 (i8*, ...) @printf(i8* getelementptr inbounds ([17 x i8], [17 x i8]* @.str.28, i64 0, i64 0), double %254), !dbg !2935, !dp.md.instr.id !2936
  call void @__dp_report_bb(i32 28)
  %255 = load i32, i32* %__dp_bb123, align 4
  call void @__dp_report_bb_pair(i32 %255, i32 55)
  br label %if.end122, !dp.md.instr.id !2937

if.end122:                                        ; preds = %if.else, %if.then119
  call void @__dp_finalize(i32 32891), !dbg !2938
  call void @__dp_loop_output(), !dbg !2938
  ret i32 0, !dbg !2938, !dp.md.instr.id !2939
}

; Function Attrs: nounwind
declare i32 @_ZNSt6thread20hardware_concurrencyEv() #4

; Function Attrs: nounwind readonly
declare i32 @atoi(i8*) #7

; Function Attrs: noinline optnone uwtable
define linkonce_odr void @_ZSt4fillIPffEvT_S1_RKT0_(float* %__first, float* %__last, float* nonnull align 4 dereferenceable(4) %__value) #0 comdat !dbg !2940 {
entry:
  %__first.addr = alloca float*, align 8
  %__last.addr = alloca float*, align 8
  %__value.addr = alloca float*, align 8
  store float* %__first, float** %__first.addr, align 8
  call void @llvm.dbg.declare(metadata float** %__first.addr, metadata !2949, metadata !DIExpression()), !dbg !2951
  store float* %__last, float** %__last.addr, align 8
  call void @llvm.dbg.declare(metadata float** %__last.addr, metadata !2952, metadata !DIExpression()), !dbg !2953
  store float* %__value, float** %__value.addr, align 8
  call void @llvm.dbg.declare(metadata float** %__value.addr, metadata !2954, metadata !DIExpression()), !dbg !2955
  %0 = load float*, float** %__first.addr, align 8, !dbg !2956
  %1 = load float*, float** %__last.addr, align 8, !dbg !2957
  %2 = load float*, float** %__value.addr, align 8, !dbg !2958
  call void @_ZSt8__fill_aIPffEvT_S1_RKT0_(float* %0, float* %1, float* nonnull align 4 dereferenceable(4) %2), !dbg !2959
  ret void, !dbg !2960
}

; Function Attrs: noinline optnone uwtable
define internal double @_ZL6PR_CPU8ECLgraphPfPii(%struct.ECLgraph* byval(%struct.ECLgraph) align 8 %g, float* %scores, i32* %degree, i32 %threadCount) #0 personality i8* bitcast (i32 (...)* @__gxx_personality_v0 to i8*) !dbg !2961 {
entry:
  call void @__dp_func_entry(i32 49211, i32 0), !dp.md.instr.id !2964
  %__dp_bb78 = alloca i32, align 4
  store i32 0, i32* %__dp_bb78, align 4
  %__dp_bb77 = alloca i32, align 4
  store i32 0, i32* %__dp_bb77, align 4
  %__dp_bb76 = alloca i32, align 4
  store i32 0, i32* %__dp_bb76, align 4
  %__dp_bb75 = alloca i32, align 4
  store i32 0, i32* %__dp_bb75, align 4
  %__dp_bb74 = alloca i32, align 4
  store i32 0, i32* %__dp_bb74, align 4
  %__dp_bb73 = alloca i32, align 4
  store i32 0, i32* %__dp_bb73, align 4
  %__dp_bb72 = alloca i32, align 4
  store i32 0, i32* %__dp_bb72, align 4
  %__dp_bb71 = alloca i32, align 4
  store i32 0, i32* %__dp_bb71, align 4
  %__dp_bb70 = alloca i32, align 4
  store i32 0, i32* %__dp_bb70, align 4
  %__dp_bb = alloca i32, align 4
  store i32 0, i32* %__dp_bb, align 4
  %retval = alloca double, align 8, !dp.md.instr.id !2965
  %0 = ptrtoint double* %retval to i64, !dp.md.instr.id !2966
  %scores.addr = alloca float*, align 8, !dp.md.instr.id !2967
  %1 = ptrtoint float** %scores.addr to i64, !dp.md.instr.id !2968
  %degree.addr = alloca i32*, align 8, !dp.md.instr.id !2969
  %2 = ptrtoint i32** %degree.addr to i64, !dp.md.instr.id !2970
  %threadCount.addr = alloca i32, align 4, !dp.md.instr.id !2971
  %3 = ptrtoint i32* %threadCount.addr to i64, !dp.md.instr.id !2972
  %base_score = alloca float, align 4, !dp.md.instr.id !2973
  %4 = ptrtoint float* %base_score to i64, !dp.md.instr.id !2974
  %outgoing_contrib = alloca float*, align 8, !dp.md.instr.id !2975
  %5 = ptrtoint float** %outgoing_contrib to i64, !dp.md.instr.id !2976
  %saved_stack = alloca i8*, align 8, !dp.md.instr.id !2977
  %6 = ptrtoint i8** %saved_stack to i64, !dp.md.instr.id !2978
  %__vla_expr0 = alloca i64, align 8, !dp.md.instr.id !2979
  %7 = ptrtoint i64* %__vla_expr0 to i64, !dp.md.instr.id !2980
  %__vla_expr1 = alloca i64, align 8, !dp.md.instr.id !2981
  %8 = ptrtoint i64* %__vla_expr1 to i64, !dp.md.instr.id !2982
  %iter = alloca i32, align 4, !dp.md.instr.id !2983
  %9 = ptrtoint i32* %iter to i64, !dp.md.instr.id !2984
  %start = alloca %struct.timeval, align 8, !dp.md.instr.id !2985
  %10 = ptrtoint %struct.timeval* %start to i64, !dp.md.instr.id !2986
  call void @__dp_alloca(i32 49211, i8* getelementptr inbounds ([6 x i8], [6 x i8]* @.str.108, i32 0, i32 0), i64 %10, i64 %10, i64 0, i64 1), !dp.md.instr.id !2987
  %end = alloca %struct.timeval, align 8, !dp.md.instr.id !2988
  %11 = ptrtoint %struct.timeval* %end to i64, !dp.md.instr.id !2989
  call void @__dp_alloca(i32 49211, i8* getelementptr inbounds ([4 x i8], [4 x i8]* @.str.109, i32 0, i32 0), i64 %11, i64 %11, i64 0, i64 1), !dp.md.instr.id !2990
  %error = alloca double, align 8, !dp.md.instr.id !2991
  %12 = ptrtoint double* %error to i64, !dp.md.instr.id !2992
  %i = alloca i32, align 4, !dp.md.instr.id !2993
  %13 = ptrtoint i32* %i to i64, !dp.md.instr.id !2994
  %i15 = alloca i32, align 4, !dp.md.instr.id !2995
  %14 = ptrtoint i32* %i15 to i64, !dp.md.instr.id !2996
  %ref.tmp = alloca %"class.std::thread", align 8, !dp.md.instr.id !2997
  %15 = ptrtoint %"class.std::thread"* %ref.tmp to i64, !dp.md.instr.id !2998
  call void @__dp_alloca(i32 49211, i8* getelementptr inbounds ([8 x i8], [8 x i8]* @.str.110, i32 0, i32 0), i64 %15, i64 %15, i64 0, i64 1), !dp.md.instr.id !2999
  %ref.tmp19 = alloca %"class.std::reference_wrapper", align 8, !dp.md.instr.id !3000
  %16 = ptrtoint %"class.std::reference_wrapper"* %ref.tmp19 to i64, !dp.md.instr.id !3001
  call void @__dp_alloca(i32 49211, i8* getelementptr inbounds ([10 x i8], [10 x i8]* @.str.111, i32 0, i32 0), i64 %16, i64 %16, i64 0, i64 1), !dp.md.instr.id !3002
  %exn.slot = alloca i8*, align 8, !dp.md.instr.id !3003
  %17 = ptrtoint i8** %exn.slot to i64, !dp.md.instr.id !3004
  %ehselector.slot = alloca i32, align 4, !dp.md.instr.id !3005
  %18 = ptrtoint i32* %ehselector.slot to i64, !dp.md.instr.id !3006
  %i29 = alloca i32, align 4, !dp.md.instr.id !3007
  %19 = ptrtoint i32* %i29 to i64, !dp.md.instr.id !3008
  %runtime = alloca double, align 8, !dp.md.instr.id !3009
  %20 = ptrtoint double* %runtime to i64, !dbg !3010, !dp.md.instr.id !3011
  call void @llvm.dbg.declare(metadata %struct.ECLgraph* %g, metadata !3012, metadata !DIExpression()), !dbg !3010, !dp.md.instr.id !3013
  %21 = ptrtoint float** %scores.addr to i64
  store float* %scores, float** %scores.addr, align 8, !dp.md.instr.id !3014
  call void @llvm.dbg.declare(metadata float** %scores.addr, metadata !3015, metadata !DIExpression()), !dbg !3016, !dp.md.instr.id !3017
  %22 = ptrtoint i32** %degree.addr to i64
  store i32* %degree, i32** %degree.addr, align 8, !dp.md.instr.id !3018
  call void @llvm.dbg.declare(metadata i32** %degree.addr, metadata !3019, metadata !DIExpression()), !dbg !3020, !dp.md.instr.id !3021
  %23 = ptrtoint i32* %threadCount.addr to i64
  store i32 %threadCount, i32* %threadCount.addr, align 4, !dp.md.instr.id !3022
  call void @llvm.dbg.declare(metadata i32* %threadCount.addr, metadata !3023, metadata !DIExpression()), !dbg !3024, !dp.md.instr.id !3025
  call void @llvm.dbg.declare(metadata float* %base_score, metadata !3026, metadata !DIExpression()), !dbg !3027, !dp.md.instr.id !3028
  %nodes = getelementptr inbounds %struct.ECLgraph, %struct.ECLgraph* %g, i32 0, i32 0, !dbg !3029, !dp.md.instr.id !3030
  %24 = ptrtoint i32* %nodes to i64
  call void @__dp_read(i32 821, i64 %24, i8* getelementptr inbounds ([12 x i8], [12 x i8]* @.str.36, i32 0, i32 0))
  %25 = load i32, i32* %nodes, align 8, !dbg !3029, !dp.md.instr.id !3031
  %conv = sitofp i32 %25 to float, !dbg !3032, !dp.md.instr.id !3033
  %div = fdiv float 0x3FC3333300000000, %conv, !dbg !3034, !dp.md.instr.id !3035
  %26 = ptrtoint float* %base_score to i64
  store float %div, float* %base_score, align 4, !dbg !3027, !dp.md.instr.id !3036
  call void @llvm.dbg.declare(metadata float** %outgoing_contrib, metadata !3037, metadata !DIExpression()), !dbg !3038, !dp.md.instr.id !3039
  %nodes1 = getelementptr inbounds %struct.ECLgraph, %struct.ECLgraph* %g, i32 0, i32 0, !dbg !3040, !dp.md.instr.id !3041
  %27 = ptrtoint i32* %nodes1 to i64
  call void @__dp_read(i32 827, i64 %27, i8* getelementptr inbounds ([12 x i8], [12 x i8]* @.str.36, i32 0, i32 0))
  %28 = load i32, i32* %nodes1, align 8, !dbg !3040, !dp.md.instr.id !3042
  %conv2 = sext i32 %28 to i64, !dbg !3043, !dp.md.instr.id !3044
  %mul = mul i64 %conv2, 4, !dbg !3045, !dp.md.instr.id !3046
  %call = call noalias i8* @malloc(i64 %mul) #9, !dbg !3047, !dp.md.instr.id !3048
  %29 = ptrtoint i8* %call to i64, !dp.md.instr.id !3049
  call void @__dp_new(i32 49214, i64 %29, i64 %29, i64 %mul), !dbg !3050, !dp.md.instr.id !3051
  %30 = bitcast i8* %call to float*, !dbg !3050, !dp.md.instr.id !3052
  %31 = ptrtoint float** %outgoing_contrib to i64
  store float* %30, float** %outgoing_contrib, align 8, !dbg !3038, !dp.md.instr.id !3053
  %32 = ptrtoint i32* %threadCount.addr to i64
  %33 = load i32, i32* %threadCount.addr, align 4, !dbg !3054, !dp.md.instr.id !3055
  %34 = zext i32 %33 to i64, !dbg !3056, !dp.md.instr.id !3057
  call void @__dp_call(i32 49215), !dbg !3056
  %35 = call i8* @llvm.stacksave(), !dbg !3056, !dp.md.instr.id !3058
  %36 = ptrtoint i8** %saved_stack to i64
  store i8* %35, i8** %saved_stack, align 8, !dbg !3056, !dp.md.instr.id !3059
  %vla = alloca %"class.std::thread", i64 %34, align 16, !dbg !3056, !dp.md.instr.id !3060
  %37 = ptrtoint %"class.std::thread"* %vla to i64, !dbg !3056, !dp.md.instr.id !3061
  %38 = add i64 %37, %34, !dbg !3056, !dp.md.instr.id !3062
  %39 = mul i64 %34, 0, !dbg !3056, !dp.md.instr.id !3063
  call void @__dp_alloca(i32 49215, i8* getelementptr inbounds ([14 x i8], [14 x i8]* @.str.114, i32 0, i32 0), i64 %37, i64 %38, i64 %39, i64 %34), !dbg !3056, !dp.md.instr.id !3064
  %40 = ptrtoint i64* %__vla_expr0 to i64
  store i64 %34, i64* %__vla_expr0, align 8, !dbg !3056, !dp.md.instr.id !3065
  call void @llvm.dbg.declare(metadata i64* %__vla_expr0, metadata !3066, metadata !DIExpression()), !dbg !3067, !dp.md.instr.id !3068
  call void @llvm.dbg.declare(metadata %"class.std::thread"* %vla, metadata !3069, metadata !DIExpression()), !dbg !3073, !dp.md.instr.id !3074
  %isempty = icmp eq i64 %34, 0, !dbg !3073, !dp.md.instr.id !3075
  call void @__dp_report_bb(i32 77)
  br i1 %isempty, label %arrayctor.cont, label %new.ctorloop, !dbg !3073, !dp.md.instr.id !3076

new.ctorloop:                                     ; preds = %entry
  %arrayctor.end = getelementptr inbounds %"class.std::thread", %"class.std::thread"* %vla, i64 %34, !dbg !3073, !dp.md.instr.id !3077
  br label %arrayctor.loop, !dbg !3073, !dp.md.instr.id !3078

arrayctor.loop:                                   ; preds = %arrayctor.loop, %new.ctorloop
  %arrayctor.cur = phi %"class.std::thread"* [ %vla, %new.ctorloop ], [ %arrayctor.next, %arrayctor.loop ], !dbg !3073, !dp.md.instr.id !3079
  call void @__dp_call(i32 49215), !dbg !3073
  call void @_ZNSt6threadC2Ev(%"class.std::thread"* %arrayctor.cur) #9, !dbg !3073, !dp.md.instr.id !3080
  %arrayctor.next = getelementptr inbounds %"class.std::thread", %"class.std::thread"* %arrayctor.cur, i64 1, !dbg !3073, !dp.md.instr.id !3081
  %arrayctor.done = icmp eq %"class.std::thread"* %arrayctor.next, %arrayctor.end, !dbg !3073, !dp.md.instr.id !3082
  br i1 %arrayctor.done, label %arrayctor.cont, label %arrayctor.loop, !dbg !3073, !dp.md.instr.id !3083

arrayctor.cont:                                   ; preds = %entry, %arrayctor.loop
  %41 = ptrtoint i32* %threadCount.addr to i64
  %42 = load i32, i32* %threadCount.addr, align 4, !dbg !3084, !dp.md.instr.id !3085
  %43 = zext i32 %42 to i64, !dbg !3086, !dp.md.instr.id !3087
  %vla3 = alloca double, i64 %43, align 16, !dbg !3086, !dp.md.instr.id !3088
  %44 = ptrtoint double* %vla3 to i64, !dbg !3086, !dp.md.instr.id !3089
  %45 = add i64 %44, %43, !dbg !3086, !dp.md.instr.id !3090
  %46 = mul i64 %43, 8, !dbg !3086, !dp.md.instr.id !3091
  call void @__dp_alloca(i32 49216, i8* getelementptr inbounds ([10 x i8], [10 x i8]* @.str.115, i32 0, i32 0), i64 %44, i64 %45, i64 %46, i64 %43), !dbg !3086, !dp.md.instr.id !3092
  %47 = ptrtoint i64* %__vla_expr1 to i64
  store i64 %43, i64* %__vla_expr1, align 8, !dbg !3086, !dp.md.instr.id !3093
  call void @llvm.dbg.declare(metadata i64* %__vla_expr1, metadata !3094, metadata !DIExpression()), !dbg !3067, !dp.md.instr.id !3095
  call void @llvm.dbg.declare(metadata double* %vla3, metadata !3096, metadata !DIExpression()), !dbg !3100, !dp.md.instr.id !3101
  call void @llvm.dbg.declare(metadata i32* %iter, metadata !3102, metadata !DIExpression()), !dbg !3103, !dp.md.instr.id !3104
  call void @llvm.dbg.declare(metadata %struct.timeval* %start, metadata !3105, metadata !DIExpression()), !dbg !3112, !dp.md.instr.id !3113
  call void @llvm.dbg.declare(metadata %struct.timeval* %end, metadata !3114, metadata !DIExpression()), !dbg !3115, !dp.md.instr.id !3116
  call void @__dp_call(i32 49220), !dbg !3117
  %call4 = call i32 @gettimeofday(%struct.timeval* %start, i8* null) #9, !dbg !3117, !dp.md.instr.id !3118
  %48 = ptrtoint i32* %iter to i64
  store i32 0, i32* %iter, align 4, !dbg !3119, !dp.md.instr.id !3121
  call void @__dp_report_bb(i32 78)
  br label %for.cond, !dbg !3122, !dp.md.instr.id !3123

for.cond:                                         ; preds = %for.inc42, %arrayctor.cont
  call void @__dp_loop_entry(i32 49222, i32 5), !dp.md.instr.id !3124
  %49 = ptrtoint i32* %iter to i64
  %50 = load i32, i32* %iter, align 4, !dbg !3125, !dp.md.instr.id !3127
  %cmp = icmp slt i32 %50, 100, !dbg !3128, !dp.md.instr.id !3129
  call void @__dp_report_bb(i32 80)
  %51 = load i32, i32* %__dp_bb70, align 4
  call void @__dp_report_bb_pair(i32 %51, i32 103)
  br i1 %cmp, label %for.body, label %for.end44, !dbg !3130, !dp.md.instr.id !3131

for.body:                                         ; preds = %for.cond
  call void @__dp_loop_incr(i32 6)
  call void @llvm.dbg.declare(metadata double* %error, metadata !3132, metadata !DIExpression()), !dbg !3134, !dp.md.instr.id !3135
  %52 = ptrtoint double* %error to i64
  store double 0.000000e+00, double* %error, align 8, !dbg !3134, !dp.md.instr.id !3136
  call void @llvm.dbg.declare(metadata i32* %i, metadata !3137, metadata !DIExpression()), !dbg !3139, !dp.md.instr.id !3140
  %53 = ptrtoint i32* %i to i64
  store i32 0, i32* %i, align 4, !dbg !3139, !dp.md.instr.id !3141
  call void @__dp_report_bb(i32 82)
  %54 = load i32, i32* %__dp_bb, align 4
  call void @__dp_report_bb_pair(i32 %54, i32 101)
  %55 = load i32, i32* %__dp_bb71, align 4
  call void @__dp_report_bb_pair(i32 %55, i32 107)
  br label %for.cond5, !dbg !3142, !dp.md.instr.id !3143

for.cond5:                                        ; preds = %for.inc, %for.body
  call void @__dp_loop_entry(i32 49224, i32 6), !dp.md.instr.id !3144
  %56 = ptrtoint i32* %i to i64
  %57 = load i32, i32* %i, align 4, !dbg !3145, !dp.md.instr.id !3147
  %nodes6 = getelementptr inbounds %struct.ECLgraph, %struct.ECLgraph* %g, i32 0, i32 0, !dbg !3148, !dp.md.instr.id !3149
  %58 = ptrtoint i32* %nodes6 to i64
  call void @__dp_read(i32 884, i64 %58, i8* getelementptr inbounds ([12 x i8], [12 x i8]* @.str.36, i32 0, i32 0))
  %59 = load i32, i32* %nodes6, align 8, !dbg !3148, !dp.md.instr.id !3150
  %cmp7 = icmp slt i32 %57, %59, !dbg !3151, !dp.md.instr.id !3152
  call void @__dp_report_bb(i32 84)
  store i32 1, i32* %__dp_bb71, align 4
  %60 = load i32, i32* %__dp_bb72, align 4
  call void @__dp_report_bb_pair(i32 %60, i32 108)
  br i1 %cmp7, label %for.body8, label %for.end, !dbg !3153, !dp.md.instr.id !3154

for.body8:                                        ; preds = %for.cond5
  call void @__dp_loop_incr(i32 7)
  %61 = ptrtoint float** %scores.addr to i64
  %62 = load float*, float** %scores.addr, align 8, !dbg !3155, !dp.md.instr.id !3156
  %63 = ptrtoint i32* %i to i64
  %64 = load i32, i32* %i, align 4, !dbg !3157, !dp.md.instr.id !3158
  %idxprom = sext i32 %64 to i64, !dbg !3155, !dp.md.instr.id !3159
  %arrayidx = getelementptr inbounds float, float* %62, i64 %idxprom, !dbg !3155, !dp.md.instr.id !3160
  %65 = ptrtoint float* %arrayidx to i64
  call void @__dp_read(i32 891, i64 %65, i8* getelementptr inbounds ([17 x i8], [17 x i8]* @.str.102, i32 0, i32 0))
  %66 = load float, float* %arrayidx, align 4, !dbg !3155, !dp.md.instr.id !3161
  %67 = ptrtoint i32** %degree.addr to i64
  %68 = load i32*, i32** %degree.addr, align 8, !dbg !3162, !dp.md.instr.id !3163
  %69 = ptrtoint i32* %i to i64
  %70 = load i32, i32* %i, align 4, !dbg !3164, !dp.md.instr.id !3165
  %idxprom9 = sext i32 %70 to i64, !dbg !3162, !dp.md.instr.id !3166
  %arrayidx10 = getelementptr inbounds i32, i32* %68, i64 %idxprom9, !dbg !3162, !dp.md.instr.id !3167
  %71 = ptrtoint i32* %arrayidx10 to i64
  call void @__dp_read(i32 896, i64 %71, i8* getelementptr inbounds ([17 x i8], [17 x i8]* @.str.100, i32 0, i32 0))
  %72 = load i32, i32* %arrayidx10, align 4, !dbg !3162, !dp.md.instr.id !3168
  %conv11 = sitofp i32 %72 to float, !dbg !3162, !dp.md.instr.id !3169
  %div12 = fdiv float %66, %conv11, !dbg !3170, !dp.md.instr.id !3171
  %73 = ptrtoint float** %outgoing_contrib to i64
  %74 = load float*, float** %outgoing_contrib, align 8, !dbg !3172, !dp.md.instr.id !3173
  %75 = ptrtoint i32* %i to i64
  %76 = load i32, i32* %i, align 4, !dbg !3174, !dp.md.instr.id !3175
  %idxprom13 = sext i32 %76 to i64, !dbg !3172, !dp.md.instr.id !3176
  %arrayidx14 = getelementptr inbounds float, float* %74, i64 %idxprom13, !dbg !3172, !dp.md.instr.id !3177
  %77 = ptrtoint float* %arrayidx14 to i64
  call void @__dp_write(i32 903, i64 %77, i8* getelementptr inbounds ([27 x i8], [27 x i8]* @.str.116, i32 0, i32 0))
  store float %div12, float* %arrayidx14, align 4, !dbg !3178, !dp.md.instr.id !3179
  call void @__dp_report_bb(i32 86)
  %78 = load i32, i32* %__dp_bb72, align 4
  call void @__dp_report_bb_pair(i32 %78, i32 110)
  br label %for.inc, !dbg !3172, !dp.md.instr.id !3180

for.inc:                                          ; preds = %for.body8
  %79 = ptrtoint i32* %i to i64
  %80 = load i32, i32* %i, align 4, !dbg !3181, !dp.md.instr.id !3182
  %inc = add nsw i32 %80, 1, !dbg !3181, !dp.md.instr.id !3183
  %81 = ptrtoint i32* %i to i64
  store i32 %inc, i32* %i, align 4, !dbg !3181, !dp.md.instr.id !3184
  call void @__dp_report_bb(i32 85)
  %82 = load i32, i32* %__dp_bb72, align 4
  call void @__dp_report_bb_pair(i32 %82, i32 109)
  store i32 1, i32* %__dp_bb72, align 4
  br label %for.cond5, !dbg !3185, !llvm.loop !3186, !dp.md.instr.id !3188

for.end:                                          ; preds = %for.cond5
  call void @__dp_loop_exit(i32 49225, i32 6), !dp.md.instr.id !3189
  call void @llvm.dbg.declare(metadata i32* %i15, metadata !3190, metadata !DIExpression()), !dbg !3192, !dp.md.instr.id !3193
  %83 = ptrtoint i32* %i15 to i64
  store i32 0, i32* %i15, align 4, !dbg !3192, !dp.md.instr.id !3194
  call void @__dp_report_bb(i32 83)
  %84 = load i32, i32* %__dp_bb73, align 4
  call void @__dp_report_bb_pair(i32 %84, i32 111)
  br label %for.cond16, !dbg !3195, !dp.md.instr.id !3196

for.cond16:                                       ; preds = %for.inc26, %for.end
  call void @__dp_loop_entry(i32 49225, i32 7), !dp.md.instr.id !3197
  %85 = ptrtoint i32* %i15 to i64
  %86 = load i32, i32* %i15, align 4, !dbg !3198, !dp.md.instr.id !3200
  %87 = ptrtoint i32* %threadCount.addr to i64
  %88 = load i32, i32* %threadCount.addr, align 4, !dbg !3201, !dp.md.instr.id !3202
  %cmp17 = icmp slt i32 %86, %88, !dbg !3203, !dp.md.instr.id !3204
  call void @__dp_report_bb(i32 88)
  store i32 1, i32* %__dp_bb73, align 4
  %89 = load i32, i32* %__dp_bb74, align 4
  call void @__dp_report_bb_pair(i32 %89, i32 112)
  br i1 %cmp17, label %for.body18, label %for.end28, !dbg !3205, !dp.md.instr.id !3206

for.body18:                                       ; preds = %for.cond16
  call void @__dp_loop_incr(i32 8)
  %90 = ptrtoint i32* %i15 to i64
  %91 = load i32, i32* %i15, align 4, !dbg !3207, !dp.md.instr.id !3209
  %idxprom20 = sext i32 %91 to i64, !dbg !3210, !dp.md.instr.id !3211
  %arrayidx21 = getelementptr inbounds double, double* %vla3, i64 %idxprom20, !dbg !3210, !dp.md.instr.id !3212
  call void @__dp_call(i32 49226), !dbg !3213
  %call22 = call double* @_ZSt3refIdESt17reference_wrapperIT_ERS1_(double* nonnull align 8 dereferenceable(8) %arrayidx21) #9, !dbg !3213, !dp.md.instr.id !3214
  %coerce.dive = getelementptr inbounds %"class.std::reference_wrapper", %"class.std::reference_wrapper"* %ref.tmp19, i32 0, i32 0, !dbg !3213, !dp.md.instr.id !3215
  %92 = ptrtoint double** %coerce.dive to i64
  call void @__dp_write(i32 923, i64 %92, i8* getelementptr inbounds ([20 x i8], [20 x i8]* @.str.117, i32 0, i32 0))
  store double* %call22, double** %coerce.dive, align 8, !dbg !3213, !dp.md.instr.id !3216
  call void @__dp_call(i32 49226), !dbg !3217
  call void @__dp_report_bb(i32 90)
  %93 = load i32, i32* %__dp_bb74, align 4
  call void @__dp_report_bb_pair(i32 %93, i32 114)
  invoke void @_ZNSt6threadC2IRFv8ECLgraphRdPfS3_PKifiiEJRKS1_St17reference_wrapperIdERS3_SC_RPiRKfRiRS4_EvEEOT_DpOT0_(%"class.std::thread"* %ref.tmp, void (%struct.ECLgraph*, double*, float*, float*, i32*, float, i32, i32)* nonnull @_ZL9errorCalc8ECLgraphRdPfS1_PKifii, %struct.ECLgraph* nonnull align 8 dereferenceable(32) %g, %"class.std::reference_wrapper"* nonnull align 8 dereferenceable(8) %ref.tmp19, float** nonnull align 8 dereferenceable(8) %outgoing_contrib, float** nonnull align 8 dereferenceable(8) %scores.addr, i32** nonnull align 8 dereferenceable(8) %degree.addr, float* nonnull align 4 dereferenceable(4) %base_score, i32* nonnull align 4 dereferenceable(4) %i15, i32* nonnull align 4 dereferenceable(4) %threadCount.addr)
          to label %invoke.cont unwind label %lpad, !dbg !3217, !dp.md.instr.id !3218

invoke.cont:                                      ; preds = %for.body18
  %94 = ptrtoint i32* %i15 to i64
  %95 = load i32, i32* %i15, align 4, !dbg !3219, !dp.md.instr.id !3220
  %idxprom23 = sext i32 %95 to i64, !dbg !3221, !dp.md.instr.id !3222
  %arrayidx24 = getelementptr inbounds %"class.std::thread", %"class.std::thread"* %vla, i64 %idxprom23, !dbg !3221, !dp.md.instr.id !3223
  call void @__dp_call(i32 49226), !dbg !3224
  %call25 = call nonnull align 8 dereferenceable(8) %"class.std::thread"* @_ZNSt6threadaSEOS_(%"class.std::thread"* %arrayidx24, %"class.std::thread"* nonnull align 8 dereferenceable(8) %ref.tmp) #9, !dbg !3224, !dp.md.instr.id !3225
  call void @__dp_call(i32 49226), !dbg !3221
  call void @_ZNSt6threadD2Ev(%"class.std::thread"* %ref.tmp) #9, !dbg !3221, !dp.md.instr.id !3226
  call void @__dp_report_bb(i32 93)
  %96 = load i32, i32* %__dp_bb74, align 4
  call void @__dp_report_bb_pair(i32 %96, i32 115)
  br label %for.inc26, !dbg !3227, !dp.md.instr.id !3228

for.inc26:                                        ; preds = %invoke.cont
  %97 = ptrtoint i32* %i15 to i64
  %98 = load i32, i32* %i15, align 4, !dbg !3229, !dp.md.instr.id !3230
  %inc27 = add nsw i32 %98, 1, !dbg !3229, !dp.md.instr.id !3231
  %99 = ptrtoint i32* %i15 to i64
  store i32 %inc27, i32* %i15, align 4, !dbg !3229, !dp.md.instr.id !3232
  call void @__dp_report_bb(i32 89)
  %100 = load i32, i32* %__dp_bb74, align 4
  call void @__dp_report_bb_pair(i32 %100, i32 113)
  store i32 1, i32* %__dp_bb74, align 4
  br label %for.cond16, !dbg !3233, !llvm.loop !3234, !dp.md.instr.id !3236

lpad:                                             ; preds = %if.end59, %for.body32, %for.body18
  %101 = landingpad { i8*, i32 }
          cleanup, !dbg !3237, !dp.md.instr.id !3238
  %102 = extractvalue { i8*, i32 } %101, 0, !dbg !3237, !dp.md.instr.id !3239
  %103 = ptrtoint i8** %exn.slot to i64
  store i8* %102, i8** %exn.slot, align 8, !dbg !3237, !dp.md.instr.id !3240
  %104 = extractvalue { i8*, i32 } %101, 1, !dbg !3237, !dp.md.instr.id !3241
  %105 = ptrtoint i32* %ehselector.slot to i64
  store i32 %104, i32* %ehselector.slot, align 4, !dbg !3237, !dp.md.instr.id !3242
  %106 = getelementptr inbounds %"class.std::thread", %"class.std::thread"* %vla, i64 %34, !dbg !3243, !dp.md.instr.id !3244
  %arraydestroy.isempty63 = icmp eq %"class.std::thread"* %vla, %106, !dbg !3243, !dp.md.instr.id !3245
  call void @__dp_report_bb(i32 76)
  br i1 %arraydestroy.isempty63, label %arraydestroy.done68, label %arraydestroy.body64, !dbg !3243, !dp.md.instr.id !3246

for.end28:                                        ; preds = %for.cond16
  call void @__dp_loop_exit(i32 49228, i32 7), !dp.md.instr.id !3247
  call void @llvm.dbg.declare(metadata i32* %i29, metadata !3248, metadata !DIExpression()), !dbg !3250, !dp.md.instr.id !3251
  %107 = ptrtoint i32* %i29 to i64
  store i32 0, i32* %i29, align 4, !dbg !3250, !dp.md.instr.id !3252
  call void @__dp_report_bb(i32 87)
  %108 = load i32, i32* %__dp_bb75, align 4
  call void @__dp_report_bb_pair(i32 %108, i32 116)
  br label %for.cond30, !dbg !3253, !dp.md.instr.id !3254

for.cond30:                                       ; preds = %for.inc38, %for.end28
  call void @__dp_loop_entry(i32 49228, i32 8), !dp.md.instr.id !3255
  %109 = ptrtoint i32* %i29 to i64
  %110 = load i32, i32* %i29, align 4, !dbg !3256, !dp.md.instr.id !3258
  %111 = ptrtoint i32* %threadCount.addr to i64
  %112 = load i32, i32* %threadCount.addr, align 4, !dbg !3259, !dp.md.instr.id !3260
  %cmp31 = icmp slt i32 %110, %112, !dbg !3261, !dp.md.instr.id !3262
  call void @__dp_report_bb(i32 91)
  store i32 1, i32* %__dp_bb75, align 4
  %113 = load i32, i32* %__dp_bb76, align 4
  call void @__dp_report_bb_pair(i32 %113, i32 117)
  br i1 %cmp31, label %for.body32, label %for.end40, !dbg !3263, !dp.md.instr.id !3264

for.body32:                                       ; preds = %for.cond30
  call void @__dp_loop_incr(i32 9)
  %114 = ptrtoint i32* %i29 to i64
  %115 = load i32, i32* %i29, align 4, !dbg !3265, !dp.md.instr.id !3267
  %idxprom33 = sext i32 %115 to i64, !dbg !3268, !dp.md.instr.id !3269
  %arrayidx34 = getelementptr inbounds %"class.std::thread", %"class.std::thread"* %vla, i64 %idxprom33, !dbg !3268, !dp.md.instr.id !3270
  call void @__dp_call(i32 49229), !dbg !3271
  call void @__dp_report_bb(i32 94)
  %116 = load i32, i32* %__dp_bb76, align 4
  call void @__dp_report_bb_pair(i32 %116, i32 119)
  invoke void @_ZNSt6thread4joinEv(%"class.std::thread"* %arrayidx34)
          to label %invoke.cont35 unwind label %lpad, !dbg !3271, !dp.md.instr.id !3272

invoke.cont35:                                    ; preds = %for.body32
  %117 = ptrtoint i32* %i29 to i64
  %118 = load i32, i32* %i29, align 4, !dbg !3273, !dp.md.instr.id !3274
  %idxprom36 = sext i32 %118 to i64, !dbg !3275, !dp.md.instr.id !3276
  %arrayidx37 = getelementptr inbounds double, double* %vla3, i64 %idxprom36, !dbg !3275, !dp.md.instr.id !3277
  %119 = ptrtoint double* %arrayidx37 to i64
  call void @__dp_read(i32 959, i64 %119, i8* getelementptr inbounds ([15 x i8], [15 x i8]* @.str.118, i32 0, i32 0))
  %120 = load double, double* %arrayidx37, align 8, !dbg !3275, !dp.md.instr.id !3278
  %121 = ptrtoint double* %error to i64
  %122 = load double, double* %error, align 8, !dbg !3279, !dp.md.instr.id !3280
  %add = fadd double %122, %120, !dbg !3279, !dp.md.instr.id !3281
  %123 = ptrtoint double* %error to i64
  store double %add, double* %error, align 8, !dbg !3279, !dp.md.instr.id !3282
  call void @__dp_report_bb(i32 95)
  %124 = load i32, i32* %__dp_bb76, align 4
  call void @__dp_report_bb_pair(i32 %124, i32 120)
  %125 = load i32, i32* %__dp_bb77, align 4
  call void @__dp_report_bb_pair(i32 %125, i32 122)
  store i32 1, i32* %__dp_bb77, align 4
  br label %for.inc38, !dbg !3283, !dp.md.instr.id !3284

for.inc38:                                        ; preds = %invoke.cont35
  %126 = ptrtoint i32* %i29 to i64
  %127 = load i32, i32* %i29, align 4, !dbg !3285, !dp.md.instr.id !3286
  %inc39 = add nsw i32 %127, 1, !dbg !3285, !dp.md.instr.id !3287
  %128 = ptrtoint i32* %i29 to i64
  store i32 %inc39, i32* %i29, align 4, !dbg !3285, !dp.md.instr.id !3288
  call void @__dp_report_bb(i32 92)
  %129 = load i32, i32* %__dp_bb76, align 4
  call void @__dp_report_bb_pair(i32 %129, i32 118)
  store i32 1, i32* %__dp_bb76, align 4
  br label %for.cond30, !dbg !3289, !llvm.loop !3290, !dp.md.instr.id !3292

for.end40:                                        ; preds = %for.cond30
  call void @__dp_loop_exit(i32 49232, i32 8), !dp.md.instr.id !3293
  %130 = ptrtoint double* %error to i64
  %131 = load double, double* %error, align 8, !dbg !3294, !dp.md.instr.id !3296
  %cmp41 = fcmp olt double %131, 0x3F1A36E2E0000000, !dbg !3297, !dp.md.instr.id !3298
  call void @__dp_report_bb(i32 75)
  store i32 1, i32* %__dp_bb, align 4
  %132 = load i32, i32* %__dp_bb77, align 4
  call void @__dp_report_bb_pair(i32 %132, i32 121)
  br i1 %cmp41, label %if.then, label %if.end, !dbg !3299, !dp.md.instr.id !3300

if.then:                                          ; preds = %for.end40
  br label %for.end44, !dbg !3301, !dp.md.instr.id !3302

if.end:                                           ; preds = %for.end40
  br label %for.inc42, !dbg !3303, !dp.md.instr.id !3304

for.inc42:                                        ; preds = %if.end
  %133 = ptrtoint i32* %iter to i64
  %134 = load i32, i32* %iter, align 4, !dbg !3305, !dp.md.instr.id !3306
  %inc43 = add nsw i32 %134, 1, !dbg !3305, !dp.md.instr.id !3307
  %135 = ptrtoint i32* %iter to i64
  store i32 %inc43, i32* %iter, align 4, !dbg !3305, !dp.md.instr.id !3308
  call void @__dp_report_bb(i32 81)
  %136 = load i32, i32* %__dp_bb70, align 4
  call void @__dp_report_bb_pair(i32 %136, i32 104)
  store i32 1, i32* %__dp_bb70, align 4
  br label %for.cond, !dbg !3309, !llvm.loop !3310, !dp.md.instr.id !3312

for.end44:                                        ; preds = %if.then, %for.cond
  call void @__dp_loop_exit(i32 49235, i32 5), !dp.md.instr.id !3313
  call void @__dp_call(i32 49235), !dbg !3314
  %call45 = call i32 @gettimeofday(%struct.timeval* %end, i8* null) #9, !dbg !3314, !dp.md.instr.id !3315
  call void @llvm.dbg.declare(metadata double* %runtime, metadata !3316, metadata !DIExpression()), !dbg !3318, !dp.md.instr.id !3319
  %tv_sec = getelementptr inbounds %struct.timeval, %struct.timeval* %end, i32 0, i32 0, !dbg !3320, !dp.md.instr.id !3321
  %137 = ptrtoint i64* %tv_sec to i64
  call void @__dp_read(i32 982, i64 %137, i8* getelementptr inbounds ([14 x i8], [14 x i8]* @.str.119, i32 0, i32 0))
  %138 = load i64, i64* %tv_sec, align 8, !dbg !3320, !dp.md.instr.id !3322
  %conv46 = sitofp i64 %138 to double, !dbg !3323, !dp.md.instr.id !3324
  %tv_usec = getelementptr inbounds %struct.timeval, %struct.timeval* %end, i32 0, i32 1, !dbg !3325, !dp.md.instr.id !3326
  %139 = ptrtoint i64* %tv_usec to i64
  call void @__dp_read(i32 985, i64 %139, i8* getelementptr inbounds ([14 x i8], [14 x i8]* @.str.119, i32 0, i32 0))
  %140 = load i64, i64* %tv_usec, align 8, !dbg !3325, !dp.md.instr.id !3327
  %conv47 = sitofp i64 %140 to double, !dbg !3328, !dp.md.instr.id !3329
  %div48 = fdiv double %conv47, 1.000000e+06, !dbg !3330, !dp.md.instr.id !3331
  %add49 = fadd double %conv46, %div48, !dbg !3332, !dp.md.instr.id !3333
  %tv_sec50 = getelementptr inbounds %struct.timeval, %struct.timeval* %start, i32 0, i32 0, !dbg !3334, !dp.md.instr.id !3335
  %141 = ptrtoint i64* %tv_sec50 to i64
  call void @__dp_read(i32 990, i64 %141, i8* getelementptr inbounds ([16 x i8], [16 x i8]* @.str.120, i32 0, i32 0))
  %142 = load i64, i64* %tv_sec50, align 8, !dbg !3334, !dp.md.instr.id !3336
  %conv51 = sitofp i64 %142 to double, !dbg !3337, !dp.md.instr.id !3338
  %sub = fsub double %add49, %conv51, !dbg !3339, !dp.md.instr.id !3340
  %tv_usec52 = getelementptr inbounds %struct.timeval, %struct.timeval* %start, i32 0, i32 1, !dbg !3341, !dp.md.instr.id !3342
  %143 = ptrtoint i64* %tv_usec52 to i64
  call void @__dp_read(i32 994, i64 %143, i8* getelementptr inbounds ([16 x i8], [16 x i8]* @.str.120, i32 0, i32 0))
  %144 = load i64, i64* %tv_usec52, align 8, !dbg !3341, !dp.md.instr.id !3343
  %conv53 = sitofp i64 %144 to double, !dbg !3344, !dp.md.instr.id !3345
  %div54 = fdiv double %conv53, 1.000000e+06, !dbg !3346, !dp.md.instr.id !3347
  %sub55 = fsub double %sub, %div54, !dbg !3348, !dp.md.instr.id !3349
  %145 = ptrtoint double* %runtime to i64
  store double %sub55, double* %runtime, align 8, !dbg !3318, !dp.md.instr.id !3350
  %146 = ptrtoint i32* %iter to i64
  %147 = load i32, i32* %iter, align 4, !dbg !3351, !dp.md.instr.id !3353
  %cmp56 = icmp slt i32 %147, 100, !dbg !3354, !dp.md.instr.id !3355
  call void @__dp_report_bb(i32 79)
  %148 = load i32, i32* %__dp_bb70, align 4
  call void @__dp_report_bb_pair(i32 %148, i32 102)
  br i1 %cmp56, label %if.then57, label %if.end59, !dbg !3356, !dp.md.instr.id !3357

if.then57:                                        ; preds = %for.end44
  %149 = ptrtoint i32* %iter to i64
  %150 = load i32, i32* %iter, align 4, !dbg !3358, !dp.md.instr.id !3359
  %inc58 = add nsw i32 %150, 1, !dbg !3358, !dp.md.instr.id !3360
  %151 = ptrtoint i32* %iter to i64
  store i32 %inc58, i32* %iter, align 4, !dbg !3358, !dp.md.instr.id !3361
  call void @__dp_report_bb(i32 96)
  %152 = load i32, i32* %__dp_bb70, align 4
  call void @__dp_report_bb_pair(i32 %152, i32 105)
  store i32 1, i32* %__dp_bb78, align 4
  br label %if.end59, !dbg !3362, !dp.md.instr.id !3363

if.end59:                                         ; preds = %if.then57, %for.end44
  %153 = ptrtoint i32* %iter to i64
  %154 = load i32, i32* %iter, align 4, !dbg !3364, !dp.md.instr.id !3365
  call void @__dp_call(i32 49238), !dbg !3366
  call void @__dp_report_bb(i32 97)
  %155 = load i32, i32* %__dp_bb70, align 4
  call void @__dp_report_bb_pair(i32 %155, i32 106)
  %156 = load i32, i32* %__dp_bb78, align 4
  call void @__dp_report_bb_pair(i32 %156, i32 123)
  %call61 = invoke i32 (i8*, ...) @printf(i8* getelementptr inbounds ([22 x i8], [22 x i8]* @.str.29, i64 0, i64 0), i32 %154)
          to label %invoke.cont60 unwind label %lpad, !dbg !3366, !dp.md.instr.id !3367

invoke.cont60:                                    ; preds = %if.end59
  %157 = ptrtoint double* %runtime to i64
  %158 = load double, double* %runtime, align 8, !dbg !3368, !dp.md.instr.id !3369
  %159 = ptrtoint double* %retval to i64
  store double %158, double* %retval, align 8, !dbg !3370, !dp.md.instr.id !3371
  %160 = getelementptr inbounds %"class.std::thread", %"class.std::thread"* %vla, i64 %34, !dbg !3243, !dp.md.instr.id !3372
  %arraydestroy.isempty = icmp eq %"class.std::thread"* %vla, %160, !dbg !3243, !dp.md.instr.id !3373
  call void @__dp_report_bb(i32 98)
  br i1 %arraydestroy.isempty, label %arraydestroy.done62, label %arraydestroy.body, !dbg !3243, !dp.md.instr.id !3374

arraydestroy.body:                                ; preds = %arraydestroy.body, %invoke.cont60
  %arraydestroy.elementPast = phi %"class.std::thread"* [ %160, %invoke.cont60 ], [ %arraydestroy.element, %arraydestroy.body ], !dbg !3243, !dp.md.instr.id !3375
  %arraydestroy.element = getelementptr inbounds %"class.std::thread", %"class.std::thread"* %arraydestroy.elementPast, i64 -1, !dbg !3243, !dp.md.instr.id !3376
  call void @__dp_call(i32 49241), !dbg !3243
  call void @_ZNSt6threadD2Ev(%"class.std::thread"* %arraydestroy.element) #9, !dbg !3243, !dp.md.instr.id !3377
  %arraydestroy.done = icmp eq %"class.std::thread"* %arraydestroy.element, %vla, !dbg !3243, !dp.md.instr.id !3378
  br i1 %arraydestroy.done, label %arraydestroy.done62, label %arraydestroy.body, !dbg !3243, !dp.md.instr.id !3379

arraydestroy.done62:                              ; preds = %arraydestroy.body, %invoke.cont60
  %161 = ptrtoint i8** %saved_stack to i64
  %162 = load i8*, i8** %saved_stack, align 8, !dbg !3243, !dp.md.instr.id !3380
  call void @__dp_call(i32 49241), !dbg !3243
  call void @llvm.stackrestore(i8* %162), !dbg !3243, !dp.md.instr.id !3381
  %163 = ptrtoint double* %retval to i64
  %164 = load double, double* %retval, align 8, !dbg !3243, !dp.md.instr.id !3382
  call void @__dp_report_bb(i32 100)
  call void @__dp_func_exit(i32 49241, i32 0), !dbg !3243
  ret double %164, !dbg !3243, !dp.md.instr.id !3383

arraydestroy.body64:                              ; preds = %arraydestroy.body64, %lpad
  %arraydestroy.elementPast65 = phi %"class.std::thread"* [ %106, %lpad ], [ %arraydestroy.element66, %arraydestroy.body64 ], !dbg !3243, !dp.md.instr.id !3384
  %arraydestroy.element66 = getelementptr inbounds %"class.std::thread", %"class.std::thread"* %arraydestroy.elementPast65, i64 -1, !dbg !3243, !dp.md.instr.id !3385
  call void @__dp_call(i32 49241), !dbg !3243
  call void @_ZNSt6threadD2Ev(%"class.std::thread"* %arraydestroy.element66) #9, !dbg !3243, !dp.md.instr.id !3386
  %arraydestroy.done67 = icmp eq %"class.std::thread"* %arraydestroy.element66, %vla, !dbg !3243, !dp.md.instr.id !3387
  br i1 %arraydestroy.done67, label %arraydestroy.done68, label %arraydestroy.body64, !dbg !3243, !dp.md.instr.id !3388

arraydestroy.done68:                              ; preds = %arraydestroy.body64, %lpad
  br label %eh.resume, !dbg !3243, !dp.md.instr.id !3389

eh.resume:                                        ; preds = %arraydestroy.done68
  %165 = ptrtoint i8** %exn.slot to i64
  %exn = load i8*, i8** %exn.slot, align 8, !dbg !3243, !dp.md.instr.id !3390
  %166 = ptrtoint i32* %ehselector.slot to i64
  %sel = load i32, i32* %ehselector.slot, align 4, !dbg !3243, !dp.md.instr.id !3391
  %lpad.val = insertvalue { i8*, i32 } undef, i8* %exn, 0, !dbg !3243, !dp.md.instr.id !3392
  %lpad.val69 = insertvalue { i8*, i32 } %lpad.val, i32 %sel, 1, !dbg !3243, !dp.md.instr.id !3393
  call void @__dp_report_bb(i32 99)
  resume { i8*, i32 } %lpad.val69, !dbg !3243, !dp.md.instr.id !3394
}

; Function Attrs: argmemonly nounwind willreturn
declare void @llvm.memcpy.p0i8.p0i8.i64(i8* noalias nocapture writeonly, i8* noalias nocapture readonly, i64, i1 immarg) #8

; Function Attrs: noinline nounwind optnone uwtable
define linkonce_odr float @_ZSt4fabsf(float %__x) #5 comdat !dbg !3395 {
entry:
  %__x.addr = alloca float, align 4
  store float %__x, float* %__x.addr, align 4
  call void @llvm.dbg.declare(metadata float* %__x.addr, metadata !3396, metadata !DIExpression()), !dbg !3397
  %0 = load float, float* %__x.addr, align 4, !dbg !3398
  %1 = call float @llvm.fabs.f32(float %0), !dbg !3399
  ret float %1, !dbg !3400
}

; Function Attrs: nounwind readnone speculatable willreturn
declare float @llvm.fabs.f32(float) #1

; Function Attrs: nounwind
declare i8* @llvm.stacksave() #9

; Function Attrs: noinline nounwind optnone uwtable
define linkonce_odr void @_ZNSt6threadC2Ev(%"class.std::thread"* %this) unnamed_addr #5 comdat align 2 !dbg !3401 {
entry:
  %this.addr = alloca %"class.std::thread"*, align 8
  store %"class.std::thread"* %this, %"class.std::thread"** %this.addr, align 8
  call void @llvm.dbg.declare(metadata %"class.std::thread"** %this.addr, metadata !3402, metadata !DIExpression()), !dbg !3404
  %this1 = load %"class.std::thread"*, %"class.std::thread"** %this.addr, align 8
  %_M_id = getelementptr inbounds %"class.std::thread", %"class.std::thread"* %this1, i32 0, i32 0, !dbg !3405
  call void @_ZNSt6thread2idC2Ev(%"class.std::thread::id"* %_M_id) #9, !dbg !3405
  ret void, !dbg !3406
}

; Function Attrs: nounwind
declare i32 @gettimeofday(%struct.timeval*, i8*) #4

; Function Attrs: noinline nounwind optnone uwtable
define internal void @_ZL9errorCalc8ECLgraphRdPfS1_PKifii(%struct.ECLgraph* byval(%struct.ECLgraph) align 8 %g, double* nonnull align 8 dereferenceable(8) %error, float* %outgoing_contrib, float* %scores, i32* %degree, float %base_score, i32 %threadID, i32 %threadCount) #5 !dbg !3407 {
entry:
  call void @__dp_func_entry(i32 49193, i32 0), !dp.md.instr.id !3412
  %__dp_bb39 = alloca i32, align 4
  store i32 0, i32* %__dp_bb39, align 4
  %__dp_bb38 = alloca i32, align 4
  store i32 0, i32* %__dp_bb38, align 4
  %__dp_bb37 = alloca i32, align 4
  store i32 0, i32* %__dp_bb37, align 4
  %__dp_bb36 = alloca i32, align 4
  store i32 0, i32* %__dp_bb36, align 4
  %__dp_bb = alloca i32, align 4
  store i32 0, i32* %__dp_bb, align 4
  %error.addr = alloca double*, align 8, !dp.md.instr.id !3413
  %0 = ptrtoint double** %error.addr to i64, !dp.md.instr.id !3414
  %outgoing_contrib.addr = alloca float*, align 8, !dp.md.instr.id !3415
  %1 = ptrtoint float** %outgoing_contrib.addr to i64, !dp.md.instr.id !3416
  %scores.addr = alloca float*, align 8, !dp.md.instr.id !3417
  %2 = ptrtoint float** %scores.addr to i64, !dp.md.instr.id !3418
  %degree.addr = alloca i32*, align 8, !dp.md.instr.id !3419
  %3 = ptrtoint i32** %degree.addr to i64, !dp.md.instr.id !3420
  %base_score.addr = alloca float, align 4, !dp.md.instr.id !3421
  %4 = ptrtoint float* %base_score.addr to i64, !dp.md.instr.id !3422
  %threadID.addr = alloca i32, align 4, !dp.md.instr.id !3423
  %5 = ptrtoint i32* %threadID.addr to i64, !dp.md.instr.id !3424
  %threadCount.addr = alloca i32, align 4, !dp.md.instr.id !3425
  %6 = ptrtoint i32* %threadCount.addr to i64, !dp.md.instr.id !3426
  %local_error = alloca double, align 8, !dp.md.instr.id !3427
  %7 = ptrtoint double* %local_error to i64, !dp.md.instr.id !3428
  %begNode = alloca i32, align 4, !dp.md.instr.id !3429
  %8 = ptrtoint i32* %begNode to i64, !dp.md.instr.id !3430
  %endNode = alloca i32, align 4, !dp.md.instr.id !3431
  %9 = ptrtoint i32* %endNode to i64, !dp.md.instr.id !3432
  %i = alloca i32, align 4, !dp.md.instr.id !3433
  %10 = ptrtoint i32* %i to i64, !dp.md.instr.id !3434
  %incoming_total = alloca float, align 4, !dp.md.instr.id !3435
  %11 = ptrtoint float* %incoming_total to i64, !dp.md.instr.id !3436
  %j = alloca i32, align 4, !dp.md.instr.id !3437
  %12 = ptrtoint i32* %j to i64, !dp.md.instr.id !3438
  %nei = alloca i32, align 4, !dp.md.instr.id !3439
  %13 = ptrtoint i32* %nei to i64, !dp.md.instr.id !3440
  %old_score = alloca float, align 4, !dp.md.instr.id !3441
  %14 = ptrtoint float* %old_score to i64, !dbg !3442, !dp.md.instr.id !3443
  call void @llvm.dbg.declare(metadata %struct.ECLgraph* %g, metadata !3444, metadata !DIExpression()), !dbg !3442, !dp.md.instr.id !3445
  %15 = ptrtoint double** %error.addr to i64
  store double* %error, double** %error.addr, align 8, !dp.md.instr.id !3446
  call void @llvm.dbg.declare(metadata double** %error.addr, metadata !3447, metadata !DIExpression()), !dbg !3448, !dp.md.instr.id !3449
  %16 = ptrtoint float** %outgoing_contrib.addr to i64
  store float* %outgoing_contrib, float** %outgoing_contrib.addr, align 8, !dp.md.instr.id !3450
  call void @llvm.dbg.declare(metadata float** %outgoing_contrib.addr, metadata !3451, metadata !DIExpression()), !dbg !3452, !dp.md.instr.id !3453
  %17 = ptrtoint float** %scores.addr to i64
  store float* %scores, float** %scores.addr, align 8, !dp.md.instr.id !3454
  call void @llvm.dbg.declare(metadata float** %scores.addr, metadata !3455, metadata !DIExpression()), !dbg !3456, !dp.md.instr.id !3457
  %18 = ptrtoint i32** %degree.addr to i64
  store i32* %degree, i32** %degree.addr, align 8, !dp.md.instr.id !3458
  call void @llvm.dbg.declare(metadata i32** %degree.addr, metadata !3459, metadata !DIExpression()), !dbg !3460, !dp.md.instr.id !3461
  %19 = ptrtoint float* %base_score.addr to i64
  store float %base_score, float* %base_score.addr, align 4, !dp.md.instr.id !3462
  call void @llvm.dbg.declare(metadata float* %base_score.addr, metadata !3463, metadata !DIExpression()), !dbg !3464, !dp.md.instr.id !3465
  %20 = ptrtoint i32* %threadID.addr to i64
  store i32 %threadID, i32* %threadID.addr, align 4, !dp.md.instr.id !3466
  call void @llvm.dbg.declare(metadata i32* %threadID.addr, metadata !3467, metadata !DIExpression()), !dbg !3468, !dp.md.instr.id !3469
  %21 = ptrtoint i32* %threadCount.addr to i64
  store i32 %threadCount, i32* %threadCount.addr, align 4, !dp.md.instr.id !3470
  call void @llvm.dbg.declare(metadata i32* %threadCount.addr, metadata !3471, metadata !DIExpression()), !dbg !3472, !dp.md.instr.id !3473
  call void @llvm.dbg.declare(metadata double* %local_error, metadata !3474, metadata !DIExpression()), !dbg !3475, !dp.md.instr.id !3476
  %22 = ptrtoint double* %local_error to i64
  store double 0.000000e+00, double* %local_error, align 8, !dbg !3475, !dp.md.instr.id !3477
  call void @llvm.dbg.declare(metadata i32* %begNode, metadata !3478, metadata !DIExpression()), !dbg !3479, !dp.md.instr.id !3480
  %23 = ptrtoint i32* %threadID.addr to i64
  %24 = load i32, i32* %threadID.addr, align 4, !dbg !3481, !dp.md.instr.id !3482
  %conv = sext i32 %24 to i64, !dbg !3481, !dp.md.instr.id !3483
  %nodes = getelementptr inbounds %struct.ECLgraph, %struct.ECLgraph* %g, i32 0, i32 0, !dbg !3484, !dp.md.instr.id !3485
  %25 = ptrtoint i32* %nodes to i64
  call void @__dp_read(i32 1100, i64 %25, i8* getelementptr inbounds ([12 x i8], [12 x i8]* @.str.36, i32 0, i32 0))
  %26 = load i32, i32* %nodes, align 8, !dbg !3484, !dp.md.instr.id !3486
  %conv1 = sext i32 %26 to i64, !dbg !3487, !dp.md.instr.id !3488
  %mul = mul nsw i64 %conv, %conv1, !dbg !3489, !dp.md.instr.id !3490
  %27 = ptrtoint i32* %threadCount.addr to i64
  %28 = load i32, i32* %threadCount.addr, align 4, !dbg !3491, !dp.md.instr.id !3492
  %conv2 = sext i32 %28 to i64, !dbg !3491, !dp.md.instr.id !3493
  %div = sdiv i64 %mul, %conv2, !dbg !3494, !dp.md.instr.id !3495
  %conv3 = trunc i64 %div to i32, !dbg !3481, !dp.md.instr.id !3496
  %29 = ptrtoint i32* %begNode to i64
  store i32 %conv3, i32* %begNode, align 4, !dbg !3479, !dp.md.instr.id !3497
  call void @llvm.dbg.declare(metadata i32* %endNode, metadata !3498, metadata !DIExpression()), !dbg !3499, !dp.md.instr.id !3500
  %30 = ptrtoint i32* %threadID.addr to i64
  %31 = load i32, i32* %threadID.addr, align 4, !dbg !3501, !dp.md.instr.id !3502
  %add = add nsw i32 %31, 1, !dbg !3503, !dp.md.instr.id !3504
  %conv4 = sext i32 %add to i64, !dbg !3505, !dp.md.instr.id !3506
  %nodes5 = getelementptr inbounds %struct.ECLgraph, %struct.ECLgraph* %g, i32 0, i32 0, !dbg !3507, !dp.md.instr.id !3508
  %32 = ptrtoint i32* %nodes5 to i64
  call void @__dp_read(i32 1113, i64 %32, i8* getelementptr inbounds ([12 x i8], [12 x i8]* @.str.36, i32 0, i32 0))
  %33 = load i32, i32* %nodes5, align 8, !dbg !3507, !dp.md.instr.id !3509
  %conv6 = sext i32 %33 to i64, !dbg !3510, !dp.md.instr.id !3511
  %mul7 = mul nsw i64 %conv4, %conv6, !dbg !3512, !dp.md.instr.id !3513
  %34 = ptrtoint i32* %threadCount.addr to i64
  %35 = load i32, i32* %threadCount.addr, align 4, !dbg !3514, !dp.md.instr.id !3515
  %conv8 = sext i32 %35 to i64, !dbg !3514, !dp.md.instr.id !3516
  %div9 = sdiv i64 %mul7, %conv8, !dbg !3517, !dp.md.instr.id !3518
  %conv10 = trunc i64 %div9 to i32, !dbg !3505, !dp.md.instr.id !3519
  %36 = ptrtoint i32* %endNode to i64
  store i32 %conv10, i32* %endNode, align 4, !dbg !3499, !dp.md.instr.id !3520
  call void @llvm.dbg.declare(metadata i32* %i, metadata !3521, metadata !DIExpression()), !dbg !3523, !dp.md.instr.id !3524
  %37 = ptrtoint i32* %begNode to i64
  %38 = load i32, i32* %begNode, align 4, !dbg !3525, !dp.md.instr.id !3526
  %39 = ptrtoint i32* %i to i64
  store i32 %38, i32* %i, align 4, !dbg !3523, !dp.md.instr.id !3527
  call void @__dp_report_bb(i32 124)
  br label %for.cond, !dbg !3528, !dp.md.instr.id !3529

for.cond:                                         ; preds = %for.inc33, %entry
  call void @__dp_loop_entry(i32 49198, i32 9), !dp.md.instr.id !3530
  %40 = ptrtoint i32* %i to i64
  %41 = load i32, i32* %i, align 4, !dbg !3531, !dp.md.instr.id !3533
  %42 = ptrtoint i32* %endNode to i64
  %43 = load i32, i32* %endNode, align 4, !dbg !3534, !dp.md.instr.id !3535
  %cmp = icmp slt i32 %41, %43, !dbg !3536, !dp.md.instr.id !3537
  call void @__dp_report_bb(i32 126)
  %44 = load i32, i32* %__dp_bb, align 4
  call void @__dp_report_bb_pair(i32 %44, i32 133)
  br i1 %cmp, label %for.body, label %for.end35, !dbg !3538, !dp.md.instr.id !3539

for.body:                                         ; preds = %for.cond
  call void @__dp_loop_incr(i32 10)
  call void @llvm.dbg.declare(metadata float* %incoming_total, metadata !3540, metadata !DIExpression()), !dbg !3542, !dp.md.instr.id !3543
  %45 = ptrtoint float* %incoming_total to i64
  store float 0.000000e+00, float* %incoming_total, align 4, !dbg !3542, !dp.md.instr.id !3544
  call void @llvm.dbg.declare(metadata i32* %j, metadata !3545, metadata !DIExpression()), !dbg !3547, !dp.md.instr.id !3548
  %nindex = getelementptr inbounds %struct.ECLgraph, %struct.ECLgraph* %g, i32 0, i32 2, !dbg !3549, !dp.md.instr.id !3550
  %46 = ptrtoint i32** %nindex to i64
  call void @__dp_read(i32 1134, i64 %46, i8* getelementptr inbounds ([12 x i8], [12 x i8]* @.str.36, i32 0, i32 0))
  %47 = load i32*, i32** %nindex, align 8, !dbg !3549, !dp.md.instr.id !3551
  %48 = ptrtoint i32* %i to i64
  %49 = load i32, i32* %i, align 4, !dbg !3552, !dp.md.instr.id !3553
  %idxprom = sext i32 %49 to i64, !dbg !3554, !dp.md.instr.id !3555
  %arrayidx = getelementptr inbounds i32, i32* %47, i64 %idxprom, !dbg !3554, !dp.md.instr.id !3556
  %50 = ptrtoint i32* %arrayidx to i64
  call void @__dp_read(i32 1138, i64 %50, i8* getelementptr inbounds ([22 x i8], [22 x i8]* @.str.99, i32 0, i32 0))
  %51 = load i32, i32* %arrayidx, align 4, !dbg !3554, !dp.md.instr.id !3557
  %52 = ptrtoint i32* %j to i64
  store i32 %51, i32* %j, align 4, !dbg !3547, !dp.md.instr.id !3558
  call void @__dp_report_bb(i32 128)
  %53 = load i32, i32* %__dp_bb, align 4
  call void @__dp_report_bb_pair(i32 %53, i32 135)
  %54 = load i32, i32* %__dp_bb36, align 4
  call void @__dp_report_bb_pair(i32 %54, i32 139)
  %55 = load i32, i32* %__dp_bb37, align 4
  call void @__dp_report_bb_pair(i32 %55, i32 141)
  br label %for.cond11, !dbg !3559, !dp.md.instr.id !3560

for.cond11:                                       ; preds = %for.inc, %for.body
  call void @__dp_loop_entry(i32 49200, i32 10), !dp.md.instr.id !3561
  %56 = ptrtoint i32* %j to i64
  %57 = load i32, i32* %j, align 4, !dbg !3562, !dp.md.instr.id !3564
  %nindex12 = getelementptr inbounds %struct.ECLgraph, %struct.ECLgraph* %g, i32 0, i32 2, !dbg !3565, !dp.md.instr.id !3566
  %58 = ptrtoint i32** %nindex12 to i64
  call void @__dp_read(i32 1144, i64 %58, i8* getelementptr inbounds ([12 x i8], [12 x i8]* @.str.36, i32 0, i32 0))
  %59 = load i32*, i32** %nindex12, align 8, !dbg !3565, !dp.md.instr.id !3567
  %60 = ptrtoint i32* %i to i64
  %61 = load i32, i32* %i, align 4, !dbg !3568, !dp.md.instr.id !3569
  %add13 = add nsw i32 %61, 1, !dbg !3570, !dp.md.instr.id !3571
  %idxprom14 = sext i32 %add13 to i64, !dbg !3572, !dp.md.instr.id !3573
  %arrayidx15 = getelementptr inbounds i32, i32* %59, i64 %idxprom14, !dbg !3572, !dp.md.instr.id !3574
  %62 = ptrtoint i32* %arrayidx15 to i64
  call void @__dp_read(i32 1149, i64 %62, i8* getelementptr inbounds ([22 x i8], [22 x i8]* @.str.99, i32 0, i32 0))
  %63 = load i32, i32* %arrayidx15, align 4, !dbg !3572, !dp.md.instr.id !3575
  %cmp16 = icmp slt i32 %57, %63, !dbg !3576, !dp.md.instr.id !3577
  call void @__dp_report_bb(i32 130)
  %64 = load i32, i32* %__dp_bb, align 4
  call void @__dp_report_bb_pair(i32 %64, i32 137)
  store i32 1, i32* %__dp_bb37, align 4
  %65 = load i32, i32* %__dp_bb38, align 4
  call void @__dp_report_bb_pair(i32 %65, i32 142)
  br i1 %cmp16, label %for.body17, label %for.end, !dbg !3578, !dp.md.instr.id !3579

for.body17:                                       ; preds = %for.cond11
  call void @__dp_loop_incr(i32 11)
  call void @llvm.dbg.declare(metadata i32* %nei, metadata !3580, metadata !DIExpression()), !dbg !3582, !dp.md.instr.id !3583
  %nlist = getelementptr inbounds %struct.ECLgraph, %struct.ECLgraph* %g, i32 0, i32 3, !dbg !3584, !dp.md.instr.id !3585
  %66 = ptrtoint i32** %nlist to i64
  call void @__dp_read(i32 1154, i64 %66, i8* getelementptr inbounds ([12 x i8], [12 x i8]* @.str.36, i32 0, i32 0))
  %67 = load i32*, i32** %nlist, align 8, !dbg !3584, !dp.md.instr.id !3586
  %68 = ptrtoint i32* %j to i64
  %69 = load i32, i32* %j, align 4, !dbg !3587, !dp.md.instr.id !3588
  %idxprom18 = sext i32 %69 to i64, !dbg !3589, !dp.md.instr.id !3590
  %arrayidx19 = getelementptr inbounds i32, i32* %67, i64 %idxprom18, !dbg !3589, !dp.md.instr.id !3591
  %70 = ptrtoint i32* %arrayidx19 to i64
  call void @__dp_read(i32 1158, i64 %70, i8* getelementptr inbounds ([22 x i8], [22 x i8]* @.str.99, i32 0, i32 0))
  %71 = load i32, i32* %arrayidx19, align 4, !dbg !3589, !dp.md.instr.id !3592
  %72 = ptrtoint i32* %nei to i64
  store i32 %71, i32* %nei, align 4, !dbg !3582, !dp.md.instr.id !3593
  %73 = ptrtoint float** %outgoing_contrib.addr to i64
  %74 = load float*, float** %outgoing_contrib.addr, align 8, !dbg !3594, !dp.md.instr.id !3595
  %75 = ptrtoint i32* %nei to i64
  %76 = load i32, i32* %nei, align 4, !dbg !3596, !dp.md.instr.id !3597
  %idxprom20 = sext i32 %76 to i64, !dbg !3594, !dp.md.instr.id !3598
  %arrayidx21 = getelementptr inbounds float, float* %74, i64 %idxprom20, !dbg !3594, !dp.md.instr.id !3599
  %77 = ptrtoint float* %arrayidx21 to i64
  call void @__dp_read(i32 1164, i64 %77, i8* getelementptr inbounds ([27 x i8], [27 x i8]* @.str.116, i32 0, i32 0))
  %78 = load float, float* %arrayidx21, align 4, !dbg !3594, !dp.md.instr.id !3600
  %79 = ptrtoint float* %incoming_total to i64
  %80 = load float, float* %incoming_total, align 4, !dbg !3601, !dp.md.instr.id !3602
  %add22 = fadd float %80, %78, !dbg !3601, !dp.md.instr.id !3603
  %81 = ptrtoint float* %incoming_total to i64
  store float %add22, float* %incoming_total, align 4, !dbg !3601, !dp.md.instr.id !3604
  call void @__dp_report_bb(i32 132)
  %82 = load i32, i32* %__dp_bb38, align 4
  call void @__dp_report_bb_pair(i32 %82, i32 144)
  %83 = load i32, i32* %__dp_bb39, align 4
  call void @__dp_report_bb_pair(i32 %83, i32 146)
  store i32 1, i32* %__dp_bb39, align 4
  br label %for.inc, !dbg !3605, !dp.md.instr.id !3606

for.inc:                                          ; preds = %for.body17
  %84 = ptrtoint i32* %j to i64
  %85 = load i32, i32* %j, align 4, !dbg !3607, !dp.md.instr.id !3608
  %inc = add nsw i32 %85, 1, !dbg !3607, !dp.md.instr.id !3609
  %86 = ptrtoint i32* %j to i64
  store i32 %inc, i32* %j, align 4, !dbg !3607, !dp.md.instr.id !3610
  call void @__dp_report_bb(i32 131)
  %87 = load i32, i32* %__dp_bb38, align 4
  call void @__dp_report_bb_pair(i32 %87, i32 143)
  store i32 1, i32* %__dp_bb38, align 4
  br label %for.cond11, !dbg !3611, !llvm.loop !3612, !dp.md.instr.id !3614

for.end:                                          ; preds = %for.cond11
  call void @__dp_loop_exit(i32 49204, i32 10), !dp.md.instr.id !3615
  call void @llvm.dbg.declare(metadata float* %old_score, metadata !3616, metadata !DIExpression()), !dbg !3617, !dp.md.instr.id !3618
  %88 = ptrtoint float** %scores.addr to i64
  %89 = load float*, float** %scores.addr, align 8, !dbg !3619, !dp.md.instr.id !3620
  %90 = ptrtoint i32* %i to i64
  %91 = load i32, i32* %i, align 4, !dbg !3621, !dp.md.instr.id !3622
  %idxprom23 = sext i32 %91 to i64, !dbg !3619, !dp.md.instr.id !3623
  %arrayidx24 = getelementptr inbounds float, float* %89, i64 %idxprom23, !dbg !3619, !dp.md.instr.id !3624
  %92 = ptrtoint float* %arrayidx24 to i64
  call void @__dp_read(i32 1179, i64 %92, i8* getelementptr inbounds ([17 x i8], [17 x i8]* @.str.102, i32 0, i32 0))
  %93 = load float, float* %arrayidx24, align 4, !dbg !3619, !dp.md.instr.id !3625
  %94 = ptrtoint float* %old_score to i64
  store float %93, float* %old_score, align 4, !dbg !3617, !dp.md.instr.id !3626
  %95 = ptrtoint float* %base_score.addr to i64
  %96 = load float, float* %base_score.addr, align 4, !dbg !3627, !dp.md.instr.id !3628
  %97 = ptrtoint float* %incoming_total to i64
  %98 = load float, float* %incoming_total, align 4, !dbg !3629, !dp.md.instr.id !3630
  %mul25 = fmul float 0x3FEB333340000000, %98, !dbg !3631, !dp.md.instr.id !3632
  %add26 = fadd float %96, %mul25, !dbg !3633, !dp.md.instr.id !3634
  %99 = ptrtoint float** %scores.addr to i64
  %100 = load float*, float** %scores.addr, align 8, !dbg !3635, !dp.md.instr.id !3636
  %101 = ptrtoint i32* %i to i64
  %102 = load i32, i32* %i, align 4, !dbg !3637, !dp.md.instr.id !3638
  %idxprom27 = sext i32 %102 to i64, !dbg !3635, !dp.md.instr.id !3639
  %arrayidx28 = getelementptr inbounds float, float* %100, i64 %idxprom27, !dbg !3635, !dp.md.instr.id !3640
  %103 = ptrtoint float* %arrayidx28 to i64
  call void @__dp_write(i32 1189, i64 %103, i8* getelementptr inbounds ([17 x i8], [17 x i8]* @.str.102, i32 0, i32 0))
  store float %add26, float* %arrayidx28, align 4, !dbg !3641, !dp.md.instr.id !3642
  %104 = ptrtoint float** %scores.addr to i64
  %105 = load float*, float** %scores.addr, align 8, !dbg !3643, !dp.md.instr.id !3644
  %106 = ptrtoint i32* %i to i64
  %107 = load i32, i32* %i, align 4, !dbg !3645, !dp.md.instr.id !3646
  %idxprom29 = sext i32 %107 to i64, !dbg !3643, !dp.md.instr.id !3647
  %arrayidx30 = getelementptr inbounds float, float* %105, i64 %idxprom29, !dbg !3643, !dp.md.instr.id !3648
  %108 = ptrtoint float* %arrayidx30 to i64
  call void @__dp_read(i32 1194, i64 %108, i8* getelementptr inbounds ([17 x i8], [17 x i8]* @.str.102, i32 0, i32 0))
  %109 = load float, float* %arrayidx30, align 4, !dbg !3643, !dp.md.instr.id !3649
  %110 = ptrtoint float* %old_score to i64
  %111 = load float, float* %old_score, align 4, !dbg !3650, !dp.md.instr.id !3651
  %sub = fsub float %109, %111, !dbg !3652, !dp.md.instr.id !3653
  call void @__dp_call(i32 49206), !dbg !3654
  %call = call float @_ZSt4fabsf(float %sub), !dbg !3654, !dp.md.instr.id !3655
  %conv31 = fpext float %call to double, !dbg !3654, !dp.md.instr.id !3656
  %112 = ptrtoint double* %local_error to i64
  %113 = load double, double* %local_error, align 8, !dbg !3657, !dp.md.instr.id !3658
  %add32 = fadd double %113, %conv31, !dbg !3657, !dp.md.instr.id !3659
  %114 = ptrtoint double* %local_error to i64
  store double %add32, double* %local_error, align 8, !dbg !3657, !dp.md.instr.id !3660
  call void @__dp_report_bb(i32 129)
  %115 = load i32, i32* %__dp_bb, align 4
  call void @__dp_report_bb_pair(i32 %115, i32 136)
  %116 = load i32, i32* %__dp_bb36, align 4
  call void @__dp_report_bb_pair(i32 %116, i32 140)
  store i32 1, i32* %__dp_bb36, align 4
  %117 = load i32, i32* %__dp_bb39, align 4
  call void @__dp_report_bb_pair(i32 %117, i32 145)
  br label %for.inc33, !dbg !3661, !dp.md.instr.id !3662

for.inc33:                                        ; preds = %for.end
  %118 = ptrtoint i32* %i to i64
  %119 = load i32, i32* %i, align 4, !dbg !3663, !dp.md.instr.id !3664
  %inc34 = add nsw i32 %119, 1, !dbg !3663, !dp.md.instr.id !3665
  %120 = ptrtoint i32* %i to i64
  store i32 %inc34, i32* %i, align 4, !dbg !3663, !dp.md.instr.id !3666
  call void @__dp_report_bb(i32 127)
  %121 = load i32, i32* %__dp_bb, align 4
  call void @__dp_report_bb_pair(i32 %121, i32 134)
  store i32 1, i32* %__dp_bb, align 4
  br label %for.cond, !dbg !3667, !llvm.loop !3668, !dp.md.instr.id !3670

for.end35:                                        ; preds = %for.cond
  call void @__dp_loop_exit(i32 49208, i32 9), !dp.md.instr.id !3671
  %122 = ptrtoint double* %local_error to i64
  %123 = load double, double* %local_error, align 8, !dbg !3672, !dp.md.instr.id !3673
  %124 = ptrtoint double** %error.addr to i64
  %125 = load double*, double** %error.addr, align 8, !dbg !3674, !dp.md.instr.id !3675
  %126 = ptrtoint double* %125 to i64
  call void @__dp_write(i32 1210, i64 %126, i8* getelementptr inbounds ([6 x i8], [6 x i8]* @.str.94, i32 0, i32 0))
  store double %123, double* %125, align 8, !dbg !3676, !dp.md.instr.id !3677
  call void @__dp_report_bb(i32 125)
  %127 = load i32, i32* %__dp_bb36, align 4
  call void @__dp_report_bb_pair(i32 %127, i32 138)
  call void @__dp_func_exit(i32 49209, i32 0), !dbg !3678
  ret void, !dbg !3678, !dp.md.instr.id !3679
}

; Function Attrs: noinline nounwind optnone uwtable
define linkonce_odr double* @_ZSt3refIdESt17reference_wrapperIT_ERS1_(double* nonnull align 8 dereferenceable(8) %__t) #5 comdat !dbg !3680 {
entry:
  %retval = alloca %"class.std::reference_wrapper", align 8
  %__t.addr = alloca double*, align 8
  store double* %__t, double** %__t.addr, align 8
  call void @llvm.dbg.declare(metadata double** %__t.addr, metadata !3683, metadata !DIExpression()), !dbg !3684
  %0 = load double*, double** %__t.addr, align 8, !dbg !3685
  call void @_ZNSt17reference_wrapperIdEC2IRdvPdEEOT_(%"class.std::reference_wrapper"* %retval, double* nonnull align 8 dereferenceable(8) %0) #9, !dbg !3686
  %coerce.dive = getelementptr inbounds %"class.std::reference_wrapper", %"class.std::reference_wrapper"* %retval, i32 0, i32 0, !dbg !3687
  %1 = load double*, double** %coerce.dive, align 8, !dbg !3687
  ret double* %1, !dbg !3687
}

; Function Attrs: noinline optnone uwtable
define linkonce_odr void @_ZNSt6threadC2IRFv8ECLgraphRdPfS3_PKifiiEJRKS1_St17reference_wrapperIdERS3_SC_RPiRKfRiRS4_EvEEOT_DpOT0_(%"class.std::thread"* %this, void (%struct.ECLgraph*, double*, float*, float*, i32*, float, i32, i32)* nonnull %__f, %struct.ECLgraph* nonnull align 8 dereferenceable(32) %__args, %"class.std::reference_wrapper"* nonnull align 8 dereferenceable(8) %__args1, float** nonnull align 8 dereferenceable(8) %__args3, float** nonnull align 8 dereferenceable(8) %__args5, i32** nonnull align 8 dereferenceable(8) %__args7, float* nonnull align 4 dereferenceable(4) %__args9, i32* nonnull align 4 dereferenceable(4) %__args11, i32* nonnull align 4 dereferenceable(4) %__args13) unnamed_addr #0 comdat align 2 personality i8* bitcast (i32 (...)* @__gxx_personality_v0 to i8*) !dbg !3688 {
entry:
  %this.addr = alloca %"class.std::thread"*, align 8
  %__f.addr = alloca void (%struct.ECLgraph*, double*, float*, float*, i32*, float, i32, i32)*, align 8
  %__args.addr = alloca %struct.ECLgraph*, align 8
  %__args.addr2 = alloca %"class.std::reference_wrapper"*, align 8
  %__args.addr4 = alloca float**, align 8
  %__args.addr6 = alloca float**, align 8
  %__args.addr8 = alloca i32**, align 8
  %__args.addr10 = alloca float*, align 8
  %__args.addr12 = alloca i32*, align 8
  %__args.addr14 = alloca i32*, align 8
  %__depend = alloca i8*, align 8
  %agg.tmp = alloca %"class.std::unique_ptr", align 8
  %exn.slot = alloca i8*, align 8
  %ehselector.slot = alloca i32, align 4
  store %"class.std::thread"* %this, %"class.std::thread"** %this.addr, align 8
  call void @llvm.dbg.declare(metadata %"class.std::thread"** %this.addr, metadata !3708, metadata !DIExpression()), !dbg !3709
  store void (%struct.ECLgraph*, double*, float*, float*, i32*, float, i32, i32)* %__f, void (%struct.ECLgraph*, double*, float*, float*, i32*, float, i32, i32)** %__f.addr, align 8
  call void @llvm.dbg.declare(metadata void (%struct.ECLgraph*, double*, float*, float*, i32*, float, i32, i32)** %__f.addr, metadata !3710, metadata !DIExpression()), !dbg !3711
  store %struct.ECLgraph* %__args, %struct.ECLgraph** %__args.addr, align 8
  call void @llvm.dbg.declare(metadata %struct.ECLgraph** %__args.addr, metadata !3712, metadata !DIExpression()), !dbg !3713
  store %"class.std::reference_wrapper"* %__args1, %"class.std::reference_wrapper"** %__args.addr2, align 8
  call void @llvm.dbg.declare(metadata %"class.std::reference_wrapper"** %__args.addr2, metadata !3714, metadata !DIExpression()), !dbg !3713
  store float** %__args3, float*** %__args.addr4, align 8
  call void @llvm.dbg.declare(metadata float*** %__args.addr4, metadata !3715, metadata !DIExpression()), !dbg !3713
  store float** %__args5, float*** %__args.addr6, align 8
  call void @llvm.dbg.declare(metadata float*** %__args.addr6, metadata !3716, metadata !DIExpression()), !dbg !3713
  store i32** %__args7, i32*** %__args.addr8, align 8
  call void @llvm.dbg.declare(metadata i32*** %__args.addr8, metadata !3717, metadata !DIExpression()), !dbg !3713
  store float* %__args9, float** %__args.addr10, align 8
  call void @llvm.dbg.declare(metadata float** %__args.addr10, metadata !3718, metadata !DIExpression()), !dbg !3713
  store i32* %__args11, i32** %__args.addr12, align 8
  call void @llvm.dbg.declare(metadata i32** %__args.addr12, metadata !3719, metadata !DIExpression()), !dbg !3713
  store i32* %__args13, i32** %__args.addr14, align 8
  call void @llvm.dbg.declare(metadata i32** %__args.addr14, metadata !3720, metadata !DIExpression()), !dbg !3713
  %this15 = load %"class.std::thread"*, %"class.std::thread"** %this.addr, align 8
  %_M_id = getelementptr inbounds %"class.std::thread", %"class.std::thread"* %this15, i32 0, i32 0, !dbg !3721
  call void @_ZNSt6thread2idC2Ev(%"class.std::thread::id"* %_M_id) #9, !dbg !3721
  call void @llvm.dbg.declare(metadata i8** %__depend, metadata !3722, metadata !DIExpression()), !dbg !3724
  store i8* null, i8** %__depend, align 8, !dbg !3724
  %call = call noalias nonnull i8* @_Znwm(i64 96) #15, !dbg !3725, !heapallocsite !3726
  %0 = bitcast i8* %call to %"struct.std::thread::_State_impl"*, !dbg !3725
  %1 = load void (%struct.ECLgraph*, double*, float*, float*, i32*, float, i32, i32)*, void (%struct.ECLgraph*, double*, float*, float*, i32*, float, i32, i32)** %__f.addr, align 8, !dbg !4468
  %call16 = call nonnull void (%struct.ECLgraph*, double*, float*, float*, i32*, float, i32, i32)* @_ZSt7forwardIRFv8ECLgraphRdPfS2_PKifiiEEOT_RNSt16remove_referenceIS7_E4typeE(void (%struct.ECLgraph*, double*, float*, float*, i32*, float, i32, i32)* nonnull %1) #9, !dbg !4469
  %2 = load %struct.ECLgraph*, %struct.ECLgraph** %__args.addr, align 8, !dbg !4470
  %call17 = call nonnull align 8 dereferenceable(32) %struct.ECLgraph* @_ZSt7forwardIRK8ECLgraphEOT_RNSt16remove_referenceIS3_E4typeE(%struct.ECLgraph* nonnull align 8 dereferenceable(32) %2) #9, !dbg !4471
  %3 = load %"class.std::reference_wrapper"*, %"class.std::reference_wrapper"** %__args.addr2, align 8, !dbg !4470
  %call18 = call nonnull align 8 dereferenceable(8) %"class.std::reference_wrapper"* @_ZSt7forwardISt17reference_wrapperIdEEOT_RNSt16remove_referenceIS2_E4typeE(%"class.std::reference_wrapper"* nonnull align 8 dereferenceable(8) %3) #9, !dbg !4471
  %4 = load float**, float*** %__args.addr4, align 8, !dbg !4470
  %call19 = call nonnull align 8 dereferenceable(8) float** @_ZSt7forwardIRPfEOT_RNSt16remove_referenceIS2_E4typeE(float** nonnull align 8 dereferenceable(8) %4) #9, !dbg !4471
  %5 = load float**, float*** %__args.addr6, align 8, !dbg !4470
  %call20 = call nonnull align 8 dereferenceable(8) float** @_ZSt7forwardIRPfEOT_RNSt16remove_referenceIS2_E4typeE(float** nonnull align 8 dereferenceable(8) %5) #9, !dbg !4471
  %6 = load i32**, i32*** %__args.addr8, align 8, !dbg !4470
  %call21 = call nonnull align 8 dereferenceable(8) i32** @_ZSt7forwardIRPiEOT_RNSt16remove_referenceIS2_E4typeE(i32** nonnull align 8 dereferenceable(8) %6) #9, !dbg !4471
  %7 = load float*, float** %__args.addr10, align 8, !dbg !4470
  %call22 = call nonnull align 4 dereferenceable(4) float* @_ZSt7forwardIRKfEOT_RNSt16remove_referenceIS2_E4typeE(float* nonnull align 4 dereferenceable(4) %7) #9, !dbg !4471
  %8 = load i32*, i32** %__args.addr12, align 8, !dbg !4470
  %call23 = call nonnull align 4 dereferenceable(4) i32* @_ZSt7forwardIRiEOT_RNSt16remove_referenceIS1_E4typeE(i32* nonnull align 4 dereferenceable(4) %8) #9, !dbg !4471
  %9 = load i32*, i32** %__args.addr14, align 8, !dbg !4470
  %call24 = call nonnull align 4 dereferenceable(4) i32* @_ZSt7forwardIRKiEOT_RNSt16remove_referenceIS2_E4typeE(i32* nonnull align 4 dereferenceable(4) %9) #9, !dbg !4471
  invoke void @_ZNSt6thread11_State_implINS_8_InvokerISt5tupleIJPFv8ECLgraphRdPfS5_PKifiiES3_St17reference_wrapperIdES5_S5_PifiiEEEEEC2IJRS8_RKS3_SB_RS5_SK_RSC_RKfRiRS6_EEEDpOT_(%"struct.std::thread::_State_impl"* %0, void (%struct.ECLgraph*, double*, float*, float*, i32*, float, i32, i32)* nonnull %call16, %struct.ECLgraph* nonnull align 8 dereferenceable(32) %call17, %"class.std::reference_wrapper"* nonnull align 8 dereferenceable(8) %call18, float** nonnull align 8 dereferenceable(8) %call19, float** nonnull align 8 dereferenceable(8) %call20, i32** nonnull align 8 dereferenceable(8) %call21, float* nonnull align 4 dereferenceable(4) %call22, i32* nonnull align 4 dereferenceable(4) %call23, i32* nonnull align 4 dereferenceable(4) %call24)
          to label %invoke.cont unwind label %lpad, !dbg !4472

invoke.cont:                                      ; preds = %entry
  %10 = bitcast %"struct.std::thread::_State_impl"* %0 to %"struct.std::thread::_State"*, !dbg !3725
  call void @_ZNSt10unique_ptrINSt6thread6_StateESt14default_deleteIS1_EEC2IS3_vEEPS1_(%"class.std::unique_ptr"* %agg.tmp, %"struct.std::thread::_State"* %10) #9, !dbg !4473
  invoke void @_ZNSt6thread15_M_start_threadESt10unique_ptrINS_6_StateESt14default_deleteIS1_EEPFvvE(%"class.std::thread"* %this15, %"class.std::unique_ptr"* %agg.tmp, void ()* null)
          to label %invoke.cont26 unwind label %lpad25, !dbg !4474

invoke.cont26:                                    ; preds = %invoke.cont
  call void @_ZNSt10unique_ptrINSt6thread6_StateESt14default_deleteIS1_EED2Ev(%"class.std::unique_ptr"* %agg.tmp) #9, !dbg !4474
  ret void, !dbg !4475

lpad:                                             ; preds = %entry
  %11 = landingpad { i8*, i32 }
          cleanup, !dbg !4476
  %12 = extractvalue { i8*, i32 } %11, 0, !dbg !4476
  store i8* %12, i8** %exn.slot, align 8, !dbg !4476
  %13 = extractvalue { i8*, i32 } %11, 1, !dbg !4476
  store i32 %13, i32* %ehselector.slot, align 4, !dbg !4476
  call void @_ZdlPv(i8* %call) #16, !dbg !3725
  br label %eh.resume, !dbg !3725

lpad25:                                           ; preds = %invoke.cont
  %14 = landingpad { i8*, i32 }
          cleanup, !dbg !4476
  %15 = extractvalue { i8*, i32 } %14, 0, !dbg !4476
  store i8* %15, i8** %exn.slot, align 8, !dbg !4476
  %16 = extractvalue { i8*, i32 } %14, 1, !dbg !4476
  store i32 %16, i32* %ehselector.slot, align 4, !dbg !4476
  call void @_ZNSt10unique_ptrINSt6thread6_StateESt14default_deleteIS1_EED2Ev(%"class.std::unique_ptr"* %agg.tmp) #9, !dbg !4474
  br label %eh.resume, !dbg !4474

eh.resume:                                        ; preds = %lpad25, %lpad
  %exn = load i8*, i8** %exn.slot, align 8, !dbg !3725
  %sel = load i32, i32* %ehselector.slot, align 4, !dbg !3725
  %lpad.val = insertvalue { i8*, i32 } undef, i8* %exn, 0, !dbg !3725
  %lpad.val27 = insertvalue { i8*, i32 } %lpad.val, i32 %sel, 1, !dbg !3725
  resume { i8*, i32 } %lpad.val27, !dbg !3725
}

declare i32 @__gxx_personality_v0(...)

; Function Attrs: noinline nounwind optnone uwtable
define linkonce_odr nonnull align 8 dereferenceable(8) %"class.std::thread"* @_ZNSt6threadaSEOS_(%"class.std::thread"* %this, %"class.std::thread"* nonnull align 8 dereferenceable(8) %__t) #5 comdat align 2 !dbg !4477 {
entry:
  %this.addr = alloca %"class.std::thread"*, align 8
  %__t.addr = alloca %"class.std::thread"*, align 8
  store %"class.std::thread"* %this, %"class.std::thread"** %this.addr, align 8
  call void @llvm.dbg.declare(metadata %"class.std::thread"** %this.addr, metadata !4478, metadata !DIExpression()), !dbg !4479
  store %"class.std::thread"* %__t, %"class.std::thread"** %__t.addr, align 8
  call void @llvm.dbg.declare(metadata %"class.std::thread"** %__t.addr, metadata !4480, metadata !DIExpression()), !dbg !4481
  %this1 = load %"class.std::thread"*, %"class.std::thread"** %this.addr, align 8
  %call = call zeroext i1 @_ZNKSt6thread8joinableEv(%"class.std::thread"* %this1) #9, !dbg !4482
  br i1 %call, label %if.then, label %if.end, !dbg !4484

if.then:                                          ; preds = %entry
  call void @_ZSt9terminatev() #13, !dbg !4485
  unreachable, !dbg !4485

_ZSt11__terminatev.exit:                          ; No predecessors!
  unreachable, !dbg !4488

if.end:                                           ; preds = %entry
  %0 = load %"class.std::thread"*, %"class.std::thread"** %__t.addr, align 8, !dbg !4489
  call void @_ZNSt6thread4swapERS_(%"class.std::thread"* %this1, %"class.std::thread"* nonnull align 8 dereferenceable(8) %0) #9, !dbg !4490
  ret %"class.std::thread"* %this1, !dbg !4491
}

; Function Attrs: noinline nounwind optnone uwtable
define linkonce_odr void @_ZNSt6threadD2Ev(%"class.std::thread"* %this) unnamed_addr #5 comdat align 2 !dbg !4492 {
entry:
  %this.addr = alloca %"class.std::thread"*, align 8
  store %"class.std::thread"* %this, %"class.std::thread"** %this.addr, align 8
  call void @llvm.dbg.declare(metadata %"class.std::thread"** %this.addr, metadata !4493, metadata !DIExpression()), !dbg !4494
  %this1 = load %"class.std::thread"*, %"class.std::thread"** %this.addr, align 8
  %call = call zeroext i1 @_ZNKSt6thread8joinableEv(%"class.std::thread"* %this1) #9, !dbg !4495
  br i1 %call, label %if.then, label %if.end, !dbg !4498

if.then:                                          ; preds = %entry
  call void @_ZSt9terminatev() #13, !dbg !4499
  unreachable, !dbg !4499

_ZSt11__terminatev.exit:                          ; No predecessors!
  unreachable, !dbg !4501

if.end:                                           ; preds = %entry
  ret void, !dbg !4502
}

declare void @_ZNSt6thread4joinEv(%"class.std::thread"*) #2

; Function Attrs: nounwind
declare void @llvm.stackrestore(i8*) #9

; Function Attrs: noinline nounwind optnone uwtable
define linkonce_odr void @_ZNSt6thread2idC2Ev(%"class.std::thread::id"* %this) unnamed_addr #5 comdat align 2 !dbg !4503 {
entry:
  %this.addr = alloca %"class.std::thread::id"*, align 8
  store %"class.std::thread::id"* %this, %"class.std::thread::id"** %this.addr, align 8
  call void @llvm.dbg.declare(metadata %"class.std::thread::id"** %this.addr, metadata !4504, metadata !DIExpression()), !dbg !4506
  %this1 = load %"class.std::thread::id"*, %"class.std::thread::id"** %this.addr, align 8
  %_M_thread = getelementptr inbounds %"class.std::thread::id", %"class.std::thread::id"* %this1, i32 0, i32 0, !dbg !4507
  store i64 0, i64* %_M_thread, align 8, !dbg !4507
  ret void, !dbg !4508
}

; Function Attrs: noinline nounwind optnone uwtable
define linkonce_odr void @_ZNSt17reference_wrapperIdEC2IRdvPdEEOT_(%"class.std::reference_wrapper"* %this, double* nonnull align 8 dereferenceable(8) %__uref) unnamed_addr #5 comdat align 2 !dbg !4509 {
entry:
  %this.addr = alloca %"class.std::reference_wrapper"*, align 8
  %__uref.addr = alloca double*, align 8
  store %"class.std::reference_wrapper"* %this, %"class.std::reference_wrapper"** %this.addr, align 8
  call void @llvm.dbg.declare(metadata %"class.std::reference_wrapper"** %this.addr, metadata !4516, metadata !DIExpression()), !dbg !4518
  store double* %__uref, double** %__uref.addr, align 8
  call void @llvm.dbg.declare(metadata double** %__uref.addr, metadata !4519, metadata !DIExpression()), !dbg !4520
  %this1 = load %"class.std::reference_wrapper"*, %"class.std::reference_wrapper"** %this.addr, align 8
  %0 = bitcast %"class.std::reference_wrapper"* %this1 to %"struct.std::_Reference_wrapper_base_memfun"*, !dbg !4521
  %_M_data = getelementptr inbounds %"class.std::reference_wrapper", %"class.std::reference_wrapper"* %this1, i32 0, i32 0, !dbg !4522
  %1 = load double*, double** %__uref.addr, align 8, !dbg !4523
  %call = call nonnull align 8 dereferenceable(8) double* @_ZSt7forwardIRdEOT_RNSt16remove_referenceIS1_E4typeE(double* nonnull align 8 dereferenceable(8) %1) #9, !dbg !4524
  %call2 = call double* @_ZNSt17reference_wrapperIdE6_S_funERd(double* nonnull align 8 dereferenceable(8) %call) #9, !dbg !4525
  store double* %call2, double** %_M_data, align 8, !dbg !4522
  ret void, !dbg !4526
}

; Function Attrs: noinline nounwind optnone uwtable
define linkonce_odr double* @_ZNSt17reference_wrapperIdE6_S_funERd(double* nonnull align 8 dereferenceable(8) %__r) #5 comdat align 2 !dbg !4527 {
entry:
  %__r.addr = alloca double*, align 8
  store double* %__r, double** %__r.addr, align 8
  call void @llvm.dbg.declare(metadata double** %__r.addr, metadata !4528, metadata !DIExpression()), !dbg !4529
  %0 = load double*, double** %__r.addr, align 8, !dbg !4530
  %call = call double* @_ZSt11__addressofIdEPT_RS0_(double* nonnull align 8 dereferenceable(8) %0) #9, !dbg !4531
  ret double* %call, !dbg !4532
}

; Function Attrs: noinline nounwind optnone uwtable
define linkonce_odr nonnull align 8 dereferenceable(8) double* @_ZSt7forwardIRdEOT_RNSt16remove_referenceIS1_E4typeE(double* nonnull align 8 dereferenceable(8) %__t) #5 comdat !dbg !4533 {
entry:
  %__t.addr = alloca double*, align 8
  store double* %__t, double** %__t.addr, align 8
  call void @llvm.dbg.declare(metadata double** %__t.addr, metadata !4542, metadata !DIExpression()), !dbg !4543
  %0 = load double*, double** %__t.addr, align 8, !dbg !4544
  ret double* %0, !dbg !4545
}

; Function Attrs: noinline nounwind optnone uwtable
define linkonce_odr double* @_ZSt11__addressofIdEPT_RS0_(double* nonnull align 8 dereferenceable(8) %__r) #5 comdat !dbg !4546 {
entry:
  %__r.addr = alloca double*, align 8
  store double* %__r, double** %__r.addr, align 8
  call void @llvm.dbg.declare(metadata double** %__r.addr, metadata !4547, metadata !DIExpression()), !dbg !4548
  %0 = load double*, double** %__r.addr, align 8, !dbg !4549
  ret double* %0, !dbg !4550
}

declare void @_ZNSt6thread15_M_start_threadESt10unique_ptrINS_6_StateESt14default_deleteIS1_EEPFvvE(%"class.std::thread"*, %"class.std::unique_ptr"*, void ()*) #2

; Function Attrs: nobuiltin allocsize(0)
declare nonnull i8* @_Znwm(i64) #10

; Function Attrs: noinline nounwind optnone uwtable
define linkonce_odr nonnull void (%struct.ECLgraph*, double*, float*, float*, i32*, float, i32, i32)* @_ZSt7forwardIRFv8ECLgraphRdPfS2_PKifiiEEOT_RNSt16remove_referenceIS7_E4typeE(void (%struct.ECLgraph*, double*, float*, float*, i32*, float, i32, i32)* nonnull %__t) #5 comdat !dbg !4551 {
entry:
  %__t.addr = alloca void (%struct.ECLgraph*, double*, float*, float*, i32*, float, i32, i32)*, align 8
  store void (%struct.ECLgraph*, double*, float*, float*, i32*, float, i32, i32)* %__t, void (%struct.ECLgraph*, double*, float*, float*, i32*, float, i32, i32)** %__t.addr, align 8
  call void @llvm.dbg.declare(metadata void (%struct.ECLgraph*, double*, float*, float*, i32*, float, i32, i32)** %__t.addr, metadata !4559, metadata !DIExpression()), !dbg !4560
  %0 = load void (%struct.ECLgraph*, double*, float*, float*, i32*, float, i32, i32)*, void (%struct.ECLgraph*, double*, float*, float*, i32*, float, i32, i32)** %__t.addr, align 8, !dbg !4561
  ret void (%struct.ECLgraph*, double*, float*, float*, i32*, float, i32, i32)* %0, !dbg !4562
}

; Function Attrs: noinline nounwind optnone uwtable
define linkonce_odr nonnull align 8 dereferenceable(32) %struct.ECLgraph* @_ZSt7forwardIRK8ECLgraphEOT_RNSt16remove_referenceIS3_E4typeE(%struct.ECLgraph* nonnull align 8 dereferenceable(32) %__t) #5 comdat !dbg !4563 {
entry:
  %__t.addr = alloca %struct.ECLgraph*, align 8
  store %struct.ECLgraph* %__t, %struct.ECLgraph** %__t.addr, align 8
  call void @llvm.dbg.declare(metadata %struct.ECLgraph** %__t.addr, metadata !4571, metadata !DIExpression()), !dbg !4572
  %0 = load %struct.ECLgraph*, %struct.ECLgraph** %__t.addr, align 8, !dbg !4573
  ret %struct.ECLgraph* %0, !dbg !4574
}

; Function Attrs: noinline nounwind optnone uwtable
define linkonce_odr nonnull align 8 dereferenceable(8) %"class.std::reference_wrapper"* @_ZSt7forwardISt17reference_wrapperIdEEOT_RNSt16remove_referenceIS2_E4typeE(%"class.std::reference_wrapper"* nonnull align 8 dereferenceable(8) %__t) #5 comdat !dbg !4575 {
entry:
  %__t.addr = alloca %"class.std::reference_wrapper"*, align 8
  store %"class.std::reference_wrapper"* %__t, %"class.std::reference_wrapper"** %__t.addr, align 8
  call void @llvm.dbg.declare(metadata %"class.std::reference_wrapper"** %__t.addr, metadata !4583, metadata !DIExpression()), !dbg !4584
  %0 = load %"class.std::reference_wrapper"*, %"class.std::reference_wrapper"** %__t.addr, align 8, !dbg !4585
  ret %"class.std::reference_wrapper"* %0, !dbg !4586
}

; Function Attrs: noinline nounwind optnone uwtable
define linkonce_odr nonnull align 8 dereferenceable(8) float** @_ZSt7forwardIRPfEOT_RNSt16remove_referenceIS2_E4typeE(float** nonnull align 8 dereferenceable(8) %__t) #5 comdat !dbg !4587 {
entry:
  %__t.addr = alloca float**, align 8
  store float** %__t, float*** %__t.addr, align 8
  call void @llvm.dbg.declare(metadata float*** %__t.addr, metadata !4595, metadata !DIExpression()), !dbg !4596
  %0 = load float**, float*** %__t.addr, align 8, !dbg !4597
  ret float** %0, !dbg !4598
}

; Function Attrs: noinline nounwind optnone uwtable
define linkonce_odr nonnull align 8 dereferenceable(8) i32** @_ZSt7forwardIRPiEOT_RNSt16remove_referenceIS2_E4typeE(i32** nonnull align 8 dereferenceable(8) %__t) #5 comdat !dbg !4599 {
entry:
  %__t.addr = alloca i32**, align 8
  store i32** %__t, i32*** %__t.addr, align 8
  call void @llvm.dbg.declare(metadata i32*** %__t.addr, metadata !4607, metadata !DIExpression()), !dbg !4608
  %0 = load i32**, i32*** %__t.addr, align 8, !dbg !4609
  ret i32** %0, !dbg !4610
}

; Function Attrs: noinline nounwind optnone uwtable
define linkonce_odr nonnull align 4 dereferenceable(4) float* @_ZSt7forwardIRKfEOT_RNSt16remove_referenceIS2_E4typeE(float* nonnull align 4 dereferenceable(4) %__t) #5 comdat !dbg !4611 {
entry:
  %__t.addr = alloca float*, align 8
  store float* %__t, float** %__t.addr, align 8
  call void @llvm.dbg.declare(metadata float** %__t.addr, metadata !4619, metadata !DIExpression()), !dbg !4620
  %0 = load float*, float** %__t.addr, align 8, !dbg !4621
  ret float* %0, !dbg !4622
}

; Function Attrs: noinline nounwind optnone uwtable
define linkonce_odr nonnull align 4 dereferenceable(4) i32* @_ZSt7forwardIRiEOT_RNSt16remove_referenceIS1_E4typeE(i32* nonnull align 4 dereferenceable(4) %__t) #5 comdat !dbg !4623 {
entry:
  %__t.addr = alloca i32*, align 8
  store i32* %__t, i32** %__t.addr, align 8
  call void @llvm.dbg.declare(metadata i32** %__t.addr, metadata !4631, metadata !DIExpression()), !dbg !4632
  %0 = load i32*, i32** %__t.addr, align 8, !dbg !4633
  ret i32* %0, !dbg !4634
}

; Function Attrs: noinline nounwind optnone uwtable
define linkonce_odr nonnull align 4 dereferenceable(4) i32* @_ZSt7forwardIRKiEOT_RNSt16remove_referenceIS2_E4typeE(i32* nonnull align 4 dereferenceable(4) %__t) #5 comdat !dbg !4635 {
entry:
  %__t.addr = alloca i32*, align 8
  store i32* %__t, i32** %__t.addr, align 8
  call void @llvm.dbg.declare(metadata i32** %__t.addr, metadata !4643, metadata !DIExpression()), !dbg !4644
  %0 = load i32*, i32** %__t.addr, align 8, !dbg !4645
  ret i32* %0, !dbg !4646
}

; Function Attrs: noinline optnone uwtable
define linkonce_odr void @_ZNSt6thread11_State_implINS_8_InvokerISt5tupleIJPFv8ECLgraphRdPfS5_PKifiiES3_St17reference_wrapperIdES5_S5_PifiiEEEEEC2IJRS8_RKS3_SB_RS5_SK_RSC_RKfRiRS6_EEEDpOT_(%"struct.std::thread::_State_impl"* %this, void (%struct.ECLgraph*, double*, float*, float*, i32*, float, i32, i32)* nonnull %__args, %struct.ECLgraph* nonnull align 8 dereferenceable(32) %__args1, %"class.std::reference_wrapper"* nonnull align 8 dereferenceable(8) %__args3, float** nonnull align 8 dereferenceable(8) %__args5, float** nonnull align 8 dereferenceable(8) %__args7, i32** nonnull align 8 dereferenceable(8) %__args9, float* nonnull align 4 dereferenceable(4) %__args11, i32* nonnull align 4 dereferenceable(4) %__args13, i32* nonnull align 4 dereferenceable(4) %__args15) unnamed_addr #0 comdat align 2 personality i8* bitcast (i32 (...)* @__gxx_personality_v0 to i8*) !dbg !4647 {
entry:
  %this.addr = alloca %"struct.std::thread::_State_impl"*, align 8
  %__args.addr = alloca void (%struct.ECLgraph*, double*, float*, float*, i32*, float, i32, i32)*, align 8
  %__args.addr2 = alloca %struct.ECLgraph*, align 8
  %__args.addr4 = alloca %"class.std::reference_wrapper"*, align 8
  %__args.addr6 = alloca float**, align 8
  %__args.addr8 = alloca float**, align 8
  %__args.addr10 = alloca i32**, align 8
  %__args.addr12 = alloca float*, align 8
  %__args.addr14 = alloca i32*, align 8
  %__args.addr16 = alloca i32*, align 8
  %exn.slot = alloca i8*, align 8
  %ehselector.slot = alloca i32, align 4
  store %"struct.std::thread::_State_impl"* %this, %"struct.std::thread::_State_impl"** %this.addr, align 8
  call void @llvm.dbg.declare(metadata %"struct.std::thread::_State_impl"** %this.addr, metadata !4655, metadata !DIExpression()), !dbg !4657
  store void (%struct.ECLgraph*, double*, float*, float*, i32*, float, i32, i32)* %__args, void (%struct.ECLgraph*, double*, float*, float*, i32*, float, i32, i32)** %__args.addr, align 8
  call void @llvm.dbg.declare(metadata void (%struct.ECLgraph*, double*, float*, float*, i32*, float, i32, i32)** %__args.addr, metadata !4658, metadata !DIExpression()), !dbg !4659
  store %struct.ECLgraph* %__args1, %struct.ECLgraph** %__args.addr2, align 8
  call void @llvm.dbg.declare(metadata %struct.ECLgraph** %__args.addr2, metadata !4660, metadata !DIExpression()), !dbg !4659
  store %"class.std::reference_wrapper"* %__args3, %"class.std::reference_wrapper"** %__args.addr4, align 8
  call void @llvm.dbg.declare(metadata %"class.std::reference_wrapper"** %__args.addr4, metadata !4661, metadata !DIExpression()), !dbg !4659
  store float** %__args5, float*** %__args.addr6, align 8
  call void @llvm.dbg.declare(metadata float*** %__args.addr6, metadata !4662, metadata !DIExpression()), !dbg !4659
  store float** %__args7, float*** %__args.addr8, align 8
  call void @llvm.dbg.declare(metadata float*** %__args.addr8, metadata !4663, metadata !DIExpression()), !dbg !4659
  store i32** %__args9, i32*** %__args.addr10, align 8
  call void @llvm.dbg.declare(metadata i32*** %__args.addr10, metadata !4664, metadata !DIExpression()), !dbg !4659
  store float* %__args11, float** %__args.addr12, align 8
  call void @llvm.dbg.declare(metadata float** %__args.addr12, metadata !4665, metadata !DIExpression()), !dbg !4659
  store i32* %__args13, i32** %__args.addr14, align 8
  call void @llvm.dbg.declare(metadata i32** %__args.addr14, metadata !4666, metadata !DIExpression()), !dbg !4659
  store i32* %__args15, i32** %__args.addr16, align 8
  call void @llvm.dbg.declare(metadata i32** %__args.addr16, metadata !4667, metadata !DIExpression()), !dbg !4659
  %this17 = load %"struct.std::thread::_State_impl"*, %"struct.std::thread::_State_impl"** %this.addr, align 8
  %0 = bitcast %"struct.std::thread::_State_impl"* %this17 to %"struct.std::thread::_State"*, !dbg !4668
  call void @_ZNSt6thread6_StateC2Ev(%"struct.std::thread::_State"* %0) #9, !dbg !4669
  %1 = bitcast %"struct.std::thread::_State_impl"* %this17 to i32 (...)***, !dbg !4668
  store i32 (...)** bitcast (i8** getelementptr inbounds ({ [5 x i8*] }, { [5 x i8*] }* @_ZTVNSt6thread11_State_implINS_8_InvokerISt5tupleIJPFv8ECLgraphRdPfS5_PKifiiES3_St17reference_wrapperIdES5_S5_PifiiEEEEEE, i32 0, inrange i32 0, i32 2) to i32 (...)**), i32 (...)*** %1, align 8, !dbg !4668
  %_M_func = getelementptr inbounds %"struct.std::thread::_State_impl", %"struct.std::thread::_State_impl"* %this17, i32 0, i32 1, !dbg !4670
  %2 = load void (%struct.ECLgraph*, double*, float*, float*, i32*, float, i32, i32)*, void (%struct.ECLgraph*, double*, float*, float*, i32*, float, i32, i32)** %__args.addr, align 8, !dbg !4671
  %call = call nonnull void (%struct.ECLgraph*, double*, float*, float*, i32*, float, i32, i32)* @_ZSt7forwardIRFv8ECLgraphRdPfS2_PKifiiEEOT_RNSt16remove_referenceIS7_E4typeE(void (%struct.ECLgraph*, double*, float*, float*, i32*, float, i32, i32)* nonnull %2) #9, !dbg !4672
  %3 = load %struct.ECLgraph*, %struct.ECLgraph** %__args.addr2, align 8, !dbg !4671
  %call18 = call nonnull align 8 dereferenceable(32) %struct.ECLgraph* @_ZSt7forwardIRK8ECLgraphEOT_RNSt16remove_referenceIS3_E4typeE(%struct.ECLgraph* nonnull align 8 dereferenceable(32) %3) #9, !dbg !4672
  %4 = load %"class.std::reference_wrapper"*, %"class.std::reference_wrapper"** %__args.addr4, align 8, !dbg !4671
  %call19 = call nonnull align 8 dereferenceable(8) %"class.std::reference_wrapper"* @_ZSt7forwardISt17reference_wrapperIdEEOT_RNSt16remove_referenceIS2_E4typeE(%"class.std::reference_wrapper"* nonnull align 8 dereferenceable(8) %4) #9, !dbg !4672
  %5 = load float**, float*** %__args.addr6, align 8, !dbg !4671
  %call20 = call nonnull align 8 dereferenceable(8) float** @_ZSt7forwardIRPfEOT_RNSt16remove_referenceIS2_E4typeE(float** nonnull align 8 dereferenceable(8) %5) #9, !dbg !4672
  %6 = load float**, float*** %__args.addr8, align 8, !dbg !4671
  %call21 = call nonnull align 8 dereferenceable(8) float** @_ZSt7forwardIRPfEOT_RNSt16remove_referenceIS2_E4typeE(float** nonnull align 8 dereferenceable(8) %6) #9, !dbg !4672
  %7 = load i32**, i32*** %__args.addr10, align 8, !dbg !4671
  %call22 = call nonnull align 8 dereferenceable(8) i32** @_ZSt7forwardIRPiEOT_RNSt16remove_referenceIS2_E4typeE(i32** nonnull align 8 dereferenceable(8) %7) #9, !dbg !4672
  %8 = load float*, float** %__args.addr12, align 8, !dbg !4671
  %call23 = call nonnull align 4 dereferenceable(4) float* @_ZSt7forwardIRKfEOT_RNSt16remove_referenceIS2_E4typeE(float* nonnull align 4 dereferenceable(4) %8) #9, !dbg !4672
  %9 = load i32*, i32** %__args.addr14, align 8, !dbg !4671
  %call24 = call nonnull align 4 dereferenceable(4) i32* @_ZSt7forwardIRiEOT_RNSt16remove_referenceIS1_E4typeE(i32* nonnull align 4 dereferenceable(4) %9) #9, !dbg !4672
  %10 = load i32*, i32** %__args.addr16, align 8, !dbg !4671
  %call25 = call nonnull align 4 dereferenceable(4) i32* @_ZSt7forwardIRKiEOT_RNSt16remove_referenceIS2_E4typeE(i32* nonnull align 4 dereferenceable(4) %10) #9, !dbg !4672
  invoke void @_ZNSt6thread8_InvokerISt5tupleIJPFv8ECLgraphRdPfS4_PKifiiES2_St17reference_wrapperIdES4_S4_PifiiEEEC2IJRS7_RKS2_SA_RS4_SI_RSB_RKfRiRS5_EEEDpOT_(%"struct.std::thread::_Invoker"* %_M_func, void (%struct.ECLgraph*, double*, float*, float*, i32*, float, i32, i32)* nonnull %call, %struct.ECLgraph* nonnull align 8 dereferenceable(32) %call18, %"class.std::reference_wrapper"* nonnull align 8 dereferenceable(8) %call19, float** nonnull align 8 dereferenceable(8) %call20, float** nonnull align 8 dereferenceable(8) %call21, i32** nonnull align 8 dereferenceable(8) %call22, float* nonnull align 4 dereferenceable(4) %call23, i32* nonnull align 4 dereferenceable(4) %call24, i32* nonnull align 4 dereferenceable(4) %call25)
          to label %invoke.cont unwind label %lpad, !dbg !4670

invoke.cont:                                      ; preds = %entry
  ret void, !dbg !4673

lpad:                                             ; preds = %entry
  %11 = landingpad { i8*, i32 }
          cleanup, !dbg !4673
  %12 = extractvalue { i8*, i32 } %11, 0, !dbg !4673
  store i8* %12, i8** %exn.slot, align 8, !dbg !4673
  %13 = extractvalue { i8*, i32 } %11, 1, !dbg !4673
  store i32 %13, i32* %ehselector.slot, align 4, !dbg !4673
  %14 = bitcast %"struct.std::thread::_State_impl"* %this17 to %"struct.std::thread::_State"*, !dbg !4674
  call void @_ZNSt6thread6_StateD2Ev(%"struct.std::thread::_State"* %14) #9, !dbg !4674
  br label %eh.resume, !dbg !4674

eh.resume:                                        ; preds = %lpad
  %exn = load i8*, i8** %exn.slot, align 8, !dbg !4674
  %sel = load i32, i32* %ehselector.slot, align 4, !dbg !4674
  %lpad.val = insertvalue { i8*, i32 } undef, i8* %exn, 0, !dbg !4674
  %lpad.val26 = insertvalue { i8*, i32 } %lpad.val, i32 %sel, 1, !dbg !4674
  resume { i8*, i32 } %lpad.val26, !dbg !4674
}

; Function Attrs: nobuiltin nounwind
declare void @_ZdlPv(i8*) #11

; Function Attrs: noinline nounwind optnone uwtable
define linkonce_odr void @_ZNSt10unique_ptrINSt6thread6_StateESt14default_deleteIS1_EEC2IS3_vEEPS1_(%"class.std::unique_ptr"* %this, %"struct.std::thread::_State"* %__p) unnamed_addr #5 comdat align 2 personality i8* bitcast (i32 (...)* @__gxx_personality_v0 to i8*) !dbg !4676 {
entry:
  %this.addr = alloca %"class.std::unique_ptr"*, align 8
  %__p.addr = alloca %"struct.std::thread::_State"*, align 8
  store %"class.std::unique_ptr"* %this, %"class.std::unique_ptr"** %this.addr, align 8
  call void @llvm.dbg.declare(metadata %"class.std::unique_ptr"** %this.addr, metadata !4680, metadata !DIExpression()), !dbg !4682
  store %"struct.std::thread::_State"* %__p, %"struct.std::thread::_State"** %__p.addr, align 8
  call void @llvm.dbg.declare(metadata %"struct.std::thread::_State"** %__p.addr, metadata !4683, metadata !DIExpression()), !dbg !4684
  %this1 = load %"class.std::unique_ptr"*, %"class.std::unique_ptr"** %this.addr, align 8
  %_M_t = getelementptr inbounds %"class.std::unique_ptr", %"class.std::unique_ptr"* %this1, i32 0, i32 0, !dbg !4685
  %0 = load %"struct.std::thread::_State"*, %"struct.std::thread::_State"** %__p.addr, align 8, !dbg !4686
  invoke void @_ZNSt15__uniq_ptr_dataINSt6thread6_StateESt14default_deleteIS1_ELb1ELb1EECI2St15__uniq_ptr_implIS1_S3_EEPS1_(%"struct.std::__uniq_ptr_data"* %_M_t, %"struct.std::thread::_State"* %0)
          to label %invoke.cont unwind label %terminate.lpad, !dbg !4685

invoke.cont:                                      ; preds = %entry
  ret void, !dbg !4687

terminate.lpad:                                   ; preds = %entry
  %1 = landingpad { i8*, i32 }
          catch i8* null, !dbg !4685
  %2 = extractvalue { i8*, i32 } %1, 0, !dbg !4685
  call void @__clang_call_terminate(i8* %2) #13, !dbg !4685
  unreachable, !dbg !4685
}

; Function Attrs: noinline nounwind optnone uwtable
define linkonce_odr void @_ZNSt10unique_ptrINSt6thread6_StateESt14default_deleteIS1_EED2Ev(%"class.std::unique_ptr"* %this) unnamed_addr #5 comdat align 2 personality i8* bitcast (i32 (...)* @__gxx_personality_v0 to i8*) !dbg !4688 {
entry:
  %this.addr = alloca %"class.std::unique_ptr"*, align 8
  %__ptr = alloca %"struct.std::thread::_State"**, align 8
  store %"class.std::unique_ptr"* %this, %"class.std::unique_ptr"** %this.addr, align 8
  call void @llvm.dbg.declare(metadata %"class.std::unique_ptr"** %this.addr, metadata !4689, metadata !DIExpression()), !dbg !4690
  %this1 = load %"class.std::unique_ptr"*, %"class.std::unique_ptr"** %this.addr, align 8
  call void @llvm.dbg.declare(metadata %"struct.std::thread::_State"*** %__ptr, metadata !4691, metadata !DIExpression()), !dbg !4693
  %_M_t = getelementptr inbounds %"class.std::unique_ptr", %"class.std::unique_ptr"* %this1, i32 0, i32 0, !dbg !4694
  %0 = bitcast %"struct.std::__uniq_ptr_data"* %_M_t to %"class.std::__uniq_ptr_impl"*, !dbg !4694
  %call = call nonnull align 8 dereferenceable(8) %"struct.std::thread::_State"** @_ZNSt15__uniq_ptr_implINSt6thread6_StateESt14default_deleteIS1_EE6_M_ptrEv(%"class.std::__uniq_ptr_impl"* %0) #9, !dbg !4695
  store %"struct.std::thread::_State"** %call, %"struct.std::thread::_State"*** %__ptr, align 8, !dbg !4693
  %1 = load %"struct.std::thread::_State"**, %"struct.std::thread::_State"*** %__ptr, align 8, !dbg !4696
  %2 = load %"struct.std::thread::_State"*, %"struct.std::thread::_State"** %1, align 8, !dbg !4696
  %cmp = icmp ne %"struct.std::thread::_State"* %2, null, !dbg !4698
  br i1 %cmp, label %if.then, label %if.end, !dbg !4699

if.then:                                          ; preds = %entry
  %call2 = call nonnull align 1 dereferenceable(1) %"struct.std::default_delete"* @_ZNSt10unique_ptrINSt6thread6_StateESt14default_deleteIS1_EE11get_deleterEv(%"class.std::unique_ptr"* %this1) #9, !dbg !4700
  %3 = load %"struct.std::thread::_State"**, %"struct.std::thread::_State"*** %__ptr, align 8, !dbg !4701
  %call3 = call nonnull align 8 dereferenceable(8) %"struct.std::thread::_State"** @_ZSt4moveIRPNSt6thread6_StateEEONSt16remove_referenceIT_E4typeEOS5_(%"struct.std::thread::_State"** nonnull align 8 dereferenceable(8) %3) #9, !dbg !4702
  %4 = load %"struct.std::thread::_State"*, %"struct.std::thread::_State"** %call3, align 8, !dbg !4702
  invoke void @_ZNKSt14default_deleteINSt6thread6_StateEEclEPS1_(%"struct.std::default_delete"* %call2, %"struct.std::thread::_State"* %4)
          to label %invoke.cont unwind label %terminate.lpad, !dbg !4700

invoke.cont:                                      ; preds = %if.then
  br label %if.end, !dbg !4700

if.end:                                           ; preds = %invoke.cont, %entry
  %5 = load %"struct.std::thread::_State"**, %"struct.std::thread::_State"*** %__ptr, align 8, !dbg !4703
  store %"struct.std::thread::_State"* null, %"struct.std::thread::_State"** %5, align 8, !dbg !4704
  ret void, !dbg !4705

terminate.lpad:                                   ; preds = %if.then
  %6 = landingpad { i8*, i32 }
          catch i8* null, !dbg !4700
  %7 = extractvalue { i8*, i32 } %6, 0, !dbg !4700
  call void @__clang_call_terminate(i8* %7) #13, !dbg !4700
  unreachable, !dbg !4700
}

; Function Attrs: noinline nounwind optnone uwtable
define linkonce_odr void @_ZNSt6thread6_StateC2Ev(%"struct.std::thread::_State"* %this) unnamed_addr #5 comdat align 2 !dbg !4706 {
entry:
  %this.addr = alloca %"struct.std::thread::_State"*, align 8
  store %"struct.std::thread::_State"* %this, %"struct.std::thread::_State"** %this.addr, align 8
  call void @llvm.dbg.declare(metadata %"struct.std::thread::_State"** %this.addr, metadata !4711, metadata !DIExpression()), !dbg !4712
  %this1 = load %"struct.std::thread::_State"*, %"struct.std::thread::_State"** %this.addr, align 8
  %0 = bitcast %"struct.std::thread::_State"* %this1 to i32 (...)***, !dbg !4713
  store i32 (...)** bitcast (i8** getelementptr inbounds ({ [5 x i8*] }, { [5 x i8*] }* @_ZTVNSt6thread6_StateE, i32 0, inrange i32 0, i32 2) to i32 (...)**), i32 (...)*** %0, align 8, !dbg !4713
  ret void, !dbg !4713
}

; Function Attrs: noinline nounwind optnone uwtable
define linkonce_odr void @_ZNSt6thread8_InvokerISt5tupleIJPFv8ECLgraphRdPfS4_PKifiiES2_St17reference_wrapperIdES4_S4_PifiiEEEC2IJRS7_RKS2_SA_RS4_SI_RSB_RKfRiRS5_EEEDpOT_(%"struct.std::thread::_Invoker"* %this, void (%struct.ECLgraph*, double*, float*, float*, i32*, float, i32, i32)* nonnull %__args, %struct.ECLgraph* nonnull align 8 dereferenceable(32) %__args1, %"class.std::reference_wrapper"* nonnull align 8 dereferenceable(8) %__args3, float** nonnull align 8 dereferenceable(8) %__args5, float** nonnull align 8 dereferenceable(8) %__args7, i32** nonnull align 8 dereferenceable(8) %__args9, float* nonnull align 4 dereferenceable(4) %__args11, i32* nonnull align 4 dereferenceable(4) %__args13, i32* nonnull align 4 dereferenceable(4) %__args15) unnamed_addr #5 comdat align 2 !dbg !4714 {
entry:
  %this.addr = alloca %"struct.std::thread::_Invoker"*, align 8
  %__args.addr = alloca void (%struct.ECLgraph*, double*, float*, float*, i32*, float, i32, i32)*, align 8
  %__args.addr2 = alloca %struct.ECLgraph*, align 8
  %__args.addr4 = alloca %"class.std::reference_wrapper"*, align 8
  %__args.addr6 = alloca float**, align 8
  %__args.addr8 = alloca float**, align 8
  %__args.addr10 = alloca i32**, align 8
  %__args.addr12 = alloca float*, align 8
  %__args.addr14 = alloca i32*, align 8
  %__args.addr16 = alloca i32*, align 8
  store %"struct.std::thread::_Invoker"* %this, %"struct.std::thread::_Invoker"** %this.addr, align 8
  call void @llvm.dbg.declare(metadata %"struct.std::thread::_Invoker"** %this.addr, metadata !4718, metadata !DIExpression()), !dbg !4720
  store void (%struct.ECLgraph*, double*, float*, float*, i32*, float, i32, i32)* %__args, void (%struct.ECLgraph*, double*, float*, float*, i32*, float, i32, i32)** %__args.addr, align 8
  call void @llvm.dbg.declare(metadata void (%struct.ECLgraph*, double*, float*, float*, i32*, float, i32, i32)** %__args.addr, metadata !4721, metadata !DIExpression()), !dbg !4722
  store %struct.ECLgraph* %__args1, %struct.ECLgraph** %__args.addr2, align 8
  call void @llvm.dbg.declare(metadata %struct.ECLgraph** %__args.addr2, metadata !4723, metadata !DIExpression()), !dbg !4722
  store %"class.std::reference_wrapper"* %__args3, %"class.std::reference_wrapper"** %__args.addr4, align 8
  call void @llvm.dbg.declare(metadata %"class.std::reference_wrapper"** %__args.addr4, metadata !4724, metadata !DIExpression()), !dbg !4722
  store float** %__args5, float*** %__args.addr6, align 8
  call void @llvm.dbg.declare(metadata float*** %__args.addr6, metadata !4725, metadata !DIExpression()), !dbg !4722
  store float** %__args7, float*** %__args.addr8, align 8
  call void @llvm.dbg.declare(metadata float*** %__args.addr8, metadata !4726, metadata !DIExpression()), !dbg !4722
  store i32** %__args9, i32*** %__args.addr10, align 8
  call void @llvm.dbg.declare(metadata i32*** %__args.addr10, metadata !4727, metadata !DIExpression()), !dbg !4722
  store float* %__args11, float** %__args.addr12, align 8
  call void @llvm.dbg.declare(metadata float** %__args.addr12, metadata !4728, metadata !DIExpression()), !dbg !4722
  store i32* %__args13, i32** %__args.addr14, align 8
  call void @llvm.dbg.declare(metadata i32** %__args.addr14, metadata !4729, metadata !DIExpression()), !dbg !4722
  store i32* %__args15, i32** %__args.addr16, align 8
  call void @llvm.dbg.declare(metadata i32** %__args.addr16, metadata !4730, metadata !DIExpression()), !dbg !4722
  %this17 = load %"struct.std::thread::_Invoker"*, %"struct.std::thread::_Invoker"** %this.addr, align 8
  %_M_t = getelementptr inbounds %"struct.std::thread::_Invoker", %"struct.std::thread::_Invoker"* %this17, i32 0, i32 0, !dbg !4731
  %0 = load void (%struct.ECLgraph*, double*, float*, float*, i32*, float, i32, i32)*, void (%struct.ECLgraph*, double*, float*, float*, i32*, float, i32, i32)** %__args.addr, align 8, !dbg !4732
  %call = call nonnull void (%struct.ECLgraph*, double*, float*, float*, i32*, float, i32, i32)* @_ZSt7forwardIRFv8ECLgraphRdPfS2_PKifiiEEOT_RNSt16remove_referenceIS7_E4typeE(void (%struct.ECLgraph*, double*, float*, float*, i32*, float, i32, i32)* nonnull %0) #9, !dbg !4733
  %1 = load %struct.ECLgraph*, %struct.ECLgraph** %__args.addr2, align 8, !dbg !4732
  %call18 = call nonnull align 8 dereferenceable(32) %struct.ECLgraph* @_ZSt7forwardIRK8ECLgraphEOT_RNSt16remove_referenceIS3_E4typeE(%struct.ECLgraph* nonnull align 8 dereferenceable(32) %1) #9, !dbg !4733
  %2 = load %"class.std::reference_wrapper"*, %"class.std::reference_wrapper"** %__args.addr4, align 8, !dbg !4732
  %call19 = call nonnull align 8 dereferenceable(8) %"class.std::reference_wrapper"* @_ZSt7forwardISt17reference_wrapperIdEEOT_RNSt16remove_referenceIS2_E4typeE(%"class.std::reference_wrapper"* nonnull align 8 dereferenceable(8) %2) #9, !dbg !4733
  %3 = load float**, float*** %__args.addr6, align 8, !dbg !4732
  %call20 = call nonnull align 8 dereferenceable(8) float** @_ZSt7forwardIRPfEOT_RNSt16remove_referenceIS2_E4typeE(float** nonnull align 8 dereferenceable(8) %3) #9, !dbg !4733
  %4 = load float**, float*** %__args.addr8, align 8, !dbg !4732
  %call21 = call nonnull align 8 dereferenceable(8) float** @_ZSt7forwardIRPfEOT_RNSt16remove_referenceIS2_E4typeE(float** nonnull align 8 dereferenceable(8) %4) #9, !dbg !4733
  %5 = load i32**, i32*** %__args.addr10, align 8, !dbg !4732
  %call22 = call nonnull align 8 dereferenceable(8) i32** @_ZSt7forwardIRPiEOT_RNSt16remove_referenceIS2_E4typeE(i32** nonnull align 8 dereferenceable(8) %5) #9, !dbg !4733
  %6 = load float*, float** %__args.addr12, align 8, !dbg !4732
  %call23 = call nonnull align 4 dereferenceable(4) float* @_ZSt7forwardIRKfEOT_RNSt16remove_referenceIS2_E4typeE(float* nonnull align 4 dereferenceable(4) %6) #9, !dbg !4733
  %7 = load i32*, i32** %__args.addr14, align 8, !dbg !4732
  %call24 = call nonnull align 4 dereferenceable(4) i32* @_ZSt7forwardIRiEOT_RNSt16remove_referenceIS1_E4typeE(i32* nonnull align 4 dereferenceable(4) %7) #9, !dbg !4733
  %8 = load i32*, i32** %__args.addr16, align 8, !dbg !4732
  %call25 = call nonnull align 4 dereferenceable(4) i32* @_ZSt7forwardIRKiEOT_RNSt16remove_referenceIS2_E4typeE(i32* nonnull align 4 dereferenceable(4) %8) #9, !dbg !4733
  call void @_ZNSt5tupleIJPFv8ECLgraphRdPfS2_PKifiiES0_St17reference_wrapperIdES2_S2_PifiiEEC2IJRS5_RKS0_S8_RS2_SF_RS9_RKfRiRS3_ELb1ELb1EEEDpOT_(%"class.std::tuple.2"* %_M_t, void (%struct.ECLgraph*, double*, float*, float*, i32*, float, i32, i32)* nonnull %call, %struct.ECLgraph* nonnull align 8 dereferenceable(32) %call18, %"class.std::reference_wrapper"* nonnull align 8 dereferenceable(8) %call19, float** nonnull align 8 dereferenceable(8) %call20, float** nonnull align 8 dereferenceable(8) %call21, i32** nonnull align 8 dereferenceable(8) %call22, float* nonnull align 4 dereferenceable(4) %call23, i32* nonnull align 4 dereferenceable(4) %call24, i32* nonnull align 4 dereferenceable(4) %call25) #9, !dbg !4731
  ret void, !dbg !4734
}

; Function Attrs: nounwind
declare void @_ZNSt6thread6_StateD2Ev(%"struct.std::thread::_State"*) unnamed_addr #4

; Function Attrs: noinline nounwind optnone uwtable
define linkonce_odr void @_ZNSt6thread11_State_implINS_8_InvokerISt5tupleIJPFv8ECLgraphRdPfS5_PKifiiES3_St17reference_wrapperIdES5_S5_PifiiEEEEED2Ev(%"struct.std::thread::_State_impl"* %this) unnamed_addr #5 comdat align 2 !dbg !4735 {
entry:
  %this.addr = alloca %"struct.std::thread::_State_impl"*, align 8
  store %"struct.std::thread::_State_impl"* %this, %"struct.std::thread::_State_impl"** %this.addr, align 8
  call void @llvm.dbg.declare(metadata %"struct.std::thread::_State_impl"** %this.addr, metadata !4737, metadata !DIExpression()), !dbg !4738
  %this1 = load %"struct.std::thread::_State_impl"*, %"struct.std::thread::_State_impl"** %this.addr, align 8
  %0 = bitcast %"struct.std::thread::_State_impl"* %this1 to %"struct.std::thread::_State"*, !dbg !4739
  call void @_ZNSt6thread6_StateD2Ev(%"struct.std::thread::_State"* %0) #9, !dbg !4739
  ret void, !dbg !4741
}

; Function Attrs: noinline nounwind optnone uwtable
define linkonce_odr void @_ZNSt6thread11_State_implINS_8_InvokerISt5tupleIJPFv8ECLgraphRdPfS5_PKifiiES3_St17reference_wrapperIdES5_S5_PifiiEEEEED0Ev(%"struct.std::thread::_State_impl"* %this) unnamed_addr #5 comdat align 2 !dbg !4742 {
entry:
  %this.addr = alloca %"struct.std::thread::_State_impl"*, align 8
  store %"struct.std::thread::_State_impl"* %this, %"struct.std::thread::_State_impl"** %this.addr, align 8
  call void @llvm.dbg.declare(metadata %"struct.std::thread::_State_impl"** %this.addr, metadata !4743, metadata !DIExpression()), !dbg !4744
  %this1 = load %"struct.std::thread::_State_impl"*, %"struct.std::thread::_State_impl"** %this.addr, align 8
  call void @_ZNSt6thread11_State_implINS_8_InvokerISt5tupleIJPFv8ECLgraphRdPfS5_PKifiiES3_St17reference_wrapperIdES5_S5_PifiiEEEEED2Ev(%"struct.std::thread::_State_impl"* %this1) #9, !dbg !4745
  %0 = bitcast %"struct.std::thread::_State_impl"* %this1 to i8*, !dbg !4745
  call void @_ZdlPv(i8* %0) #16, !dbg !4745
  ret void, !dbg !4745
}

; Function Attrs: noinline optnone uwtable
define linkonce_odr void @_ZNSt6thread11_State_implINS_8_InvokerISt5tupleIJPFv8ECLgraphRdPfS5_PKifiiES3_St17reference_wrapperIdES5_S5_PifiiEEEEE6_M_runEv(%"struct.std::thread::_State_impl"* %this) unnamed_addr #0 comdat align 2 !dbg !4746 {
entry:
  %this.addr = alloca %"struct.std::thread::_State_impl"*, align 8
  store %"struct.std::thread::_State_impl"* %this, %"struct.std::thread::_State_impl"** %this.addr, align 8
  call void @llvm.dbg.declare(metadata %"struct.std::thread::_State_impl"** %this.addr, metadata !4747, metadata !DIExpression()), !dbg !4748
  %this1 = load %"struct.std::thread::_State_impl"*, %"struct.std::thread::_State_impl"** %this.addr, align 8
  %_M_func = getelementptr inbounds %"struct.std::thread::_State_impl", %"struct.std::thread::_State_impl"* %this1, i32 0, i32 1, !dbg !4749
  call void @_ZNSt6thread8_InvokerISt5tupleIJPFv8ECLgraphRdPfS4_PKifiiES2_St17reference_wrapperIdES4_S4_PifiiEEEclEv(%"struct.std::thread::_Invoker"* %_M_func), !dbg !4749
  ret void, !dbg !4750
}

; Function Attrs: noinline nounwind optnone uwtable
define linkonce_odr void @_ZNSt5tupleIJPFv8ECLgraphRdPfS2_PKifiiES0_St17reference_wrapperIdES2_S2_PifiiEEC2IJRS5_RKS0_S8_RS2_SF_RS9_RKfRiRS3_ELb1ELb1EEEDpOT_(%"class.std::tuple.2"* %this, void (%struct.ECLgraph*, double*, float*, float*, i32*, float, i32, i32)* nonnull %__elements, %struct.ECLgraph* nonnull align 8 dereferenceable(32) %__elements1, %"class.std::reference_wrapper"* nonnull align 8 dereferenceable(8) %__elements3, float** nonnull align 8 dereferenceable(8) %__elements5, float** nonnull align 8 dereferenceable(8) %__elements7, i32** nonnull align 8 dereferenceable(8) %__elements9, float* nonnull align 4 dereferenceable(4) %__elements11, i32* nonnull align 4 dereferenceable(4) %__elements13, i32* nonnull align 4 dereferenceable(4) %__elements15) unnamed_addr #5 comdat align 2 personality i8* bitcast (i32 (...)* @__gxx_personality_v0 to i8*) !dbg !4751 {
entry:
  %this.addr = alloca %"class.std::tuple.2"*, align 8
  %__elements.addr = alloca void (%struct.ECLgraph*, double*, float*, float*, i32*, float, i32, i32)*, align 8
  %__elements.addr2 = alloca %struct.ECLgraph*, align 8
  %__elements.addr4 = alloca %"class.std::reference_wrapper"*, align 8
  %__elements.addr6 = alloca float**, align 8
  %__elements.addr8 = alloca float**, align 8
  %__elements.addr10 = alloca i32**, align 8
  %__elements.addr12 = alloca float*, align 8
  %__elements.addr14 = alloca i32*, align 8
  %__elements.addr16 = alloca i32*, align 8
  store %"class.std::tuple.2"* %this, %"class.std::tuple.2"** %this.addr, align 8
  call void @llvm.dbg.declare(metadata %"class.std::tuple.2"** %this.addr, metadata !4758, metadata !DIExpression()), !dbg !4760
  store void (%struct.ECLgraph*, double*, float*, float*, i32*, float, i32, i32)* %__elements, void (%struct.ECLgraph*, double*, float*, float*, i32*, float, i32, i32)** %__elements.addr, align 8
  call void @llvm.dbg.declare(metadata void (%struct.ECLgraph*, double*, float*, float*, i32*, float, i32, i32)** %__elements.addr, metadata !4761, metadata !DIExpression()), !dbg !4762
  store %struct.ECLgraph* %__elements1, %struct.ECLgraph** %__elements.addr2, align 8
  call void @llvm.dbg.declare(metadata %struct.ECLgraph** %__elements.addr2, metadata !4763, metadata !DIExpression()), !dbg !4762
  store %"class.std::reference_wrapper"* %__elements3, %"class.std::reference_wrapper"** %__elements.addr4, align 8
  call void @llvm.dbg.declare(metadata %"class.std::reference_wrapper"** %__elements.addr4, metadata !4764, metadata !DIExpression()), !dbg !4762
  store float** %__elements5, float*** %__elements.addr6, align 8
  call void @llvm.dbg.declare(metadata float*** %__elements.addr6, metadata !4765, metadata !DIExpression()), !dbg !4762
  store float** %__elements7, float*** %__elements.addr8, align 8
  call void @llvm.dbg.declare(metadata float*** %__elements.addr8, metadata !4766, metadata !DIExpression()), !dbg !4762
  store i32** %__elements9, i32*** %__elements.addr10, align 8
  call void @llvm.dbg.declare(metadata i32*** %__elements.addr10, metadata !4767, metadata !DIExpression()), !dbg !4762
  store float* %__elements11, float** %__elements.addr12, align 8
  call void @llvm.dbg.declare(metadata float** %__elements.addr12, metadata !4768, metadata !DIExpression()), !dbg !4762
  store i32* %__elements13, i32** %__elements.addr14, align 8
  call void @llvm.dbg.declare(metadata i32** %__elements.addr14, metadata !4769, metadata !DIExpression()), !dbg !4762
  store i32* %__elements15, i32** %__elements.addr16, align 8
  call void @llvm.dbg.declare(metadata i32** %__elements.addr16, metadata !4770, metadata !DIExpression()), !dbg !4762
  %this17 = load %"class.std::tuple.2"*, %"class.std::tuple.2"** %this.addr, align 8
  %0 = bitcast %"class.std::tuple.2"* %this17 to %"struct.std::_Tuple_impl.3"*, !dbg !4771
  %1 = load void (%struct.ECLgraph*, double*, float*, float*, i32*, float, i32, i32)*, void (%struct.ECLgraph*, double*, float*, float*, i32*, float, i32, i32)** %__elements.addr, align 8, !dbg !4772
  %call = call nonnull void (%struct.ECLgraph*, double*, float*, float*, i32*, float, i32, i32)* @_ZSt7forwardIRFv8ECLgraphRdPfS2_PKifiiEEOT_RNSt16remove_referenceIS7_E4typeE(void (%struct.ECLgraph*, double*, float*, float*, i32*, float, i32, i32)* nonnull %1) #9, !dbg !4773
  %2 = load %struct.ECLgraph*, %struct.ECLgraph** %__elements.addr2, align 8, !dbg !4772
  %call18 = call nonnull align 8 dereferenceable(32) %struct.ECLgraph* @_ZSt7forwardIRK8ECLgraphEOT_RNSt16remove_referenceIS3_E4typeE(%struct.ECLgraph* nonnull align 8 dereferenceable(32) %2) #9, !dbg !4773
  %3 = load %"class.std::reference_wrapper"*, %"class.std::reference_wrapper"** %__elements.addr4, align 8, !dbg !4772
  %call19 = call nonnull align 8 dereferenceable(8) %"class.std::reference_wrapper"* @_ZSt7forwardISt17reference_wrapperIdEEOT_RNSt16remove_referenceIS2_E4typeE(%"class.std::reference_wrapper"* nonnull align 8 dereferenceable(8) %3) #9, !dbg !4773
  %4 = load float**, float*** %__elements.addr6, align 8, !dbg !4772
  %call20 = call nonnull align 8 dereferenceable(8) float** @_ZSt7forwardIRPfEOT_RNSt16remove_referenceIS2_E4typeE(float** nonnull align 8 dereferenceable(8) %4) #9, !dbg !4773
  %5 = load float**, float*** %__elements.addr8, align 8, !dbg !4772
  %call21 = call nonnull align 8 dereferenceable(8) float** @_ZSt7forwardIRPfEOT_RNSt16remove_referenceIS2_E4typeE(float** nonnull align 8 dereferenceable(8) %5) #9, !dbg !4773
  %6 = load i32**, i32*** %__elements.addr10, align 8, !dbg !4772
  %call22 = call nonnull align 8 dereferenceable(8) i32** @_ZSt7forwardIRPiEOT_RNSt16remove_referenceIS2_E4typeE(i32** nonnull align 8 dereferenceable(8) %6) #9, !dbg !4773
  %7 = load float*, float** %__elements.addr12, align 8, !dbg !4772
  %call23 = call nonnull align 4 dereferenceable(4) float* @_ZSt7forwardIRKfEOT_RNSt16remove_referenceIS2_E4typeE(float* nonnull align 4 dereferenceable(4) %7) #9, !dbg !4773
  %8 = load i32*, i32** %__elements.addr14, align 8, !dbg !4772
  %call24 = call nonnull align 4 dereferenceable(4) i32* @_ZSt7forwardIRiEOT_RNSt16remove_referenceIS1_E4typeE(i32* nonnull align 4 dereferenceable(4) %8) #9, !dbg !4773
  %9 = load i32*, i32** %__elements.addr16, align 8, !dbg !4772
  %call25 = call nonnull align 4 dereferenceable(4) i32* @_ZSt7forwardIRKiEOT_RNSt16remove_referenceIS2_E4typeE(i32* nonnull align 4 dereferenceable(4) %9) #9, !dbg !4773
  invoke void @_ZNSt11_Tuple_implILm0EJPFv8ECLgraphRdPfS2_PKifiiES0_St17reference_wrapperIdES2_S2_PifiiEEC2IRS5_JRKS0_S8_RS2_SF_RS9_RKfRiRS3_EvEEOT_DpOT0_(%"struct.std::_Tuple_impl.3"* %0, void (%struct.ECLgraph*, double*, float*, float*, i32*, float, i32, i32)* nonnull %call, %struct.ECLgraph* nonnull align 8 dereferenceable(32) %call18, %"class.std::reference_wrapper"* nonnull align 8 dereferenceable(8) %call19, float** nonnull align 8 dereferenceable(8) %call20, float** nonnull align 8 dereferenceable(8) %call21, i32** nonnull align 8 dereferenceable(8) %call22, float* nonnull align 4 dereferenceable(4) %call23, i32* nonnull align 4 dereferenceable(4) %call24, i32* nonnull align 4 dereferenceable(4) %call25)
          to label %invoke.cont unwind label %terminate.lpad, !dbg !4774

invoke.cont:                                      ; preds = %entry
  ret void, !dbg !4775

terminate.lpad:                                   ; preds = %entry
  %10 = landingpad { i8*, i32 }
          catch i8* null, !dbg !4774
  %11 = extractvalue { i8*, i32 } %10, 0, !dbg !4774
  call void @__clang_call_terminate(i8* %11) #13, !dbg !4774
  unreachable, !dbg !4774
}

; Function Attrs: noinline optnone uwtable
define linkonce_odr void @_ZNSt11_Tuple_implILm0EJPFv8ECLgraphRdPfS2_PKifiiES0_St17reference_wrapperIdES2_S2_PifiiEEC2IRS5_JRKS0_S8_RS2_SF_RS9_RKfRiRS3_EvEEOT_DpOT0_(%"struct.std::_Tuple_impl.3"* %this, void (%struct.ECLgraph*, double*, float*, float*, i32*, float, i32, i32)* nonnull %__head, %struct.ECLgraph* nonnull align 8 dereferenceable(32) %__tail, %"class.std::reference_wrapper"* nonnull align 8 dereferenceable(8) %__tail1, float** nonnull align 8 dereferenceable(8) %__tail3, float** nonnull align 8 dereferenceable(8) %__tail5, i32** nonnull align 8 dereferenceable(8) %__tail7, float* nonnull align 4 dereferenceable(4) %__tail9, i32* nonnull align 4 dereferenceable(4) %__tail11, i32* nonnull align 4 dereferenceable(4) %__tail13) unnamed_addr #0 comdat align 2 !dbg !4776 {
entry:
  %this.addr = alloca %"struct.std::_Tuple_impl.3"*, align 8
  %__head.addr = alloca void (%struct.ECLgraph*, double*, float*, float*, i32*, float, i32, i32)*, align 8
  %__tail.addr = alloca %struct.ECLgraph*, align 8
  %__tail.addr2 = alloca %"class.std::reference_wrapper"*, align 8
  %__tail.addr4 = alloca float**, align 8
  %__tail.addr6 = alloca float**, align 8
  %__tail.addr8 = alloca i32**, align 8
  %__tail.addr10 = alloca float*, align 8
  %__tail.addr12 = alloca i32*, align 8
  %__tail.addr14 = alloca i32*, align 8
  %ref.tmp = alloca void (%struct.ECLgraph*, double*, float*, float*, i32*, float, i32, i32)*, align 8
  store %"struct.std::_Tuple_impl.3"* %this, %"struct.std::_Tuple_impl.3"** %this.addr, align 8
  call void @llvm.dbg.declare(metadata %"struct.std::_Tuple_impl.3"** %this.addr, metadata !4783, metadata !DIExpression()), !dbg !4785
  store void (%struct.ECLgraph*, double*, float*, float*, i32*, float, i32, i32)* %__head, void (%struct.ECLgraph*, double*, float*, float*, i32*, float, i32, i32)** %__head.addr, align 8
  call void @llvm.dbg.declare(metadata void (%struct.ECLgraph*, double*, float*, float*, i32*, float, i32, i32)** %__head.addr, metadata !4786, metadata !DIExpression()), !dbg !4787
  store %struct.ECLgraph* %__tail, %struct.ECLgraph** %__tail.addr, align 8
  call void @llvm.dbg.declare(metadata %struct.ECLgraph** %__tail.addr, metadata !4788, metadata !DIExpression()), !dbg !4789
  store %"class.std::reference_wrapper"* %__tail1, %"class.std::reference_wrapper"** %__tail.addr2, align 8
  call void @llvm.dbg.declare(metadata %"class.std::reference_wrapper"** %__tail.addr2, metadata !4790, metadata !DIExpression()), !dbg !4789
  store float** %__tail3, float*** %__tail.addr4, align 8
  call void @llvm.dbg.declare(metadata float*** %__tail.addr4, metadata !4791, metadata !DIExpression()), !dbg !4789
  store float** %__tail5, float*** %__tail.addr6, align 8
  call void @llvm.dbg.declare(metadata float*** %__tail.addr6, metadata !4792, metadata !DIExpression()), !dbg !4789
  store i32** %__tail7, i32*** %__tail.addr8, align 8
  call void @llvm.dbg.declare(metadata i32*** %__tail.addr8, metadata !4793, metadata !DIExpression()), !dbg !4789
  store float* %__tail9, float** %__tail.addr10, align 8
  call void @llvm.dbg.declare(metadata float** %__tail.addr10, metadata !4794, metadata !DIExpression()), !dbg !4789
  store i32* %__tail11, i32** %__tail.addr12, align 8
  call void @llvm.dbg.declare(metadata i32** %__tail.addr12, metadata !4795, metadata !DIExpression()), !dbg !4789
  store i32* %__tail13, i32** %__tail.addr14, align 8
  call void @llvm.dbg.declare(metadata i32** %__tail.addr14, metadata !4796, metadata !DIExpression()), !dbg !4789
  %this15 = load %"struct.std::_Tuple_impl.3"*, %"struct.std::_Tuple_impl.3"** %this.addr, align 8
  %0 = bitcast %"struct.std::_Tuple_impl.3"* %this15 to %"struct.std::_Tuple_impl.4"*, !dbg !4797
  %1 = load %struct.ECLgraph*, %struct.ECLgraph** %__tail.addr, align 8, !dbg !4798
  %call = call nonnull align 8 dereferenceable(32) %struct.ECLgraph* @_ZSt7forwardIRK8ECLgraphEOT_RNSt16remove_referenceIS3_E4typeE(%struct.ECLgraph* nonnull align 8 dereferenceable(32) %1) #9, !dbg !4799
  %2 = load %"class.std::reference_wrapper"*, %"class.std::reference_wrapper"** %__tail.addr2, align 8, !dbg !4798
  %call16 = call nonnull align 8 dereferenceable(8) %"class.std::reference_wrapper"* @_ZSt7forwardISt17reference_wrapperIdEEOT_RNSt16remove_referenceIS2_E4typeE(%"class.std::reference_wrapper"* nonnull align 8 dereferenceable(8) %2) #9, !dbg !4799
  %3 = load float**, float*** %__tail.addr4, align 8, !dbg !4798
  %call17 = call nonnull align 8 dereferenceable(8) float** @_ZSt7forwardIRPfEOT_RNSt16remove_referenceIS2_E4typeE(float** nonnull align 8 dereferenceable(8) %3) #9, !dbg !4799
  %4 = load float**, float*** %__tail.addr6, align 8, !dbg !4798
  %call18 = call nonnull align 8 dereferenceable(8) float** @_ZSt7forwardIRPfEOT_RNSt16remove_referenceIS2_E4typeE(float** nonnull align 8 dereferenceable(8) %4) #9, !dbg !4799
  %5 = load i32**, i32*** %__tail.addr8, align 8, !dbg !4798
  %call19 = call nonnull align 8 dereferenceable(8) i32** @_ZSt7forwardIRPiEOT_RNSt16remove_referenceIS2_E4typeE(i32** nonnull align 8 dereferenceable(8) %5) #9, !dbg !4799
  %6 = load float*, float** %__tail.addr10, align 8, !dbg !4798
  %call20 = call nonnull align 4 dereferenceable(4) float* @_ZSt7forwardIRKfEOT_RNSt16remove_referenceIS2_E4typeE(float* nonnull align 4 dereferenceable(4) %6) #9, !dbg !4799
  %7 = load i32*, i32** %__tail.addr12, align 8, !dbg !4798
  %call21 = call nonnull align 4 dereferenceable(4) i32* @_ZSt7forwardIRiEOT_RNSt16remove_referenceIS1_E4typeE(i32* nonnull align 4 dereferenceable(4) %7) #9, !dbg !4799
  %8 = load i32*, i32** %__tail.addr14, align 8, !dbg !4798
  %call22 = call nonnull align 4 dereferenceable(4) i32* @_ZSt7forwardIRKiEOT_RNSt16remove_referenceIS2_E4typeE(i32* nonnull align 4 dereferenceable(4) %8) #9, !dbg !4799
  call void @_ZNSt11_Tuple_implILm1EJ8ECLgraphSt17reference_wrapperIdEPfS3_PifiiEEC2IRKS0_JS2_RS3_S9_RS4_RKfRiRKiEvEEOT_DpOT0_(%"struct.std::_Tuple_impl.4"* %0, %struct.ECLgraph* nonnull align 8 dereferenceable(32) %call, %"class.std::reference_wrapper"* nonnull align 8 dereferenceable(8) %call16, float** nonnull align 8 dereferenceable(8) %call17, float** nonnull align 8 dereferenceable(8) %call18, i32** nonnull align 8 dereferenceable(8) %call19, float* nonnull align 4 dereferenceable(4) %call20, i32* nonnull align 4 dereferenceable(4) %call21, i32* nonnull align 4 dereferenceable(4) %call22), !dbg !4800
  %9 = bitcast %"struct.std::_Tuple_impl.3"* %this15 to i8*, !dbg !4797
  %10 = getelementptr inbounds i8, i8* %9, i64 80, !dbg !4797
  %11 = bitcast i8* %10 to %"struct.std::_Head_base.20"*, !dbg !4797
  %12 = load void (%struct.ECLgraph*, double*, float*, float*, i32*, float, i32, i32)*, void (%struct.ECLgraph*, double*, float*, float*, i32*, float, i32, i32)** %__head.addr, align 8, !dbg !4801
  %call23 = call nonnull void (%struct.ECLgraph*, double*, float*, float*, i32*, float, i32, i32)* @_ZSt7forwardIRFv8ECLgraphRdPfS2_PKifiiEEOT_RNSt16remove_referenceIS7_E4typeE(void (%struct.ECLgraph*, double*, float*, float*, i32*, float, i32, i32)* nonnull %12) #9, !dbg !4802
  store void (%struct.ECLgraph*, double*, float*, float*, i32*, float, i32, i32)* %call23, void (%struct.ECLgraph*, double*, float*, float*, i32*, float, i32, i32)** %ref.tmp, align 8, !dbg !4802
  call void @_ZNSt10_Head_baseILm0EPFv8ECLgraphRdPfS2_PKifiiELb0EEC2ERKS6_(%"struct.std::_Head_base.20"* %11, void (%struct.ECLgraph*, double*, float*, float*, i32*, float, i32, i32)** nonnull align 8 dereferenceable(8) %ref.tmp), !dbg !4803
  ret void, !dbg !4804
}

; Function Attrs: noinline noreturn nounwind
define linkonce_odr hidden void @__clang_call_terminate(i8* %0) #12 comdat {
  %2 = call i8* @__cxa_begin_catch(i8* %0) #9
  call void @_ZSt9terminatev() #13
