; ModuleID = 'codes/cpp/cc-cpp/CC_CPP_V_Data_Push_IntType_ReadWrite_NonDeterm_NoFieldBug_Block_Atomic_NoBoundsBug_Dup.cpp'
source_filename = "codes/cpp/cc-cpp/CC_CPP_V_Data_Push_IntType_ReadWrite_NonDeterm_NoFieldBug_Block_Atomic_NoBoundsBug_Dup.cpp"
target datalayout = "e-m:e-p270:32:32-p271:32:32-p272:64:64-i64:64-f80:128-n8:16:32:64-S128"
target triple = "x86_64-unknown-linux-gnu"

%struct._IO_FILE = type { i32, i8*, i8*, i8*, i8*, i8*, i8*, i8*, i8*, i8*, i8*, i8*, %struct._IO_marker*, %struct._IO_FILE*, i32, i32, i64, i16, i8, [1 x i8], i8*, i64, %struct._IO_codecvt*, %struct._IO_wide_data*, %struct._IO_FILE*, i8*, i64, i32, [20 x i8] }
%struct._IO_marker = type opaque
%struct._IO_codecvt = type opaque
%struct._IO_wide_data = type opaque
%struct.ECLgraph = type { i32, i32, i32*, i32*, i32* }
%"class.std::set" = type { %"class.std::_Rb_tree" }
%"class.std::_Rb_tree" = type { %"struct.std::_Rb_tree<int, int, std::_Identity<int>, std::less<int>, std::allocator<int>>::_Rb_tree_impl" }
%"struct.std::_Rb_tree<int, int, std::_Identity<int>, std::less<int>, std::allocator<int>>::_Rb_tree_impl" = type { %"struct.std::_Rb_tree_key_compare", %"struct.std::_Rb_tree_header" }
%"struct.std::_Rb_tree_key_compare" = type { %"struct.std::less" }
%"struct.std::less" = type { i8 }
%"struct.std::_Rb_tree_header" = type { %"struct.std::_Rb_tree_node_base", i64 }
%"struct.std::_Rb_tree_node_base" = type { i32, %"struct.std::_Rb_tree_node_base"*, %"struct.std::_Rb_tree_node_base"*, %"struct.std::_Rb_tree_node_base"* }
%"struct.std::pair" = type <{ %"struct.std::_Rb_tree_const_iterator", i8, [7 x i8] }>
%"struct.std::_Rb_tree_const_iterator" = type { %"struct.std::_Rb_tree_node_base"* }
%struct.timeval = type { i64, i64 }
%"class.std::thread" = type { %"class.std::thread::id" }
%"class.std::thread::id" = type { i64 }
%"class.std::reference_wrapper" = type { i32* }
%"struct.std::pair.23" = type <{ %"struct.std::_Rb_tree_iterator", i8, [7 x i8] }>
%"struct.std::_Rb_tree_iterator" = type { %"struct.std::_Rb_tree_node_base"* }
%"struct.__gnu_cxx::__ops::_Iter_less_iter" = type { i8 }
%"struct.__gnu_cxx::__ops::_Iter_less_val" = type { i8 }
%"struct.__gnu_cxx::__ops::_Val_less_iter" = type { i8 }
%"class.std::allocator" = type { i8 }
%"class.std::__new_allocator" = type { i8 }
%"struct.std::_Rb_tree_node" = type <{ %"struct.std::_Rb_tree_node_base", %"struct.__gnu_cxx::__aligned_membuf", [4 x i8] }>
%"struct.__gnu_cxx::__aligned_membuf" = type { [4 x i8] }
%"class.std::unique_ptr" = type { %"struct.std::__uniq_ptr_data" }
%"struct.std::__uniq_ptr_data" = type { %"class.std::__uniq_ptr_impl" }
%"class.std::__uniq_ptr_impl" = type { %"class.std::tuple" }
%"class.std::tuple" = type { %"struct.std::_Tuple_impl" }
%"struct.std::_Tuple_impl" = type { %"struct.std::_Head_base.1" }
%"struct.std::_Head_base.1" = type { %"struct.std::thread::_State"* }
%"struct.std::thread::_State" = type { i32 (...)** }
%"struct.std::thread::_State_impl" = type { %"struct.std::thread::_State", %"struct.std::thread::_Invoker" }
%"struct.std::thread::_Invoker" = type { %"class.std::tuple.2" }
%"class.std::tuple.2" = type { %"struct.std::_Tuple_impl.3" }
%"struct.std::_Tuple_impl.3" = type { %"struct.std::_Tuple_impl.4", %"struct.std::_Head_base.22" }
%"struct.std::_Tuple_impl.4" = type { %"struct.std::_Tuple_impl.5", %"struct.std::_Head_base.21" }
%"struct.std::_Tuple_impl.5" = type { %"struct.std::_Tuple_impl.6", %"struct.std::_Head_base.20" }
%"struct.std::_Tuple_impl.6" = type { %"struct.std::_Tuple_impl.base", %"struct.std::_Head_base.19" }
%"struct.std::_Tuple_impl.base" = type <{ %"struct.std::_Tuple_impl.8", %"struct.std::_Head_base.18" }>
%"struct.std::_Tuple_impl.8" = type { %"struct.std::_Tuple_impl.9", %"struct.std::_Head_base.17" }
%"struct.std::_Tuple_impl.9" = type { %"struct.std::_Tuple_impl.10", %"struct.std::_Head_base.16" }
%"struct.std::_Tuple_impl.10" = type { %"struct.std::_Tuple_impl.11", %"struct.std::_Head_base.15" }
%"struct.std::_Tuple_impl.11" = type { %"struct.std::_Tuple_impl.12", %"struct.std::_Head_base.14" }
%"struct.std::_Tuple_impl.12" = type { %"struct.std::_Head_base.13" }
%"struct.std::_Head_base.13" = type { i32 }
%"struct.std::_Head_base.14" = type { i32 }
%"struct.std::_Head_base.15" = type { i32 }
%"struct.std::_Head_base.16" = type { %"class.std::reference_wrapper" }
%"struct.std::_Head_base.17" = type { i32* }
%"struct.std::_Head_base.18" = type { i32 }
%"struct.std::_Head_base.19" = type { i32* }
%"struct.std::_Head_base.20" = type { i32* }
%"struct.std::_Head_base.21" = type { %struct.ECLgraph }
%"struct.std::_Head_base.22" = type { void (%struct.ECLgraph*, i32*, i32*, i32, i32*, i32*, i32, i32, i32)* }
%"struct.std::__atomic_base" = type { i32 }
%"struct.std::atomic" = type { %"struct.std::__atomic_base" }
%"struct.std::_Reference_wrapper_base_memfun" = type { i8 }
%"struct.std::default_delete" = type { i8 }
%"struct.std::_Tuple_impl.7" = type <{ %"struct.std::_Tuple_impl.8", %"struct.std::_Head_base.18", [4 x i8] }>
%"struct.std::_Index_tuple" = type { i8 }
%"struct.std::__invoke_other" = type { i8 }
%"struct.std::_Tuple_impl.0" = type { i8 }
%"struct.std::_Head_base" = type { i8 }
%"struct.std::pair.27" = type { %"struct.std::_Rb_tree_node_base"*, %"struct.std::_Rb_tree_node_base"* }
%"struct.std::_Identity" = type { i8 }
%"struct.std::_Rb_tree<int, int, std::_Identity<int>, std::less<int>, std::allocator<int>>::_Alloc_node" = type { %"class.std::_Rb_tree"* }
%"class.std::__pair_base" = type { i8 }
%"class.std::__pair_base.24" = type { i8 }
%"class.std::__pair_base.28" = type { i8 }

$_ZNSt3setIiSt4lessIiESaIiEEC2Ev = comdat any

$_ZNSt3setIiSt4lessIiESaIiEE6insertERKi = comdat any

$_ZNKSt3setIiSt4lessIiESaIiEE4sizeEv = comdat any

$_ZNSt3setIiSt4lessIiESaIiEED2Ev = comdat any

$_ZSt4sortIPdEvT_S1_ = comdat any

$_ZSt6__sortIPdN9__gnu_cxx5__ops15_Iter_less_iterEEvT_S4_T0_ = comdat any

$_ZN9__gnu_cxx5__ops16__iter_less_iterEv = comdat any

$_ZSt16__introsort_loopIPdlN9__gnu_cxx5__ops15_Iter_less_iterEEvT_S4_T0_T1_ = comdat any

$_ZSt4__lgl = comdat any

$_ZSt22__final_insertion_sortIPdN9__gnu_cxx5__ops15_Iter_less_iterEEvT_S4_T0_ = comdat any

$_ZSt14__partial_sortIPdN9__gnu_cxx5__ops15_Iter_less_iterEEvT_S4_S4_T0_ = comdat any

$_ZSt27__unguarded_partition_pivotIPdN9__gnu_cxx5__ops15_Iter_less_iterEET_S4_S4_T0_ = comdat any

$_ZSt13__heap_selectIPdN9__gnu_cxx5__ops15_Iter_less_iterEEvT_S4_S4_T0_ = comdat any

$_ZSt11__sort_heapIPdN9__gnu_cxx5__ops15_Iter_less_iterEEvT_S4_RT0_ = comdat any

$_ZSt11__make_heapIPdN9__gnu_cxx5__ops15_Iter_less_iterEEvT_S4_RT0_ = comdat any

$_ZNK9__gnu_cxx5__ops15_Iter_less_iterclIPdS3_EEbT_T0_ = comdat any

$_ZSt10__pop_heapIPdN9__gnu_cxx5__ops15_Iter_less_iterEEvT_S4_S4_RT0_ = comdat any

$_ZSt4moveIRdEONSt16remove_referenceIT_E4typeEOS2_ = comdat any

$_ZSt13__adjust_heapIPdldN9__gnu_cxx5__ops15_Iter_less_iterEEvT_T0_S5_T1_T2_ = comdat any

$_ZSt4moveIRN9__gnu_cxx5__ops15_Iter_less_iterEEONSt16remove_referenceIT_E4typeEOS5_ = comdat any

$_ZN9__gnu_cxx5__ops14_Iter_less_valC2ENS0_15_Iter_less_iterE = comdat any

$_ZSt11__push_heapIPdldN9__gnu_cxx5__ops14_Iter_less_valEEvT_T0_S5_T1_RT2_ = comdat any

$_ZNK9__gnu_cxx5__ops14_Iter_less_valclIPddEEbT_RT0_ = comdat any

$_ZSt22__move_median_to_firstIPdN9__gnu_cxx5__ops15_Iter_less_iterEEvT_S4_S4_S4_T0_ = comdat any

$_ZSt21__unguarded_partitionIPdN9__gnu_cxx5__ops15_Iter_less_iterEET_S4_S4_S4_T0_ = comdat any

$_ZSt9iter_swapIPdS0_EvT_T0_ = comdat any

$_ZSt4swapIdENSt9enable_ifIXsr6__and_ISt6__not_ISt15__is_tuple_likeIT_EESt21is_move_constructibleIS3_ESt18is_move_assignableIS3_EEE5valueEvE4typeERS3_SC_ = comdat any

$_ZSt16__insertion_sortIPdN9__gnu_cxx5__ops15_Iter_less_iterEEvT_S4_T0_ = comdat any

$_ZSt26__unguarded_insertion_sortIPdN9__gnu_cxx5__ops15_Iter_less_iterEEvT_S4_T0_ = comdat any

$_ZSt13move_backwardIPdS0_ET0_T_S2_S1_ = comdat any

$_ZSt25__unguarded_linear_insertIPdN9__gnu_cxx5__ops14_Val_less_iterEEvT_T0_ = comdat any

$_ZN9__gnu_cxx5__ops15__val_comp_iterENS0_15_Iter_less_iterE = comdat any

$_ZSt22__copy_move_backward_aILb1EPdS0_ET1_T0_S2_S1_ = comdat any

$_ZSt12__miter_baseIPdET_S1_ = comdat any

$_ZSt12__niter_wrapIPdET_RKS1_S1_ = comdat any

$_ZSt23__copy_move_backward_a1ILb1EPdS0_ET1_T0_S2_S1_ = comdat any

$_ZSt12__niter_baseIPdET_S1_ = comdat any

$_ZSt23__copy_move_backward_a2ILb1EPdS0_ET1_T0_S2_S1_ = comdat any

$_ZNSt20__copy_move_backwardILb1ELb1ESt26random_access_iterator_tagE13__copy_move_bIdEEPT_PKS3_S6_S4_ = comdat any

$_ZNK9__gnu_cxx5__ops14_Val_less_iterclIdPdEEbRT_T0_ = comdat any

$_ZNSt8_Rb_treeIiiSt9_IdentityIiESt4lessIiESaIiEEC2Ev = comdat any

$_ZNSt8_Rb_treeIiiSt9_IdentityIiESt4lessIiESaIiEE13_Rb_tree_implIS3_Lb1EEC2Ev = comdat any

$_ZNSaISt13_Rb_tree_nodeIiEEC2Ev = comdat any

$_ZNSt20_Rb_tree_key_compareISt4lessIiEEC2Ev = comdat any

$_ZNSt15_Rb_tree_headerC2Ev = comdat any

$_ZNSt15__new_allocatorISt13_Rb_tree_nodeIiEEC2Ev = comdat any

$_ZNSt15_Rb_tree_header8_M_resetEv = comdat any

$__clang_call_terminate = comdat any

$_ZNSt8_Rb_treeIiiSt9_IdentityIiESt4lessIiESaIiEED2Ev = comdat any

$_ZNSt8_Rb_treeIiiSt9_IdentityIiESt4lessIiESaIiEE8_M_eraseEPSt13_Rb_tree_nodeIiE = comdat any

$_ZNSt8_Rb_treeIiiSt9_IdentityIiESt4lessIiESaIiEE8_M_beginEv = comdat any

$_ZNSt8_Rb_treeIiiSt9_IdentityIiESt4lessIiESaIiEE13_Rb_tree_implIS3_Lb1EED2Ev = comdat any

$_ZNSt8_Rb_treeIiiSt9_IdentityIiESt4lessIiESaIiEE8_S_rightEPSt18_Rb_tree_node_base = comdat any

$_ZNSt8_Rb_treeIiiSt9_IdentityIiESt4lessIiESaIiEE7_S_leftEPSt18_Rb_tree_node_base = comdat any

$_ZNSt8_Rb_treeIiiSt9_IdentityIiESt4lessIiESaIiEE12_M_drop_nodeEPSt13_Rb_tree_nodeIiE = comdat any

$_ZNSt8_Rb_treeIiiSt9_IdentityIiESt4lessIiESaIiEE15_M_destroy_nodeEPSt13_Rb_tree_nodeIiE = comdat any

$_ZNSt8_Rb_treeIiiSt9_IdentityIiESt4lessIiESaIiEE11_M_put_nodeEPSt13_Rb_tree_nodeIiE = comdat any

$_ZNSt16allocator_traitsISaISt13_Rb_tree_nodeIiEEE7destroyIiEEvRS2_PT_ = comdat any

$_ZNSt8_Rb_treeIiiSt9_IdentityIiESt4lessIiESaIiEE21_M_get_Node_allocatorEv = comdat any

$_ZNSt13_Rb_tree_nodeIiE9_M_valptrEv = comdat any

$_ZNSt15__new_allocatorISt13_Rb_tree_nodeIiEE7destroyIiEEvPT_ = comdat any

$_ZN9__gnu_cxx16__aligned_membufIiE6_M_ptrEv = comdat any

$_ZN9__gnu_cxx16__aligned_membufIiE7_M_addrEv = comdat any

$_ZNSt16allocator_traitsISaISt13_Rb_tree_nodeIiEEE10deallocateERS2_PS1_m = comdat any

$_ZNSt15__new_allocatorISt13_Rb_tree_nodeIiEE10deallocateEPS1_m = comdat any

$_ZNKSt8_Rb_treeIiiSt9_IdentityIiESt4lessIiESaIiEE9_M_mbeginEv = comdat any

$_ZNSaISt13_Rb_tree_nodeIiEED2Ev = comdat any

$_ZNSt15__new_allocatorISt13_Rb_tree_nodeIiEED2Ev = comdat any

$_ZSt3maxIiERKT_S2_S2_ = comdat any

$_ZNSt6threadC2Ev = comdat any

$_ZSt3refIiESt17reference_wrapperIT_ERS1_ = comdat any

$_ZNSt6threadC2IRFv8ECLgraphPiPKiiS2_RiiiiEJRKS1_RS2_SA_S5_SA_St17reference_wrapperIiES5_S5_RS3_EvEEOT_DpOT0_ = comdat any

$_ZNSt6threadaSEOS_ = comdat any

$_ZNSt6threadD2Ev = comdat any

$_ZSt4swapIPiENSt9enable_ifIXsr6__and_ISt6__not_ISt15__is_tuple_likeIT_EESt21is_move_constructibleIS4_ESt18is_move_assignableIS4_EEE5valueEvE4typeERS4_SD_ = comdat any

$_ZNSt6thread2idC2Ev = comdat any

$_ZStanSt12memory_orderSt23__memory_order_modifier = comdat any

$_ZSt23__cmpexch_failure_orderSt12memory_order = comdat any

$_ZStorSt12memory_orderSt23__memory_order_modifier = comdat any

$_ZSt24__cmpexch_failure_order2St12memory_order = comdat any

$_ZNSt17reference_wrapperIiEC2IRivPiEEOT_ = comdat any

$_ZNSt17reference_wrapperIiE6_S_funERi = comdat any

$_ZSt7forwardIRiEOT_RNSt16remove_referenceIS1_E4typeE = comdat any

$_ZSt11__addressofIiEPT_RS0_ = comdat any

$_ZSt7forwardIRFv8ECLgraphPiPKiiS1_RiiiiEEOT_RNSt16remove_referenceIS7_E4typeE = comdat any

$_ZSt7forwardIRK8ECLgraphEOT_RNSt16remove_referenceIS3_E4typeE = comdat any

$_ZSt7forwardIRPiEOT_RNSt16remove_referenceIS2_E4typeE = comdat any

$_ZSt7forwardISt17reference_wrapperIiEEOT_RNSt16remove_referenceIS2_E4typeE = comdat any

$_ZSt7forwardIRKiEOT_RNSt16remove_referenceIS2_E4typeE = comdat any

$_ZNSt6thread11_State_implINS_8_InvokerISt5tupleIJPFv8ECLgraphPiPKiiS4_RiiiiES3_S4_S4_iS4_St17reference_wrapperIiEiiiEEEEEC2IJRS8_RKS3_RS4_SJ_S7_SJ_SB_S7_S7_RS5_EEEDpOT_ = comdat any

$_ZNSt10unique_ptrINSt6thread6_StateESt14default_deleteIS1_EEC2IS3_vEEPS1_ = comdat any

$_ZNSt10unique_ptrINSt6thread6_StateESt14default_deleteIS1_EED2Ev = comdat any

$_ZNSt6thread6_StateC2Ev = comdat any

$_ZNSt6thread8_InvokerISt5tupleIJPFv8ECLgraphPiPKiiS3_RiiiiES2_S3_S3_iS3_St17reference_wrapperIiEiiiEEEC2IJRS7_RKS2_RS3_SH_S6_SH_SA_S6_S6_RS4_EEEDpOT_ = comdat any

$_ZNSt6thread11_State_implINS_8_InvokerISt5tupleIJPFv8ECLgraphPiPKiiS4_RiiiiES3_S4_S4_iS4_St17reference_wrapperIiEiiiEEEEED2Ev = comdat any

$_ZNSt6thread11_State_implINS_8_InvokerISt5tupleIJPFv8ECLgraphPiPKiiS4_RiiiiES3_S4_S4_iS4_St17reference_wrapperIiEiiiEEEEED0Ev = comdat any

$_ZNSt6thread11_State_implINS_8_InvokerISt5tupleIJPFv8ECLgraphPiPKiiS4_RiiiiES3_S4_S4_iS4_St17reference_wrapperIiEiiiEEEEE6_M_runEv = comdat any

$_ZNSt5tupleIJPFv8ECLgraphPiPKiiS1_RiiiiES0_S1_S1_iS1_St17reference_wrapperIiEiiiEEC2IJRS5_RKS0_RS1_SE_S4_SE_S8_S4_S4_RS2_ELb1ELb1EEEDpOT_ = comdat any

$_ZNSt11_Tuple_implILm0EJPFv8ECLgraphPiPKiiS1_RiiiiES0_S1_S1_iS1_St17reference_wrapperIiEiiiEEC2IRS5_JRKS0_RS1_SE_S4_SE_S8_S4_S4_RS2_EvEEOT_DpOT0_ = comdat any

$_ZNSt11_Tuple_implILm1EJ8ECLgraphPiS1_iS1_St17reference_wrapperIiEiiiEEC2IRKS0_JRS1_S8_RiS8_S3_S9_S9_RKiEvEEOT_DpOT0_ = comdat any

$_ZNSt10_Head_baseILm0EPFv8ECLgraphPiPKiiS1_RiiiiELb0EEC2ERKS6_ = comdat any

$_ZNSt11_Tuple_implILm2EJPiS0_iS0_St17reference_wrapperIiEiiiEEC2IRS0_JS5_RiS5_S2_S6_S6_RKiEvEEOT_DpOT0_ = comdat any

$_ZNSt10_Head_baseILm1E8ECLgraphLb0EEC2ERKS0_ = comdat any

$_ZNSt11_Tuple_implILm3EJPiiS0_St17reference_wrapperIiEiiiEEC2IRS0_JRiS5_S2_S6_S6_RKiEvEEOT_DpOT0_ = comdat any

$_ZNSt10_Head_baseILm2EPiLb0EEC2IRS0_EEOT_ = comdat any

$_ZNSt11_Tuple_implILm4EJiPiSt17reference_wrapperIiEiiiEEC2IRiJRS0_S2_S5_S5_RKiEvEEOT_DpOT0_ = comdat any

$_ZNSt10_Head_baseILm3EPiLb0EEC2IRS0_EEOT_ = comdat any

$_ZNSt11_Tuple_implILm5EJPiSt17reference_wrapperIiEiiiEEC2IRS0_JS2_RiS6_RKiEvEEOT_DpOT0_ = comdat any

$_ZNSt10_Head_baseILm4EiLb0EEC2IRiEEOT_ = comdat any

$_ZNSt11_Tuple_implILm6EJSt17reference_wrapperIiEiiiEEC2IS1_JRiS4_RKiEvEEOT_DpOT0_ = comdat any

$_ZNSt10_Head_baseILm5EPiLb0EEC2IRS0_EEOT_ = comdat any

$_ZNSt11_Tuple_implILm7EJiiiEEC2IRiJS2_RKiEvEEOT_DpOT0_ = comdat any

$_ZNSt10_Head_baseILm6ESt17reference_wrapperIiELb0EEC2IS1_EEOT_ = comdat any

$_ZNSt11_Tuple_implILm8EJiiEEC2IRiJRKiEvEEOT_DpOT0_ = comdat any

$_ZNSt10_Head_baseILm7EiLb0EEC2IRiEEOT_ = comdat any

$_ZNSt11_Tuple_implILm9EJiEEC2ERKi = comdat any

$_ZNSt10_Head_baseILm8EiLb0EEC2IRiEEOT_ = comdat any

$_ZNSt10_Head_baseILm9EiLb0EEC2ERKi = comdat any

$_ZNSt6thread8_InvokerISt5tupleIJPFv8ECLgraphPiPKiiS3_RiiiiES2_S3_S3_iS3_St17reference_wrapperIiEiiiEEEclEv = comdat any

$_ZNSt6thread8_InvokerISt5tupleIJPFv8ECLgraphPiPKiiS3_RiiiiES2_S3_S3_iS3_St17reference_wrapperIiEiiiEEE9_M_invokeIJLm0ELm1ELm2ELm3ELm4ELm5ELm6ELm7ELm8ELm9EEEEvSt12_Index_tupleIJXspT_EEE = comdat any

$_ZSt8__invokeIPFv8ECLgraphPiPKiiS1_RiiiiEJS0_S1_S1_iS1_St17reference_wrapperIiEiiiEENSt15__invoke_resultIT_JDpT0_EE4typeEOSA_DpOSB_ = comdat any

$_ZSt3getILm0EJPFv8ECLgraphPiPKiiS1_RiiiiES0_S1_S1_iS1_St17reference_wrapperIiEiiiEEONSt13tuple_elementIXT_ESt5tupleIJDpT0_EEE4typeEOSD_ = comdat any

$_ZSt4moveIRSt5tupleIJPFv8ECLgraphPiPKiiS2_RiiiiES1_S2_S2_iS2_St17reference_wrapperIiEiiiEEEONSt16remove_referenceIT_E4typeEOSD_ = comdat any

$_ZSt3getILm1EJPFv8ECLgraphPiPKiiS1_RiiiiES0_S1_S1_iS1_St17reference_wrapperIiEiiiEEONSt13tuple_elementIXT_ESt5tupleIJDpT0_EEE4typeEOSD_ = comdat any

$_ZSt3getILm2EJPFv8ECLgraphPiPKiiS1_RiiiiES0_S1_S1_iS1_St17reference_wrapperIiEiiiEEONSt13tuple_elementIXT_ESt5tupleIJDpT0_EEE4typeEOSD_ = comdat any

$_ZSt3getILm3EJPFv8ECLgraphPiPKiiS1_RiiiiES0_S1_S1_iS1_St17reference_wrapperIiEiiiEEONSt13tuple_elementIXT_ESt5tupleIJDpT0_EEE4typeEOSD_ = comdat any

$_ZSt3getILm4EJPFv8ECLgraphPiPKiiS1_RiiiiES0_S1_S1_iS1_St17reference_wrapperIiEiiiEEONSt13tuple_elementIXT_ESt5tupleIJDpT0_EEE4typeEOSD_ = comdat any

$_ZSt3getILm5EJPFv8ECLgraphPiPKiiS1_RiiiiES0_S1_S1_iS1_St17reference_wrapperIiEiiiEEONSt13tuple_elementIXT_ESt5tupleIJDpT0_EEE4typeEOSD_ = comdat any

$_ZSt3getILm6EJPFv8ECLgraphPiPKiiS1_RiiiiES0_S1_S1_iS1_St17reference_wrapperIiEiiiEEONSt13tuple_elementIXT_ESt5tupleIJDpT0_EEE4typeEOSD_ = comdat any

$_ZSt3getILm7EJPFv8ECLgraphPiPKiiS1_RiiiiES0_S1_S1_iS1_St17reference_wrapperIiEiiiEEONSt13tuple_elementIXT_ESt5tupleIJDpT0_EEE4typeEOSD_ = comdat any

$_ZSt3getILm8EJPFv8ECLgraphPiPKiiS1_RiiiiES0_S1_S1_iS1_St17reference_wrapperIiEiiiEEONSt13tuple_elementIXT_ESt5tupleIJDpT0_EEE4typeEOSD_ = comdat any

$_ZSt3getILm9EJPFv8ECLgraphPiPKiiS1_RiiiiES0_S1_S1_iS1_St17reference_wrapperIiEiiiEEONSt13tuple_elementIXT_ESt5tupleIJDpT0_EEE4typeEOSD_ = comdat any

$_ZSt13__invoke_implIvPFv8ECLgraphPiPKiiS1_RiiiiEJS0_S1_S1_iS1_St17reference_wrapperIiEiiiEET_St14__invoke_otherOT0_DpOT1_ = comdat any

$_ZSt7forwardIPFv8ECLgraphPiPKiiS1_RiiiiEEOT_RNSt16remove_referenceIS7_E4typeE = comdat any

$_ZSt7forwardI8ECLgraphEOT_RNSt16remove_referenceIS1_E4typeE = comdat any

$_ZSt7forwardIPiEOT_RNSt16remove_referenceIS1_E4typeE = comdat any

$_ZSt7forwardIiEOT_RNSt16remove_referenceIS0_E4typeE = comdat any

$_ZNKSt17reference_wrapperIiEcvRiEv = comdat any

$_ZNKSt17reference_wrapperIiE3getEv = comdat any

$_ZSt12__get_helperILm0EPFv8ECLgraphPiPKiiS1_RiiiiEJS0_S1_S1_iS1_St17reference_wrapperIiEiiiEERT0_RSt11_Tuple_implIXT_EJS9_DpT1_EE = comdat any

$_ZNSt11_Tuple_implILm0EJPFv8ECLgraphPiPKiiS1_RiiiiES0_S1_S1_iS1_St17reference_wrapperIiEiiiEE7_M_headERS9_ = comdat any

$_ZNSt10_Head_baseILm0EPFv8ECLgraphPiPKiiS1_RiiiiELb0EE7_M_headERS7_ = comdat any

$_ZSt12__get_helperILm1E8ECLgraphJPiS1_iS1_St17reference_wrapperIiEiiiEERT0_RSt11_Tuple_implIXT_EJS4_DpT1_EE = comdat any

$_ZNSt11_Tuple_implILm1EJ8ECLgraphPiS1_iS1_St17reference_wrapperIiEiiiEE7_M_headERS4_ = comdat any

$_ZNSt10_Head_baseILm1E8ECLgraphLb0EE7_M_headERS1_ = comdat any

$_ZSt12__get_helperILm2EPiJS0_iS0_St17reference_wrapperIiEiiiEERT0_RSt11_Tuple_implIXT_EJS3_DpT1_EE = comdat any

$_ZNSt11_Tuple_implILm2EJPiS0_iS0_St17reference_wrapperIiEiiiEE7_M_headERS3_ = comdat any

$_ZNSt10_Head_baseILm2EPiLb0EE7_M_headERS1_ = comdat any

$_ZSt12__get_helperILm3EPiJiS0_St17reference_wrapperIiEiiiEERT0_RSt11_Tuple_implIXT_EJS3_DpT1_EE = comdat any

$_ZNSt11_Tuple_implILm3EJPiiS0_St17reference_wrapperIiEiiiEE7_M_headERS3_ = comdat any

$_ZNSt10_Head_baseILm3EPiLb0EE7_M_headERS1_ = comdat any

$_ZSt12__get_helperILm4EiJPiSt17reference_wrapperIiEiiiEERT0_RSt11_Tuple_implIXT_EJS3_DpT1_EE = comdat any

$_ZNSt11_Tuple_implILm4EJiPiSt17reference_wrapperIiEiiiEE7_M_headERS3_ = comdat any

$_ZNSt10_Head_baseILm4EiLb0EE7_M_headERS0_ = comdat any

$_ZSt12__get_helperILm5EPiJSt17reference_wrapperIiEiiiEERT0_RSt11_Tuple_implIXT_EJS3_DpT1_EE = comdat any

$_ZNSt11_Tuple_implILm5EJPiSt17reference_wrapperIiEiiiEE7_M_headERS3_ = comdat any

$_ZNSt10_Head_baseILm5EPiLb0EE7_M_headERS1_ = comdat any

$_ZSt12__get_helperILm6ESt17reference_wrapperIiEJiiiEERT0_RSt11_Tuple_implIXT_EJS2_DpT1_EE = comdat any

$_ZNSt11_Tuple_implILm6EJSt17reference_wrapperIiEiiiEE7_M_headERS2_ = comdat any

$_ZNSt10_Head_baseILm6ESt17reference_wrapperIiELb0EE7_M_headERS2_ = comdat any

$_ZSt12__get_helperILm7EiJiiEERT0_RSt11_Tuple_implIXT_EJS0_DpT1_EE = comdat any

$_ZNSt11_Tuple_implILm7EJiiiEE7_M_headERS0_ = comdat any

$_ZNSt10_Head_baseILm7EiLb0EE7_M_headERS0_ = comdat any

$_ZSt12__get_helperILm8EiJiEERT0_RSt11_Tuple_implIXT_EJS0_DpT1_EE = comdat any

$_ZNSt11_Tuple_implILm8EJiiEE7_M_headERS0_ = comdat any

$_ZNSt10_Head_baseILm8EiLb0EE7_M_headERS0_ = comdat any

$_ZSt12__get_helperILm9EiJEERT0_RSt11_Tuple_implIXT_EJS0_DpT1_EE = comdat any

$_ZNSt11_Tuple_implILm9EJiEE7_M_headERS0_ = comdat any

$_ZNSt10_Head_baseILm9EiLb0EE7_M_headERS0_ = comdat any

$_ZNSt15__uniq_ptr_dataINSt6thread6_StateESt14default_deleteIS1_ELb1ELb1EECI2St15__uniq_ptr_implIS1_S3_EEPS1_ = comdat any

$_ZNSt15__uniq_ptr_implINSt6thread6_StateESt14default_deleteIS1_EEC2EPS1_ = comdat any

$_ZNSt5tupleIJPNSt6thread6_StateESt14default_deleteIS1_EEEC2ILb1ELb1EEEv = comdat any

$_ZNSt15__uniq_ptr_implINSt6thread6_StateESt14default_deleteIS1_EE6_M_ptrEv = comdat any

$_ZNSt11_Tuple_implILm0EJPNSt6thread6_StateESt14default_deleteIS1_EEEC2Ev = comdat any

$_ZNSt11_Tuple_implILm1EJSt14default_deleteINSt6thread6_StateEEEEC2Ev = comdat any

$_ZNSt10_Head_baseILm0EPNSt6thread6_StateELb0EEC2Ev = comdat any

$_ZNSt10_Head_baseILm1ESt14default_deleteINSt6thread6_StateEELb1EEC2Ev = comdat any

$_ZSt3getILm0EJPNSt6thread6_StateESt14default_deleteIS1_EEERNSt13tuple_elementIXT_ESt5tupleIJDpT0_EEE4typeERS9_ = comdat any

$_ZSt12__get_helperILm0EPNSt6thread6_StateEJSt14default_deleteIS1_EEERT0_RSt11_Tuple_implIXT_EJS5_DpT1_EE = comdat any

$_ZNSt11_Tuple_implILm0EJPNSt6thread6_StateESt14default_deleteIS1_EEE7_M_headERS5_ = comdat any

$_ZNSt10_Head_baseILm0EPNSt6thread6_StateELb0EE7_M_headERS3_ = comdat any

$_ZNSt10unique_ptrINSt6thread6_StateESt14default_deleteIS1_EE11get_deleterEv = comdat any

$_ZNKSt14default_deleteINSt6thread6_StateEEclEPS1_ = comdat any

$_ZSt4moveIRPNSt6thread6_StateEEONSt16remove_referenceIT_E4typeEOS5_ = comdat any

$_ZNSt15__uniq_ptr_implINSt6thread6_StateESt14default_deleteIS1_EE10_M_deleterEv = comdat any

$_ZSt3getILm1EJPNSt6thread6_StateESt14default_deleteIS1_EEERNSt13tuple_elementIXT_ESt5tupleIJDpT0_EEE4typeERS9_ = comdat any

$_ZSt12__get_helperILm1ESt14default_deleteINSt6thread6_StateEEJEERT0_RSt11_Tuple_implIXT_EJS4_DpT1_EE = comdat any

$_ZNSt11_Tuple_implILm1EJSt14default_deleteINSt6thread6_StateEEEE7_M_headERS4_ = comdat any

$_ZNSt10_Head_baseILm1ESt14default_deleteINSt6thread6_StateEELb1EE7_M_headERS4_ = comdat any

$_ZNKSt6thread8joinableEv = comdat any

$_ZNSt6thread4swapERS_ = comdat any

$_ZSteqNSt6thread2idES0_ = comdat any

$_ZSt4swapINSt6thread2idEENSt9enable_ifIXsr6__and_ISt6__not_ISt15__is_tuple_likeIT_EESt21is_move_constructibleIS5_ESt18is_move_assignableIS5_EEE5valueEvE4typeERS5_SE_ = comdat any

$_ZSt4moveIRNSt6thread2idEEONSt16remove_referenceIT_E4typeEOS4_ = comdat any

$_ZSt4moveIRPiEONSt16remove_referenceIT_E4typeEOS3_ = comdat any

$_ZNSt8_Rb_treeIiiSt9_IdentityIiESt4lessIiESaIiEE16_M_insert_uniqueIRKiEESt4pairISt17_Rb_tree_iteratorIiEbEOT_ = comdat any

$_ZNSt4pairISt23_Rb_tree_const_iteratorIiEbEC2IRSt17_Rb_tree_iteratorIiERbLb1EEEOT_OT0_ = comdat any

$_ZNSt8_Rb_treeIiiSt9_IdentityIiESt4lessIiESaIiEE24_M_get_insert_unique_posERKi = comdat any

$_ZNKSt9_IdentityIiEclERKi = comdat any

$_ZNSt8_Rb_treeIiiSt9_IdentityIiESt4lessIiESaIiEE11_Alloc_nodeC2ERS5_ = comdat any

$_ZNSt8_Rb_treeIiiSt9_IdentityIiESt4lessIiESaIiEE10_M_insert_IRKiNS5_11_Alloc_nodeEEESt17_Rb_tree_iteratorIiEPSt18_Rb_tree_node_baseSD_OT_RT0_ = comdat any

$_ZNSt4pairISt17_Rb_tree_iteratorIiEbEC2IS1_bLb1EEEOT_OT0_ = comdat any

$_ZNSt17_Rb_tree_iteratorIiEC2EPSt18_Rb_tree_node_base = comdat any

$_ZNSt8_Rb_treeIiiSt9_IdentityIiESt4lessIiESaIiEE6_M_endEv = comdat any

$_ZNKSt4lessIiEclERKiS2_ = comdat any

$_ZNSt8_Rb_treeIiiSt9_IdentityIiESt4lessIiESaIiEE6_S_keyEPKSt13_Rb_tree_nodeIiE = comdat any

$_ZSteqRKSt17_Rb_tree_iteratorIiES2_ = comdat any

$_ZNSt8_Rb_treeIiiSt9_IdentityIiESt4lessIiESaIiEE5beginEv = comdat any

$_ZNSt4pairIPSt18_Rb_tree_node_baseS1_EC2IRPSt13_Rb_tree_nodeIiERS1_Lb1EEEOT_OT0_ = comdat any

$_ZNSt17_Rb_tree_iteratorIiEmmEv = comdat any

$_ZNSt8_Rb_treeIiiSt9_IdentityIiESt4lessIiESaIiEE6_S_keyEPKSt18_Rb_tree_node_base = comdat any

$_ZNSt4pairIPSt18_Rb_tree_node_baseS1_EC2IS1_S1_Lb1EEERKS1_S5_ = comdat any

$_ZNKSt13_Rb_tree_nodeIiE9_M_valptrEv = comdat any

$_ZNK9__gnu_cxx16__aligned_membufIiE6_M_ptrEv = comdat any

$_ZNK9__gnu_cxx16__aligned_membufIiE7_M_addrEv = comdat any

$_ZSt7forwardIRPSt13_Rb_tree_nodeIiEEOT_RNSt16remove_referenceIS4_E4typeE = comdat any

$_ZSt7forwardIRPSt18_Rb_tree_node_baseEOT_RNSt16remove_referenceIS3_E4typeE = comdat any

$_ZNKSt8_Rb_treeIiiSt9_IdentityIiESt4lessIiESaIiEE11_Alloc_nodeclIRKiEEPSt13_Rb_tree_nodeIiEOT_ = comdat any

$_ZNSt8_Rb_treeIiiSt9_IdentityIiESt4lessIiESaIiEE14_M_create_nodeIJRKiEEEPSt13_Rb_tree_nodeIiEDpOT_ = comdat any

$_ZNSt8_Rb_treeIiiSt9_IdentityIiESt4lessIiESaIiEE11_M_get_nodeEv = comdat any

$_ZNSt8_Rb_treeIiiSt9_IdentityIiESt4lessIiESaIiEE17_M_construct_nodeIJRKiEEEvPSt13_Rb_tree_nodeIiEDpOT_ = comdat any

$_ZNSt16allocator_traitsISaISt13_Rb_tree_nodeIiEEE8allocateERS2_m = comdat any

$_ZNSt15__new_allocatorISt13_Rb_tree_nodeIiEE8allocateEmPKv = comdat any

$_ZNKSt15__new_allocatorISt13_Rb_tree_nodeIiEE11_M_max_sizeEv = comdat any

$_ZNSt16allocator_traitsISaISt13_Rb_tree_nodeIiEEE9constructIiJRKiEEEvRS2_PT_DpOT0_ = comdat any

$_ZNSt15__new_allocatorISt13_Rb_tree_nodeIiEE9constructIiJRKiEEEvPT_DpOT0_ = comdat any

$_ZSt7forwardISt17_Rb_tree_iteratorIiEEOT_RNSt16remove_referenceIS2_E4typeE = comdat any

$_ZSt7forwardIbEOT_RNSt16remove_referenceIS0_E4typeE = comdat any

$_ZSt7forwardIRSt17_Rb_tree_iteratorIiEEOT_RNSt16remove_referenceIS3_E4typeE = comdat any

$_ZNSt23_Rb_tree_const_iteratorIiEC2ERKSt17_Rb_tree_iteratorIiE = comdat any

$_ZSt7forwardIRbEOT_RNSt16remove_referenceIS1_E4typeE = comdat any

$_ZNKSt8_Rb_treeIiiSt9_IdentityIiESt4lessIiESaIiEE4sizeEv = comdat any

$_ZTVNSt6thread11_State_implINS_8_InvokerISt5tupleIJPFv8ECLgraphPiPKiiS4_RiiiiES3_S4_S4_iS4_St17reference_wrapperIiEiiiEEEEEE = comdat any

$_ZTSNSt6thread11_State_implINS_8_InvokerISt5tupleIJPFv8ECLgraphPiPKiiS4_RiiiiES3_S4_S4_iS4_St17reference_wrapperIiEiiiEEEEEE = comdat any

$_ZTINSt6thread11_State_implINS_8_InvokerISt5tupleIJPFv8ECLgraphPiPKiiS4_RiiiiES3_S4_S4_iS4_St17reference_wrapperIiEiiiEEEEEE = comdat any

@.str = private unnamed_addr constant [3 x i8] c"rb\00", align 1
@stderr = external global %struct._IO_FILE*, align 8
@.str.1 = private unnamed_addr constant [32 x i8] c"ERROR: could not open file %s\0A\0A\00", align 1
@.str.2 = private unnamed_addr constant [30 x i8] c"ERROR: failed to read nodes\0A\0A\00", align 1
@.str.3 = private unnamed_addr constant [30 x i8] c"ERROR: failed to read edges\0A\0A\00", align 1
@.str.4 = private unnamed_addr constant [36 x i8] c"input graph: %d nodes and %d edges\0A\00", align 1
@.str.5 = private unnamed_addr constant [36 x i8] c"ERROR: node or edge count too low\0A\0A\00", align 1
@.str.6 = private unnamed_addr constant [34 x i8] c"ERROR: memory allocation failed\0A\0A\00", align 1
@.str.7 = private unnamed_addr constant [44 x i8] c"ERROR: failed to read neighbor index list\0A\0A\00", align 1
@.str.8 = private unnamed_addr constant [38 x i8] c"ERROR: failed to read neighbor list\0A\0A\00", align 1
@.str.9 = private unnamed_addr constant [37 x i8] c"ERROR: failed to read edge weights\0A\0A\00", align 1
@.str.10 = private unnamed_addr constant [3 x i8] c"wb\00", align 1
@.str.11 = private unnamed_addr constant [31 x i8] c"ERROR: failed to write nodes\0A\0A\00", align 1
@.str.12 = private unnamed_addr constant [31 x i8] c"ERROR: failed to write edges\0A\0A\00", align 1
@.str.13 = private unnamed_addr constant [45 x i8] c"ERROR: failed to write neighbor index list\0A\0A\00", align 1
@.str.14 = private unnamed_addr constant [39 x i8] c"ERROR: failed to write neighbor list\0A\0A\00", align 1
@.str.15 = private unnamed_addr constant [38 x i8] c"ERROR: failed to write edge weights\0A\0A\00", align 1
@.str.16 = private unnamed_addr constant [26 x i8] c"cc vertex-based CPP (%s)\0A\00", align 1
@.str.17 = private unnamed_addr constant [82 x i8] c"/home/lukasrothenberger/git/Parallelization-Artifact-SC23/include/cc_vertex_cpp.h\00", align 1
@.str.18 = private unnamed_addr constant [57 x i8] c"USAGE: %s input_file_name verify thread_count(optional)\0A\00", align 1
@.str.19 = private unnamed_addr constant [11 x i8] c"input: %s\0A\00", align 1
@.str.20 = private unnamed_addr constant [11 x i8] c"nodes: %d\0A\00", align 1
@.str.21 = private unnamed_addr constant [11 x i8] c"edges: %d\0A\00", align 1
@.str.22 = private unnamed_addr constant [51 x i8] c"has to be 0 (turn off) or 1 (turn on) verification\00", align 1
@.str.23 = private unnamed_addr constant [13 x i8] c"Threads: %d\0A\00", align 1
@.str.24 = private unnamed_addr constant [20 x i8] c"CPP runtime: %.6fs\0A\00", align 1
@.str.25 = private unnamed_addr constant [34 x i8] c"CPP Throughput: %.6f gigaedges/s\0A\00", align 1
@.str.26 = private unnamed_addr constant [36 x i8] c"number of connected components: %d\0A\00", align 1
@.str.27 = private unnamed_addr constant [54 x i8] c"ERROR: found adjacent nodes in different components\0A\0A\00", align 1
@.str.28 = private unnamed_addr constant [31 x i8] c"ERROR: found sentinel number\0A\0A\00", align 1
@.str.29 = private unnamed_addr constant [43 x i8] c"ERROR: number of components do not match\0A\0A\00", align 1
@.str.30 = private unnamed_addr constant [38 x i8] c"ERROR: component IDs are not unique\0A\0A\00", align 1
@.str.31 = private unnamed_addr constant [22 x i8] c"verification passed\0A\0A\00", align 1
@.str.32 = private unnamed_addr constant [24 x i8] c"turn off verification\0A\0A\00", align 1
@.str.33 = private unnamed_addr constant [34 x i8] c"ERROR: found incorrect ID value\0A\0A\00", align 1
@.str.34 = private unnamed_addr constant [16 x i8] c"iterations: %d\0A\00", align 1
@_ZTVNSt6thread11_State_implINS_8_InvokerISt5tupleIJPFv8ECLgraphPiPKiiS4_RiiiiES3_S4_S4_iS4_St17reference_wrapperIiEiiiEEEEEE = linkonce_odr unnamed_addr constant { [5 x i8*] } { [5 x i8*] [i8* null, i8* bitcast ({ i8*, i8*, i8* }* @_ZTINSt6thread11_State_implINS_8_InvokerISt5tupleIJPFv8ECLgraphPiPKiiS4_RiiiiES3_S4_S4_iS4_St17reference_wrapperIiEiiiEEEEEE to i8*), i8* bitcast (void (%"struct.std::thread::_State_impl"*)* @_ZNSt6thread11_State_implINS_8_InvokerISt5tupleIJPFv8ECLgraphPiPKiiS4_RiiiiES3_S4_S4_iS4_St17reference_wrapperIiEiiiEEEEED2Ev to i8*), i8* bitcast (void (%"struct.std::thread::_State_impl"*)* @_ZNSt6thread11_State_implINS_8_InvokerISt5tupleIJPFv8ECLgraphPiPKiiS4_RiiiiES3_S4_S4_iS4_St17reference_wrapperIiEiiiEEEEED0Ev to i8*), i8* bitcast (void (%"struct.std::thread::_State_impl"*)* @_ZNSt6thread11_State_implINS_8_InvokerISt5tupleIJPFv8ECLgraphPiPKiiS4_RiiiiES3_S4_S4_iS4_St17reference_wrapperIiEiiiEEEEE6_M_runEv to i8*)] }, comdat, align 8
@_ZTVN10__cxxabiv120__si_class_type_infoE = external global i8*
@_ZTSNSt6thread11_State_implINS_8_InvokerISt5tupleIJPFv8ECLgraphPiPKiiS4_RiiiiES3_S4_S4_iS4_St17reference_wrapperIiEiiiEEEEEE = linkonce_odr constant [121 x i8] c"NSt6thread11_State_implINS_8_InvokerISt5tupleIJPFv8ECLgraphPiPKiiS4_RiiiiES3_S4_S4_iS4_St17reference_wrapperIiEiiiEEEEEE\00", comdat, align 1
@_ZTINSt6thread6_StateE = external constant i8*
@_ZTINSt6thread11_State_implINS_8_InvokerISt5tupleIJPFv8ECLgraphPiPKiiS4_RiiiiES3_S4_S4_iS4_St17reference_wrapperIiEiiiEEEEEE = linkonce_odr constant { i8*, i8*, i8* } { i8* bitcast (i8** getelementptr inbounds (i8*, i8** @_ZTVN10__cxxabiv120__si_class_type_infoE, i64 2) to i8*), i8* getelementptr inbounds ([121 x i8], [121 x i8]* @_ZTSNSt6thread11_State_implINS_8_InvokerISt5tupleIJPFv8ECLgraphPiPKiiS4_RiiiiES3_S4_S4_iS4_St17reference_wrapperIiEiiiEEEEEE, i32 0, i32 0), i8* bitcast (i8** @_ZTINSt6thread6_StateE to i8*) }, comdat, align 8
@_ZTVNSt6thread6_StateE = external unnamed_addr constant { [5 x i8*] }, align 8
@.str.35 = private unnamed_addr constant [6 x i8] c"fname\00", align 1
@.str.36 = private unnamed_addr constant [4 x i8] c"cnt\00", align 1
@.str.37 = private unnamed_addr constant [2 x i8] c"f\00", align 1
@.str.38 = private unnamed_addr constant [7 x i8] c"stderr\00", align 1
@.str.39 = private unnamed_addr constant [21 x i8] c"GEPRESULT_agg.result\00", align 1
@.str.40 = private unnamed_addr constant [1 x i8] zeroinitializer, align 1
@.str.41 = private unnamed_addr constant [12 x i8] c"GEPRESULT_g\00", align 1
@.str.42 = private unnamed_addr constant [2 x i8] c"g\00", align 1
@.str.43 = private unnamed_addr constant [5 x i8] c".str\00", align 1
@.str.44 = private unnamed_addr constant [7 x i8] c".str.1\00", align 1
@.str.45 = private unnamed_addr constant [7 x i8] c".str.2\00", align 1
@.str.46 = private unnamed_addr constant [7 x i8] c".str.3\00", align 1
@.str.47 = private unnamed_addr constant [7 x i8] c".str.4\00", align 1
@.str.48 = private unnamed_addr constant [7 x i8] c".str.5\00", align 1
@.str.49 = private unnamed_addr constant [7 x i8] c".str.6\00", align 1
@.str.50 = private unnamed_addr constant [7 x i8] c".str.7\00", align 1
@.str.51 = private unnamed_addr constant [7 x i8] c".str.8\00", align 1
@.str.52 = private unnamed_addr constant [7 x i8] c".str.9\00", align 1
@.str.53 = private unnamed_addr constant [8 x i8] c".str.10\00", align 1
@.str.54 = private unnamed_addr constant [8 x i8] c".str.11\00", align 1
@.str.55 = private unnamed_addr constant [8 x i8] c".str.12\00", align 1
@.str.56 = private unnamed_addr constant [8 x i8] c".str.13\00", align 1
@.str.57 = private unnamed_addr constant [8 x i8] c".str.14\00", align 1
@.str.58 = private unnamed_addr constant [8 x i8] c".str.15\00", align 1
@.str.59 = private unnamed_addr constant [8 x i8] c".str.16\00", align 1
@.str.60 = private unnamed_addr constant [8 x i8] c".str.17\00", align 1
@.str.61 = private unnamed_addr constant [8 x i8] c".str.18\00", align 1
@.str.62 = private unnamed_addr constant [8 x i8] c".str.19\00", align 1
@.str.63 = private unnamed_addr constant [8 x i8] c".str.20\00", align 1
@.str.64 = private unnamed_addr constant [8 x i8] c".str.21\00", align 1
@.str.65 = private unnamed_addr constant [8 x i8] c".str.22\00", align 1
@.str.66 = private unnamed_addr constant [8 x i8] c".str.23\00", align 1
@.str.67 = private unnamed_addr constant [8 x i8] c".str.24\00", align 1
@.str.68 = private unnamed_addr constant [8 x i8] c".str.25\00", align 1
@.str.69 = private unnamed_addr constant [8 x i8] c".str.26\00", align 1
@.str.70 = private unnamed_addr constant [8 x i8] c".str.27\00", align 1
@.str.71 = private unnamed_addr constant [8 x i8] c".str.28\00", align 1
@.str.72 = private unnamed_addr constant [8 x i8] c".str.29\00", align 1
@.str.73 = private unnamed_addr constant [8 x i8] c".str.30\00", align 1
@.str.74 = private unnamed_addr constant [8 x i8] c".str.31\00", align 1
@.str.75 = private unnamed_addr constant [8 x i8] c".str.32\00", align 1
@.str.76 = private unnamed_addr constant [8 x i8] c".str.33\00", align 1
@.str.77 = private unnamed_addr constant [8 x i8] c".str.34\00", align 1
@.str.78 = private unnamed_addr constant [125 x i8] c"_ZTVNSt6thread11_State_implINS_8_InvokerISt5tupleIJPFv8ECLgraphPiPKiiS4_RiiiiES3_S4_S4_iS4_St17reference_wrapperIiEiiiEEEEEE\00", align 1
@.str.79 = private unnamed_addr constant [41 x i8] c"_ZTVN10__cxxabiv120__si_class_type_infoE\00", align 1
@.str.80 = private unnamed_addr constant [125 x i8] c"_ZTSNSt6thread11_State_implINS_8_InvokerISt5tupleIJPFv8ECLgraphPiPKiiS4_RiiiiES3_S4_S4_iS4_St17reference_wrapperIiEiiiEEEEEE\00", align 1
@.str.81 = private unnamed_addr constant [23 x i8] c"_ZTINSt6thread6_StateE\00", align 1
@.str.82 = private unnamed_addr constant [125 x i8] c"_ZTINSt6thread11_State_implINS_8_InvokerISt5tupleIJPFv8ECLgraphPiPKiiS4_RiiiiES3_S4_S4_iS4_St17reference_wrapperIiEiiiEEEEEE\00", align 1
@.str.83 = private unnamed_addr constant [23 x i8] c"_ZTVNSt6thread6_StateE\00", align 1
@.str.84 = private unnamed_addr constant [8 x i8] c".str.35\00", align 1
@.str.85 = private unnamed_addr constant [8 x i8] c".str.36\00", align 1
@.str.86 = private unnamed_addr constant [8 x i8] c".str.37\00", align 1
@.str.87 = private unnamed_addr constant [8 x i8] c".str.38\00", align 1
@.str.88 = private unnamed_addr constant [8 x i8] c".str.39\00", align 1
@.str.89 = private unnamed_addr constant [8 x i8] c".str.40\00", align 1
@.str.90 = private unnamed_addr constant [8 x i8] c".str.41\00", align 1
@.str.91 = private unnamed_addr constant [7 x i8] c"retval\00", align 1
@.str.92 = private unnamed_addr constant [5 x i8] c"argc\00", align 1
@.str.93 = private unnamed_addr constant [5 x i8] c"argv\00", align 1
@.str.94 = private unnamed_addr constant [8 x i8] c"runveri\00", align 1
@.str.95 = private unnamed_addr constant [12 x i8] c"threadCount\00", align 1
@.str.96 = private unnamed_addr constant [9 x i8] c"countInt\00", align 1
@.str.97 = private unnamed_addr constant [6 x i8] c"label\00", align 1
@.str.98 = private unnamed_addr constant [5 x i8] c"runs\00", align 1
@.str.99 = private unnamed_addr constant [9 x i8] c"runtimes\00", align 1
@.str.100 = private unnamed_addr constant [2 x i8] c"i\00", align 1
@.str.101 = private unnamed_addr constant [8 x i8] c"agg.tmp\00", align 1
@.str.102 = private unnamed_addr constant [4 x i8] c"med\00", align 1
@.str.103 = private unnamed_addr constant [3 x i8] c"s1\00", align 1
@.str.104 = private unnamed_addr constant [2 x i8] c"v\00", align 1
@.str.105 = private unnamed_addr constant [9 x i8] c"exn.slot\00", align 1
@.str.106 = private unnamed_addr constant [16 x i8] c"ehselector.slot\00", align 1
@.str.107 = private unnamed_addr constant [7 x i8] c"coerce\00", align 1
@.str.108 = private unnamed_addr constant [3 x i8] c"s2\00", align 1
@.str.109 = private unnamed_addr constant [6 x i8] c"count\00", align 1
@.str.110 = private unnamed_addr constant [10 x i8] c"coerce113\00", align 1
@.str.111 = private unnamed_addr constant [15 x i8] c"GEPRESULT_argv\00", align 1
@.str.112 = private unnamed_addr constant [19 x i8] c"GEPRESULT_runtimes\00", align 1
@.str.113 = private unnamed_addr constant [2 x i8] c"*\00", align 1
@.str.114 = private unnamed_addr constant [22 x i8] c"GEPRESULT_GEPRESULT_g\00", align 1
@.str.115 = private unnamed_addr constant [16 x i8] c"GEPRESULT_label\00", align 1
@.str.116 = private unnamed_addr constant [5 x i8] c"size\00", align 1
@.str.117 = private unnamed_addr constant [7 x i8] c"wlsize\00", align 1
@.str.118 = private unnamed_addr constant [4 x i8] c"wl1\00", align 1
@.str.119 = private unnamed_addr constant [4 x i8] c"wl2\00", align 1
@.str.120 = private unnamed_addr constant [8 x i8] c"wl1size\00", align 1
@.str.121 = private unnamed_addr constant [8 x i8] c"wl2size\00", align 1
@.str.122 = private unnamed_addr constant [12 x i8] c"saved_stack\00", align 1
@.str.123 = private unnamed_addr constant [12 x i8] c"__vla_expr0\00", align 1
@.str.124 = private unnamed_addr constant [6 x i8] c"start\00", align 1
@.str.125 = private unnamed_addr constant [4 x i8] c"end\00", align 1
@.str.126 = private unnamed_addr constant [5 x i8] c"iter\00", align 1
@.str.127 = private unnamed_addr constant [8 x i8] c"ref.tmp\00", align 1
@.str.128 = private unnamed_addr constant [9 x i8] c"ref.tmp6\00", align 1
@.str.129 = private unnamed_addr constant [8 x i8] c"runtime\00", align 1
@.str.130 = private unnamed_addr constant [5 x i8] c"call\00", align 1
@.str.131 = private unnamed_addr constant [14 x i8] c"threadHandles\00", align 1
@.str.132 = private unnamed_addr constant [19 x i8] c"GEPRESULT_ref.tmp6\00", align 1
@.str.133 = private unnamed_addr constant [14 x i8] c"GEPRESULT_end\00", align 1
@.str.134 = private unnamed_addr constant [16 x i8] c"GEPRESULT_start\00", align 1
@.str.135 = private unnamed_addr constant [6 x i8] c"array\00", align 1
@.str.136 = private unnamed_addr constant [2 x i8] c"n\00", align 1
@.str.137 = private unnamed_addr constant [7 x i8] c"median\00", align 1
@.str.138 = private unnamed_addr constant [16 x i8] c"GEPRESULT_array\00", align 1
@.str.139 = private unnamed_addr constant [3 x i8] c"id\00", align 1
@.str.140 = private unnamed_addr constant [5 x i8] c"nidx\00", align 1
@.str.141 = private unnamed_addr constant [6 x i8] c"nlist\00", align 1
@.str.142 = private unnamed_addr constant [6 x i8] c"nstat\00", align 1
@.str.143 = private unnamed_addr constant [6 x i8] c"nodes\00", align 1
@.str.144 = private unnamed_addr constant [16 x i8] c"GEPRESULT_nstat\00", align 1
@.str.145 = private unnamed_addr constant [15 x i8] c"GEPRESULT_nidx\00", align 1
@.str.146 = private unnamed_addr constant [16 x i8] c"GEPRESULT_nlist\00", align 1
@.str.147 = private unnamed_addr constant [14 x i8] c"GEPRESULT_wl1\00", align 1
@.str.148 = private unnamed_addr constant [9 x i8] c"threadID\00", align 1
@.str.149 = private unnamed_addr constant [8 x i8] c"begNode\00", align 1
@.str.150 = private unnamed_addr constant [8 x i8] c"endNode\00", align 1
@.str.151 = private unnamed_addr constant [4 x i8] c"idx\00", align 1
@.str.152 = private unnamed_addr constant [4 x i8] c"src\00", align 1
@.str.153 = private unnamed_addr constant [10 x i8] c"new_label\00", align 1
@.str.154 = private unnamed_addr constant [4 x i8] c"beg\00", align 1
@.str.155 = private unnamed_addr constant [7 x i8] c"update\00", align 1
@.str.156 = private unnamed_addr constant [4 x i8] c"dst\00", align 1
@.str.157 = private unnamed_addr constant [2 x i8] c"d\00", align 1
@.str.158 = private unnamed_addr constant [14 x i8] c"GEPRESULT_wl2\00", align 1
@.str.159 = private unnamed_addr constant [7 x i8] c"this.i\00", align 1
@.str.160 = private unnamed_addr constant [6 x i8] c"__i.i\00", align 1
@.str.161 = private unnamed_addr constant [6 x i8] c"__m.i\00", align 1
@.str.162 = private unnamed_addr constant [4 x i8] c"__b\00", align 1
@.str.163 = private unnamed_addr constant [13 x i8] c".atomictmp.i\00", align 1
@.str.164 = private unnamed_addr constant [5 x i8] c"addr\00", align 1
@.str.165 = private unnamed_addr constant [4 x i8] c"val\00", align 1
@.str.166 = private unnamed_addr constant [18 x i8] c"GEPRESULT_this1.i\00", align 1
@.str.167 = private unnamed_addr constant [9 x i8] c"this.i.i\00", align 1
@.str.168 = private unnamed_addr constant [9 x i8] c"__i1.i.i\00", align 1
@.str.169 = private unnamed_addr constant [9 x i8] c"__i2.i.i\00", align 1
@.str.170 = private unnamed_addr constant [9 x i8] c"__m1.i.i\00", align 1
@.str.171 = private unnamed_addr constant [9 x i8] c"__m2.i.i\00", align 1
@.str.172 = private unnamed_addr constant [15 x i8] c".atomictmp.i.i\00", align 1
@.str.173 = private unnamed_addr constant [17 x i8] c"cmpxchg.bool.i.i\00", align 1
@.str.174 = private unnamed_addr constant [8 x i8] c"this.i3\00", align 1
@.str.175 = private unnamed_addr constant [7 x i8] c"__i1.i\00", align 1
@.str.176 = private unnamed_addr constant [7 x i8] c"__i2.i\00", align 1
@.str.177 = private unnamed_addr constant [7 x i8] c"__m.i4\00", align 1
@.str.178 = private unnamed_addr constant [14 x i8] c"atomic-temp.i\00", align 1
@.str.179 = private unnamed_addr constant [5 x i8] c"oldv\00", align 1

; Function Attrs: noinline optnone uwtable
define void @_Z12readECLgraphPKc(%struct.ECLgraph* noalias sret align 8 %agg.result, i8* %fname) #0 !dbg !2208 {
entry:
  call void @__dp_func_entry(i32 16436, i32 0), !dp.md.instr.id !2212
  %fname.addr = alloca i8*, align 8, !dp.md.instr.id !2213
  %0 = ptrtoint i8** %fname.addr to i64, !dp.md.instr.id !2214
  %cnt = alloca i32, align 4, !dp.md.instr.id !2215
  %1 = ptrtoint i32* %cnt to i64, !dp.md.instr.id !2216
  %f = alloca %struct._IO_FILE*, align 8, !dp.md.instr.id !2217
  %2 = ptrtoint %struct._IO_FILE** %f to i64, !dp.md.instr.id !2218
  %3 = ptrtoint i8** %fname.addr to i64
  store i8* %fname, i8** %fname.addr, align 8, !dp.md.instr.id !2219
  call void @llvm.dbg.declare(metadata i8** %fname.addr, metadata !2220, metadata !DIExpression()), !dbg !2221, !dp.md.instr.id !2222
  call void @llvm.dbg.declare(metadata %struct.ECLgraph* %agg.result, metadata !2223, metadata !DIExpression()), !dbg !2224, !dp.md.instr.id !2225
  call void @llvm.dbg.declare(metadata i32* %cnt, metadata !2226, metadata !DIExpression()), !dbg !2227, !dp.md.instr.id !2228
  call void @llvm.dbg.declare(metadata %struct._IO_FILE** %f, metadata !2229, metadata !DIExpression()), !dbg !2230, !dp.md.instr.id !2231
  %4 = ptrtoint i8** %fname.addr to i64
  %5 = load i8*, i8** %fname.addr, align 8, !dbg !2232, !dp.md.instr.id !2233
  call void @__dp_call(i32 16441), !dbg !2234
  %call = call noalias %struct._IO_FILE* @fopen(i8* %5, i8* getelementptr inbounds ([3 x i8], [3 x i8]* @.str, i64 0, i64 0)), !dbg !2234, !dp.md.instr.id !2235
  %6 = ptrtoint %struct._IO_FILE** %f to i64
  store %struct._IO_FILE* %call, %struct._IO_FILE** %f, align 8, !dbg !2230, !dp.md.instr.id !2236
  %7 = ptrtoint %struct._IO_FILE** %f to i64
  %8 = load %struct._IO_FILE*, %struct._IO_FILE** %f, align 8, !dbg !2237, !dp.md.instr.id !2239
  %cmp = icmp eq %struct._IO_FILE* %8, null, !dbg !2240, !dp.md.instr.id !2241
  call void @__dp_report_bb(i32 1)
  br i1 %cmp, label %if.then, label %if.end, !dbg !2242, !dp.md.instr.id !2243

if.then:                                          ; preds = %entry
  %9 = ptrtoint %struct._IO_FILE** @stderr to i64
  call void @__dp_read(i32 22, i64 %9, i8* getelementptr inbounds ([7 x i8], [7 x i8]* @.str.38, i32 0, i32 0))
  %10 = load %struct._IO_FILE*, %struct._IO_FILE** @stderr, align 8, !dbg !2244, !dp.md.instr.id !2246
  %11 = ptrtoint i8** %fname.addr to i64
  %12 = load i8*, i8** %fname.addr, align 8, !dbg !2247, !dp.md.instr.id !2248
  call void @__dp_call(i32 16441), !dbg !2249
  %call1 = call i32 (%struct._IO_FILE*, i8*, ...) @fprintf(%struct._IO_FILE* %10, i8* getelementptr inbounds ([32 x i8], [32 x i8]* @.str.1, i64 0, i64 0), i8* %12), !dbg !2249, !dp.md.instr.id !2250
  call void @__dp_finalize(i32 16441), !dbg !2251
  call void @exit(i32 -1) #14, !dbg !2251, !dp.md.instr.id !2252
  call void @__dp_report_bb(i32 2)
  unreachable, !dbg !2251, !dp.md.instr.id !2253

if.end:                                           ; preds = %entry
  %nodes = getelementptr inbounds %struct.ECLgraph, %struct.ECLgraph* %agg.result, i32 0, i32 0, !dbg !2254, !dp.md.instr.id !2255
  %13 = bitcast i32* %nodes to i8*, !dbg !2256, !dp.md.instr.id !2257
  %14 = ptrtoint %struct._IO_FILE** %f to i64
  %15 = load %struct._IO_FILE*, %struct._IO_FILE** %f, align 8, !dbg !2258, !dp.md.instr.id !2259
  call void @__dp_call(i32 16442), !dbg !2260
  %call2 = call i64 @fread(i8* %13, i64 4, i64 1, %struct._IO_FILE* %15), !dbg !2260, !dp.md.instr.id !2261
  %conv = trunc i64 %call2 to i32, !dbg !2260, !dp.md.instr.id !2262
  %16 = ptrtoint i32* %cnt to i64
  store i32 %conv, i32* %cnt, align 4, !dbg !2263, !dp.md.instr.id !2264
  %17 = ptrtoint i32* %cnt to i64
  %18 = load i32, i32* %cnt, align 4, !dbg !2265, !dp.md.instr.id !2267
  %cmp3 = icmp ne i32 %18, 1, !dbg !2268, !dp.md.instr.id !2269
  call void @__dp_report_bb(i32 3)
  br i1 %cmp3, label %if.then4, label %if.end6, !dbg !2270, !dp.md.instr.id !2271

if.then4:                                         ; preds = %if.end
  %19 = ptrtoint %struct._IO_FILE** @stderr to i64
  call void @__dp_read(i32 36, i64 %19, i8* getelementptr inbounds ([7 x i8], [7 x i8]* @.str.38, i32 0, i32 0))
  %20 = load %struct._IO_FILE*, %struct._IO_FILE** @stderr, align 8, !dbg !2272, !dp.md.instr.id !2274
  call void @__dp_call(i32 16442), !dbg !2275
  %call5 = call i32 (%struct._IO_FILE*, i8*, ...) @fprintf(%struct._IO_FILE* %20, i8* getelementptr inbounds ([30 x i8], [30 x i8]* @.str.2, i64 0, i64 0)), !dbg !2275, !dp.md.instr.id !2276
  call void @__dp_finalize(i32 16442), !dbg !2277
  call void @exit(i32 -1) #14, !dbg !2277, !dp.md.instr.id !2278
  unreachable, !dbg !2277, !dp.md.instr.id !2279

if.end6:                                          ; preds = %if.end
  %edges = getelementptr inbounds %struct.ECLgraph, %struct.ECLgraph* %agg.result, i32 0, i32 1, !dbg !2280, !dp.md.instr.id !2281
  %21 = bitcast i32* %edges to i8*, !dbg !2282, !dp.md.instr.id !2283
  %22 = ptrtoint %struct._IO_FILE** %f to i64
  %23 = load %struct._IO_FILE*, %struct._IO_FILE** %f, align 8, !dbg !2284, !dp.md.instr.id !2285
  call void @__dp_call(i32 16443), !dbg !2286
  %call7 = call i64 @fread(i8* %21, i64 4, i64 1, %struct._IO_FILE* %23), !dbg !2286, !dp.md.instr.id !2287
  %conv8 = trunc i64 %call7 to i32, !dbg !2286, !dp.md.instr.id !2288
  %24 = ptrtoint i32* %cnt to i64
  store i32 %conv8, i32* %cnt, align 4, !dbg !2289, !dp.md.instr.id !2290
  %25 = ptrtoint i32* %cnt to i64
  %26 = load i32, i32* %cnt, align 4, !dbg !2291, !dp.md.instr.id !2293
  %cmp9 = icmp ne i32 %26, 1, !dbg !2294, !dp.md.instr.id !2295
  call void @__dp_report_bb(i32 4)
  br i1 %cmp9, label %if.then10, label %if.end12, !dbg !2296, !dp.md.instr.id !2297

if.then10:                                        ; preds = %if.end6
  %27 = ptrtoint %struct._IO_FILE** @stderr to i64
  call void @__dp_read(i32 49, i64 %27, i8* getelementptr inbounds ([7 x i8], [7 x i8]* @.str.38, i32 0, i32 0))
  %28 = load %struct._IO_FILE*, %struct._IO_FILE** @stderr, align 8, !dbg !2298, !dp.md.instr.id !2300
  call void @__dp_call(i32 16443), !dbg !2301
  %call11 = call i32 (%struct._IO_FILE*, i8*, ...) @fprintf(%struct._IO_FILE* %28, i8* getelementptr inbounds ([30 x i8], [30 x i8]* @.str.3, i64 0, i64 0)), !dbg !2301, !dp.md.instr.id !2302
  call void @__dp_finalize(i32 16443), !dbg !2303
  call void @exit(i32 -1) #14, !dbg !2303, !dp.md.instr.id !2304
  unreachable, !dbg !2303, !dp.md.instr.id !2305

if.end12:                                         ; preds = %if.end6
  %nodes13 = getelementptr inbounds %struct.ECLgraph, %struct.ECLgraph* %agg.result, i32 0, i32 0, !dbg !2306, !dp.md.instr.id !2307
  %29 = ptrtoint i32* %nodes13 to i64
  call void @__dp_read(i32 54, i64 %29, i8* getelementptr inbounds ([21 x i8], [21 x i8]* @.str.39, i32 0, i32 0))
  %30 = load i32, i32* %nodes13, align 8, !dbg !2306, !dp.md.instr.id !2308
  %edges14 = getelementptr inbounds %struct.ECLgraph, %struct.ECLgraph* %agg.result, i32 0, i32 1, !dbg !2309, !dp.md.instr.id !2310
  %31 = ptrtoint i32* %edges14 to i64
  call void @__dp_read(i32 56, i64 %31, i8* getelementptr inbounds ([21 x i8], [21 x i8]* @.str.39, i32 0, i32 0))
  %32 = load i32, i32* %edges14, align 4, !dbg !2309, !dp.md.instr.id !2311
  call void @__dp_call(i32 16444), !dbg !2312
  %call15 = call i32 (i8*, ...) @printf(i8* getelementptr inbounds ([36 x i8], [36 x i8]* @.str.4, i64 0, i64 0), i32 %30, i32 %32), !dbg !2312, !dp.md.instr.id !2313
  %nodes16 = getelementptr inbounds %struct.ECLgraph, %struct.ECLgraph* %agg.result, i32 0, i32 0, !dbg !2314, !dp.md.instr.id !2316
  %33 = ptrtoint i32* %nodes16 to i64
  call void @__dp_read(i32 59, i64 %33, i8* getelementptr inbounds ([21 x i8], [21 x i8]* @.str.39, i32 0, i32 0))
  %34 = load i32, i32* %nodes16, align 8, !dbg !2314, !dp.md.instr.id !2317
  %cmp17 = icmp slt i32 %34, 1, !dbg !2318, !dp.md.instr.id !2319
  br i1 %cmp17, label %if.then20, label %lor.lhs.false, !dbg !2320, !dp.md.instr.id !2321

lor.lhs.false:                                    ; preds = %if.end12
  %edges18 = getelementptr inbounds %struct.ECLgraph, %struct.ECLgraph* %agg.result, i32 0, i32 1, !dbg !2322, !dp.md.instr.id !2323
  %35 = ptrtoint i32* %edges18 to i64
  call void @__dp_read(i32 63, i64 %35, i8* getelementptr inbounds ([21 x i8], [21 x i8]* @.str.39, i32 0, i32 0))
  %36 = load i32, i32* %edges18, align 4, !dbg !2322, !dp.md.instr.id !2324
  %cmp19 = icmp slt i32 %36, 0, !dbg !2325, !dp.md.instr.id !2326
  br i1 %cmp19, label %if.then20, label %if.end22, !dbg !2327, !dp.md.instr.id !2328

if.then20:                                        ; preds = %lor.lhs.false, %if.end12
  %37 = ptrtoint %struct._IO_FILE** @stderr to i64
  call void @__dp_read(i32 66, i64 %37, i8* getelementptr inbounds ([7 x i8], [7 x i8]* @.str.38, i32 0, i32 0))
  %38 = load %struct._IO_FILE*, %struct._IO_FILE** @stderr, align 8, !dbg !2329, !dp.md.instr.id !2331
  call void @__dp_call(i32 16445), !dbg !2332
  %call21 = call i32 (%struct._IO_FILE*, i8*, ...) @fprintf(%struct._IO_FILE* %38, i8* getelementptr inbounds ([36 x i8], [36 x i8]* @.str.5, i64 0, i64 0)), !dbg !2332, !dp.md.instr.id !2333
  call void @__dp_finalize(i32 16445), !dbg !2334
  call void @exit(i32 -1) #14, !dbg !2334, !dp.md.instr.id !2335
  unreachable, !dbg !2334, !dp.md.instr.id !2336

if.end22:                                         ; preds = %lor.lhs.false
  %nodes23 = getelementptr inbounds %struct.ECLgraph, %struct.ECLgraph* %agg.result, i32 0, i32 0, !dbg !2337, !dp.md.instr.id !2338
  %39 = ptrtoint i32* %nodes23 to i64
  call void @__dp_read(i32 71, i64 %39, i8* getelementptr inbounds ([21 x i8], [21 x i8]* @.str.39, i32 0, i32 0))
  %40 = load i32, i32* %nodes23, align 8, !dbg !2337, !dp.md.instr.id !2339
  %add = add nsw i32 %40, 1, !dbg !2340, !dp.md.instr.id !2341
  %conv24 = sext i32 %add to i64, !dbg !2342, !dp.md.instr.id !2343
  %mul = mul i64 %conv24, 4, !dbg !2344, !dp.md.instr.id !2345
  %call25 = call noalias i8* @malloc(i64 %mul) #12, !dbg !2346, !dp.md.instr.id !2347
  %41 = ptrtoint i8* %call25 to i64, !dp.md.instr.id !2348
  call void @__dp_new(i32 16447, i64 %41, i64 %41, i64 %mul), !dbg !2349, !dp.md.instr.id !2350
  %42 = bitcast i8* %call25 to i32*, !dbg !2349, !dp.md.instr.id !2351
  %nindex = getelementptr inbounds %struct.ECLgraph, %struct.ECLgraph* %agg.result, i32 0, i32 2, !dbg !2352, !dp.md.instr.id !2353
  %43 = ptrtoint i32** %nindex to i64
  call void @__dp_write(i32 80, i64 %43, i8* getelementptr inbounds ([21 x i8], [21 x i8]* @.str.39, i32 0, i32 0))
  store i32* %42, i32** %nindex, align 8, !dbg !2354, !dp.md.instr.id !2355
  %edges26 = getelementptr inbounds %struct.ECLgraph, %struct.ECLgraph* %agg.result, i32 0, i32 1, !dbg !2356, !dp.md.instr.id !2357
  %44 = ptrtoint i32* %edges26 to i64
  call void @__dp_read(i32 82, i64 %44, i8* getelementptr inbounds ([21 x i8], [21 x i8]* @.str.39, i32 0, i32 0))
  %45 = load i32, i32* %edges26, align 4, !dbg !2356, !dp.md.instr.id !2358
  %conv27 = sext i32 %45 to i64, !dbg !2359, !dp.md.instr.id !2360
  %mul28 = mul i64 %conv27, 4, !dbg !2361, !dp.md.instr.id !2362
  %call29 = call noalias i8* @malloc(i64 %mul28) #12, !dbg !2363, !dp.md.instr.id !2364
  %46 = ptrtoint i8* %call29 to i64, !dp.md.instr.id !2365
  call void @__dp_new(i32 16448, i64 %46, i64 %46, i64 %mul28), !dbg !2366, !dp.md.instr.id !2367
  %47 = bitcast i8* %call29 to i32*, !dbg !2366, !dp.md.instr.id !2368
  %nlist = getelementptr inbounds %struct.ECLgraph, %struct.ECLgraph* %agg.result, i32 0, i32 3, !dbg !2369, !dp.md.instr.id !2370
  %48 = ptrtoint i32** %nlist to i64
  call void @__dp_write(i32 90, i64 %48, i8* getelementptr inbounds ([21 x i8], [21 x i8]* @.str.39, i32 0, i32 0))
  store i32* %47, i32** %nlist, align 8, !dbg !2371, !dp.md.instr.id !2372
  %edges30 = getelementptr inbounds %struct.ECLgraph, %struct.ECLgraph* %agg.result, i32 0, i32 1, !dbg !2373, !dp.md.instr.id !2374
  %49 = ptrtoint i32* %edges30 to i64
  call void @__dp_read(i32 92, i64 %49, i8* getelementptr inbounds ([21 x i8], [21 x i8]* @.str.39, i32 0, i32 0))
  %50 = load i32, i32* %edges30, align 4, !dbg !2373, !dp.md.instr.id !2375
  %conv31 = sext i32 %50 to i64, !dbg !2376, !dp.md.instr.id !2377
  %mul32 = mul i64 %conv31, 4, !dbg !2378, !dp.md.instr.id !2379
  %call33 = call noalias i8* @malloc(i64 %mul32) #12, !dbg !2380, !dp.md.instr.id !2381
  %51 = ptrtoint i8* %call33 to i64, !dp.md.instr.id !2382
  call void @__dp_new(i32 16449, i64 %51, i64 %51, i64 %mul32), !dbg !2383, !dp.md.instr.id !2384
  %52 = bitcast i8* %call33 to i32*, !dbg !2383, !dp.md.instr.id !2385
  %eweight = getelementptr inbounds %struct.ECLgraph, %struct.ECLgraph* %agg.result, i32 0, i32 4, !dbg !2386, !dp.md.instr.id !2387
  %53 = ptrtoint i32** %eweight to i64
  call void @__dp_write(i32 100, i64 %53, i8* getelementptr inbounds ([21 x i8], [21 x i8]* @.str.39, i32 0, i32 0))
  store i32* %52, i32** %eweight, align 8, !dbg !2388, !dp.md.instr.id !2389
  %nindex34 = getelementptr inbounds %struct.ECLgraph, %struct.ECLgraph* %agg.result, i32 0, i32 2, !dbg !2390, !dp.md.instr.id !2392
  %54 = ptrtoint i32** %nindex34 to i64
  call void @__dp_read(i32 102, i64 %54, i8* getelementptr inbounds ([21 x i8], [21 x i8]* @.str.39, i32 0, i32 0))
  %55 = load i32*, i32** %nindex34, align 8, !dbg !2390, !dp.md.instr.id !2393
  %cmp35 = icmp eq i32* %55, null, !dbg !2394, !dp.md.instr.id !2395
  br i1 %cmp35, label %if.then42, label %lor.lhs.false36, !dbg !2396, !dp.md.instr.id !2397

lor.lhs.false36:                                  ; preds = %if.end22
  %nlist37 = getelementptr inbounds %struct.ECLgraph, %struct.ECLgraph* %agg.result, i32 0, i32 3, !dbg !2398, !dp.md.instr.id !2399
  %56 = ptrtoint i32** %nlist37 to i64
  call void @__dp_read(i32 106, i64 %56, i8* getelementptr inbounds ([21 x i8], [21 x i8]* @.str.39, i32 0, i32 0))
  %57 = load i32*, i32** %nlist37, align 8, !dbg !2398, !dp.md.instr.id !2400
  %cmp38 = icmp eq i32* %57, null, !dbg !2401, !dp.md.instr.id !2402
  br i1 %cmp38, label %if.then42, label %lor.lhs.false39, !dbg !2403, !dp.md.instr.id !2404

lor.lhs.false39:                                  ; preds = %lor.lhs.false36
  %eweight40 = getelementptr inbounds %struct.ECLgraph, %struct.ECLgraph* %agg.result, i32 0, i32 4, !dbg !2405, !dp.md.instr.id !2406
  %58 = ptrtoint i32** %eweight40 to i64
  call void @__dp_read(i32 110, i64 %58, i8* getelementptr inbounds ([21 x i8], [21 x i8]* @.str.39, i32 0, i32 0))
  %59 = load i32*, i32** %eweight40, align 8, !dbg !2405, !dp.md.instr.id !2407
  %cmp41 = icmp eq i32* %59, null, !dbg !2408, !dp.md.instr.id !2409
  br i1 %cmp41, label %if.then42, label %if.end44, !dbg !2410, !dp.md.instr.id !2411

if.then42:                                        ; preds = %lor.lhs.false39, %lor.lhs.false36, %if.end22
  %60 = ptrtoint %struct._IO_FILE** @stderr to i64
  call void @__dp_read(i32 113, i64 %60, i8* getelementptr inbounds ([7 x i8], [7 x i8]* @.str.38, i32 0, i32 0))
  %61 = load %struct._IO_FILE*, %struct._IO_FILE** @stderr, align 8, !dbg !2412, !dp.md.instr.id !2414
  call void @__dp_call(i32 16450), !dbg !2415
  %call43 = call i32 (%struct._IO_FILE*, i8*, ...) @fprintf(%struct._IO_FILE* %61, i8* getelementptr inbounds ([34 x i8], [34 x i8]* @.str.6, i64 0, i64 0)), !dbg !2415, !dp.md.instr.id !2416
  call void @__dp_finalize(i32 16450), !dbg !2417
  call void @exit(i32 -1) #14, !dbg !2417, !dp.md.instr.id !2418
  unreachable, !dbg !2417, !dp.md.instr.id !2419

if.end44:                                         ; preds = %lor.lhs.false39
  %nindex45 = getelementptr inbounds %struct.ECLgraph, %struct.ECLgraph* %agg.result, i32 0, i32 2, !dbg !2420, !dp.md.instr.id !2421
  %62 = ptrtoint i32** %nindex45 to i64
  call void @__dp_read(i32 118, i64 %62, i8* getelementptr inbounds ([21 x i8], [21 x i8]* @.str.39, i32 0, i32 0))
  %63 = load i32*, i32** %nindex45, align 8, !dbg !2420, !dp.md.instr.id !2422
  %64 = bitcast i32* %63 to i8*, !dbg !2423, !dp.md.instr.id !2424
  %nodes46 = getelementptr inbounds %struct.ECLgraph, %struct.ECLgraph* %agg.result, i32 0, i32 0, !dbg !2425, !dp.md.instr.id !2426
  %65 = ptrtoint i32* %nodes46 to i64
  call void @__dp_read(i32 121, i64 %65, i8* getelementptr inbounds ([21 x i8], [21 x i8]* @.str.39, i32 0, i32 0))
  %66 = load i32, i32* %nodes46, align 8, !dbg !2425, !dp.md.instr.id !2427
  %add47 = add nsw i32 %66, 1, !dbg !2428, !dp.md.instr.id !2429
  %conv48 = sext i32 %add47 to i64, !dbg !2430, !dp.md.instr.id !2431
  %67 = ptrtoint %struct._IO_FILE** %f to i64
  %68 = load %struct._IO_FILE*, %struct._IO_FILE** %f, align 8, !dbg !2432, !dp.md.instr.id !2433
  call void @__dp_call(i32 16452), !dbg !2434
  %call49 = call i64 @fread(i8* %64, i64 4, i64 %conv48, %struct._IO_FILE* %68), !dbg !2434, !dp.md.instr.id !2435
  %conv50 = trunc i64 %call49 to i32, !dbg !2434, !dp.md.instr.id !2436
  %69 = ptrtoint i32* %cnt to i64
  store i32 %conv50, i32* %cnt, align 4, !dbg !2437, !dp.md.instr.id !2438
  %70 = ptrtoint i32* %cnt to i64
  %71 = load i32, i32* %cnt, align 4, !dbg !2439, !dp.md.instr.id !2441
  %nodes51 = getelementptr inbounds %struct.ECLgraph, %struct.ECLgraph* %agg.result, i32 0, i32 0, !dbg !2442, !dp.md.instr.id !2443
  %72 = ptrtoint i32* %nodes51 to i64
  call void @__dp_read(i32 130, i64 %72, i8* getelementptr inbounds ([21 x i8], [21 x i8]* @.str.39, i32 0, i32 0))
  %73 = load i32, i32* %nodes51, align 8, !dbg !2442, !dp.md.instr.id !2444
  %add52 = add nsw i32 %73, 1, !dbg !2445, !dp.md.instr.id !2446
  %cmp53 = icmp ne i32 %71, %add52, !dbg !2447, !dp.md.instr.id !2448
  call void @__dp_report_bb(i32 5)
  br i1 %cmp53, label %if.then54, label %if.end56, !dbg !2449, !dp.md.instr.id !2450

if.then54:                                        ; preds = %if.end44
  %74 = ptrtoint %struct._IO_FILE** @stderr to i64
  call void @__dp_read(i32 134, i64 %74, i8* getelementptr inbounds ([7 x i8], [7 x i8]* @.str.38, i32 0, i32 0))
  %75 = load %struct._IO_FILE*, %struct._IO_FILE** @stderr, align 8, !dbg !2451, !dp.md.instr.id !2453
  call void @__dp_call(i32 16452), !dbg !2454
  %call55 = call i32 (%struct._IO_FILE*, i8*, ...) @fprintf(%struct._IO_FILE* %75, i8* getelementptr inbounds ([44 x i8], [44 x i8]* @.str.7, i64 0, i64 0)), !dbg !2454, !dp.md.instr.id !2455
  call void @__dp_finalize(i32 16452), !dbg !2456
  call void @exit(i32 -1) #14, !dbg !2456, !dp.md.instr.id !2457
  unreachable, !dbg !2456, !dp.md.instr.id !2458

if.end56:                                         ; preds = %if.end44
  %nlist57 = getelementptr inbounds %struct.ECLgraph, %struct.ECLgraph* %agg.result, i32 0, i32 3, !dbg !2459, !dp.md.instr.id !2460
  %76 = ptrtoint i32** %nlist57 to i64
  call void @__dp_read(i32 139, i64 %76, i8* getelementptr inbounds ([21 x i8], [21 x i8]* @.str.39, i32 0, i32 0))
  %77 = load i32*, i32** %nlist57, align 8, !dbg !2459, !dp.md.instr.id !2461
  %78 = bitcast i32* %77 to i8*, !dbg !2462, !dp.md.instr.id !2463
  %edges58 = getelementptr inbounds %struct.ECLgraph, %struct.ECLgraph* %agg.result, i32 0, i32 1, !dbg !2464, !dp.md.instr.id !2465
  %79 = ptrtoint i32* %edges58 to i64
  call void @__dp_read(i32 142, i64 %79, i8* getelementptr inbounds ([21 x i8], [21 x i8]* @.str.39, i32 0, i32 0))
  %80 = load i32, i32* %edges58, align 4, !dbg !2464, !dp.md.instr.id !2466
  %conv59 = sext i32 %80 to i64, !dbg !2467, !dp.md.instr.id !2468
  %81 = ptrtoint %struct._IO_FILE** %f to i64
  %82 = load %struct._IO_FILE*, %struct._IO_FILE** %f, align 8, !dbg !2469, !dp.md.instr.id !2470
  call void @__dp_call(i32 16453), !dbg !2471
  %call60 = call i64 @fread(i8* %78, i64 4, i64 %conv59, %struct._IO_FILE* %82), !dbg !2471, !dp.md.instr.id !2472
  %conv61 = trunc i64 %call60 to i32, !dbg !2471, !dp.md.instr.id !2473
  %83 = ptrtoint i32* %cnt to i64
  store i32 %conv61, i32* %cnt, align 4, !dbg !2474, !dp.md.instr.id !2475
  %84 = ptrtoint i32* %cnt to i64
  %85 = load i32, i32* %cnt, align 4, !dbg !2476, !dp.md.instr.id !2478
  %edges62 = getelementptr inbounds %struct.ECLgraph, %struct.ECLgraph* %agg.result, i32 0, i32 1, !dbg !2479, !dp.md.instr.id !2480
  %86 = ptrtoint i32* %edges62 to i64
  call void @__dp_read(i32 150, i64 %86, i8* getelementptr inbounds ([21 x i8], [21 x i8]* @.str.39, i32 0, i32 0))
  %87 = load i32, i32* %edges62, align 4, !dbg !2479, !dp.md.instr.id !2481
  %cmp63 = icmp ne i32 %85, %87, !dbg !2482, !dp.md.instr.id !2483
  call void @__dp_report_bb(i32 7)
  br i1 %cmp63, label %if.then64, label %if.end66, !dbg !2484, !dp.md.instr.id !2485

if.then64:                                        ; preds = %if.end56
  %88 = ptrtoint %struct._IO_FILE** @stderr to i64
  call void @__dp_read(i32 153, i64 %88, i8* getelementptr inbounds ([7 x i8], [7 x i8]* @.str.38, i32 0, i32 0))
  %89 = load %struct._IO_FILE*, %struct._IO_FILE** @stderr, align 8, !dbg !2486, !dp.md.instr.id !2488
  call void @__dp_call(i32 16453), !dbg !2489
  %call65 = call i32 (%struct._IO_FILE*, i8*, ...) @fprintf(%struct._IO_FILE* %89, i8* getelementptr inbounds ([38 x i8], [38 x i8]* @.str.8, i64 0, i64 0)), !dbg !2489, !dp.md.instr.id !2490
  call void @__dp_finalize(i32 16453), !dbg !2491
  call void @exit(i32 -1) #14, !dbg !2491, !dp.md.instr.id !2492
  unreachable, !dbg !2491, !dp.md.instr.id !2493

if.end66:                                         ; preds = %if.end56
  %eweight67 = getelementptr inbounds %struct.ECLgraph, %struct.ECLgraph* %agg.result, i32 0, i32 4, !dbg !2494, !dp.md.instr.id !2495
  %90 = ptrtoint i32** %eweight67 to i64
  call void @__dp_read(i32 158, i64 %90, i8* getelementptr inbounds ([21 x i8], [21 x i8]* @.str.39, i32 0, i32 0))
  %91 = load i32*, i32** %eweight67, align 8, !dbg !2494, !dp.md.instr.id !2496
  %92 = bitcast i32* %91 to i8*, !dbg !2497, !dp.md.instr.id !2498
  %edges68 = getelementptr inbounds %struct.ECLgraph, %struct.ECLgraph* %agg.result, i32 0, i32 1, !dbg !2499, !dp.md.instr.id !2500
  %93 = ptrtoint i32* %edges68 to i64
  call void @__dp_read(i32 161, i64 %93, i8* getelementptr inbounds ([21 x i8], [21 x i8]* @.str.39, i32 0, i32 0))
  %94 = load i32, i32* %edges68, align 4, !dbg !2499, !dp.md.instr.id !2501
  %conv69 = sext i32 %94 to i64, !dbg !2502, !dp.md.instr.id !2503
  %95 = ptrtoint %struct._IO_FILE** %f to i64
  %96 = load %struct._IO_FILE*, %struct._IO_FILE** %f, align 8, !dbg !2504, !dp.md.instr.id !2505
  call void @__dp_call(i32 16454), !dbg !2506
  %call70 = call i64 @fread(i8* %92, i64 4, i64 %conv69, %struct._IO_FILE* %96), !dbg !2506, !dp.md.instr.id !2507
  %conv71 = trunc i64 %call70 to i32, !dbg !2506, !dp.md.instr.id !2508
  %97 = ptrtoint i32* %cnt to i64
  store i32 %conv71, i32* %cnt, align 4, !dbg !2509, !dp.md.instr.id !2510
  %98 = ptrtoint i32* %cnt to i64
  %99 = load i32, i32* %cnt, align 4, !dbg !2511, !dp.md.instr.id !2513
  %cmp72 = icmp eq i32 %99, 0, !dbg !2514, !dp.md.instr.id !2515
  call void @__dp_report_bb(i32 6)
  br i1 %cmp72, label %if.then73, label %if.else, !dbg !2516, !dp.md.instr.id !2517

if.then73:                                        ; preds = %if.end66
  %eweight74 = getelementptr inbounds %struct.ECLgraph, %struct.ECLgraph* %agg.result, i32 0, i32 4, !dbg !2518, !dp.md.instr.id !2520
  %100 = ptrtoint i32** %eweight74 to i64
  call void @__dp_read(i32 171, i64 %100, i8* getelementptr inbounds ([21 x i8], [21 x i8]* @.str.39, i32 0, i32 0))
  %101 = load i32*, i32** %eweight74, align 8, !dbg !2518, !dp.md.instr.id !2521
  %102 = bitcast i32* %101 to i8*, !dbg !2522, !dp.md.instr.id !2523
  call void @free(i8* %102) #12, !dbg !2524, !dp.md.instr.id !2525
  %103 = ptrtoint i8* %102 to i64, !dp.md.instr.id !2526
  call void @__dp_delete(i32 16456, i64 %103), !dbg !2527, !dp.md.instr.id !2528
  %eweight75 = getelementptr inbounds %struct.ECLgraph, %struct.ECLgraph* %agg.result, i32 0, i32 4, !dbg !2527, !dp.md.instr.id !2529
  %104 = ptrtoint i32** %eweight75 to i64
  call void @__dp_write(i32 177, i64 %104, i8* getelementptr inbounds ([21 x i8], [21 x i8]* @.str.39, i32 0, i32 0))
  store i32* null, i32** %eweight75, align 8, !dbg !2530, !dp.md.instr.id !2531
  br label %if.end81, !dbg !2532, !dp.md.instr.id !2533

if.else:                                          ; preds = %if.end66
  %105 = ptrtoint i32* %cnt to i64
  %106 = load i32, i32* %cnt, align 4, !dbg !2534, !dp.md.instr.id !2537
  %edges76 = getelementptr inbounds %struct.ECLgraph, %struct.ECLgraph* %agg.result, i32 0, i32 1, !dbg !2538, !dp.md.instr.id !2539
  %107 = ptrtoint i32* %edges76 to i64
  call void @__dp_read(i32 181, i64 %107, i8* getelementptr inbounds ([21 x i8], [21 x i8]* @.str.39, i32 0, i32 0))
  %108 = load i32, i32* %edges76, align 4, !dbg !2538, !dp.md.instr.id !2540
  %cmp77 = icmp ne i32 %106, %108, !dbg !2541, !dp.md.instr.id !2542
  call void @__dp_report_bb(i32 8)
  br i1 %cmp77, label %if.then78, label %if.end80, !dbg !2543, !dp.md.instr.id !2544

if.then78:                                        ; preds = %if.else
  %109 = ptrtoint %struct._IO_FILE** @stderr to i64
  call void @__dp_read(i32 184, i64 %109, i8* getelementptr inbounds ([7 x i8], [7 x i8]* @.str.38, i32 0, i32 0))
  %110 = load %struct._IO_FILE*, %struct._IO_FILE** @stderr, align 8, !dbg !2545, !dp.md.instr.id !2547
  call void @__dp_call(i32 16459), !dbg !2548
  %call79 = call i32 (%struct._IO_FILE*, i8*, ...) @fprintf(%struct._IO_FILE* %110, i8* getelementptr inbounds ([37 x i8], [37 x i8]* @.str.9, i64 0, i64 0)), !dbg !2548, !dp.md.instr.id !2549
  call void @__dp_finalize(i32 16459), !dbg !2550
  call void @exit(i32 -1) #14, !dbg !2550, !dp.md.instr.id !2551
  unreachable, !dbg !2550, !dp.md.instr.id !2552

if.end80:                                         ; preds = %if.else
  br label %if.end81, !dp.md.instr.id !2553

if.end81:                                         ; preds = %if.end80, %if.then73
  %111 = ptrtoint %struct._IO_FILE** %f to i64
  %112 = load %struct._IO_FILE*, %struct._IO_FILE** %f, align 8, !dbg !2554, !dp.md.instr.id !2555
  call void @__dp_call(i32 16461), !dbg !2556
  %call82 = call i32 @fclose(%struct._IO_FILE* %112), !dbg !2556, !dp.md.instr.id !2557
  call void @__dp_report_bb(i32 0)
  call void @__dp_func_exit(i32 16463, i32 0), !dbg !2558
  ret void, !dbg !2558, !dp.md.instr.id !2559
}

; Function Attrs: nounwind readnone speculatable willreturn
declare void @llvm.dbg.declare(metadata, metadata, metadata) #1

declare noalias %struct._IO_FILE* @fopen(i8*, i8*) #2

declare i32 @fprintf(%struct._IO_FILE*, i8*, ...) #2

; Function Attrs: noreturn nounwind
declare void @exit(i32) #3

declare i64 @fread(i8*, i64, i64, %struct._IO_FILE*) #2

declare i32 @printf(i8*, ...) #2

; Function Attrs: nounwind
declare noalias i8* @malloc(i64) #4

; Function Attrs: nounwind
declare void @free(i8*) #4

declare i32 @fclose(%struct._IO_FILE*) #2

; Function Attrs: noinline optnone uwtable
define void @_Z13writeECLgraph8ECLgraphPKc(%struct.ECLgraph* byval(%struct.ECLgraph) align 8 %g, i8* %fname) #0 !dbg !2560 {
entry:
  call void @__dp_func_entry(i32 16466, i32 0), !dp.md.instr.id !2564
  %fname.addr = alloca i8*, align 8, !dp.md.instr.id !2565
  %0 = ptrtoint i8** %fname.addr to i64, !dp.md.instr.id !2566
  %cnt = alloca i32, align 4, !dp.md.instr.id !2567
  %1 = ptrtoint i32* %cnt to i64, !dp.md.instr.id !2568
  %f = alloca %struct._IO_FILE*, align 8, !dp.md.instr.id !2569
  %2 = ptrtoint %struct._IO_FILE** %f to i64, !dbg !2570, !dp.md.instr.id !2571
  call void @llvm.dbg.declare(metadata %struct.ECLgraph* %g, metadata !2572, metadata !DIExpression()), !dbg !2570, !dp.md.instr.id !2573
  %3 = ptrtoint i8** %fname.addr to i64
  store i8* %fname, i8** %fname.addr, align 8, !dp.md.instr.id !2574
  call void @llvm.dbg.declare(metadata i8** %fname.addr, metadata !2575, metadata !DIExpression()), !dbg !2576, !dp.md.instr.id !2577
  %nodes = getelementptr inbounds %struct.ECLgraph, %struct.ECLgraph* %g, i32 0, i32 0, !dbg !2578, !dp.md.instr.id !2580
  %4 = ptrtoint i32* %nodes to i64
  call void @__dp_read(i32 206, i64 %4, i8* getelementptr inbounds ([12 x i8], [12 x i8]* @.str.41, i32 0, i32 0))
  %5 = load i32, i32* %nodes, align 8, !dbg !2578, !dp.md.instr.id !2581
  %cmp = icmp slt i32 %5, 1, !dbg !2582, !dp.md.instr.id !2583
  call void @__dp_report_bb(i32 10)
  br i1 %cmp, label %if.then, label %lor.lhs.false, !dbg !2584, !dp.md.instr.id !2585

lor.lhs.false:                                    ; preds = %entry
  %edges = getelementptr inbounds %struct.ECLgraph, %struct.ECLgraph* %g, i32 0, i32 1, !dbg !2586, !dp.md.instr.id !2587
  %6 = ptrtoint i32* %edges to i64
  call void @__dp_read(i32 210, i64 %6, i8* getelementptr inbounds ([12 x i8], [12 x i8]* @.str.41, i32 0, i32 0))
  %7 = load i32, i32* %edges, align 4, !dbg !2586, !dp.md.instr.id !2588
  %cmp1 = icmp slt i32 %7, 0, !dbg !2589, !dp.md.instr.id !2590
  br i1 %cmp1, label %if.then, label %if.end, !dbg !2591, !dp.md.instr.id !2592

if.then:                                          ; preds = %lor.lhs.false, %entry
  %8 = ptrtoint %struct._IO_FILE** @stderr to i64
  call void @__dp_read(i32 213, i64 %8, i8* getelementptr inbounds ([7 x i8], [7 x i8]* @.str.38, i32 0, i32 0))
  %9 = load %struct._IO_FILE*, %struct._IO_FILE** @stderr, align 8, !dbg !2593, !dp.md.instr.id !2595
  call void @__dp_call(i32 16468), !dbg !2596
  %call = call i32 (%struct._IO_FILE*, i8*, ...) @fprintf(%struct._IO_FILE* %9, i8* getelementptr inbounds ([36 x i8], [36 x i8]* @.str.5, i64 0, i64 0)), !dbg !2596, !dp.md.instr.id !2597
  call void @__dp_finalize(i32 16468), !dbg !2598
  call void @exit(i32 -1) #14, !dbg !2598, !dp.md.instr.id !2599
  unreachable, !dbg !2598, !dp.md.instr.id !2600

if.end:                                           ; preds = %lor.lhs.false
  call void @llvm.dbg.declare(metadata i32* %cnt, metadata !2601, metadata !DIExpression()), !dbg !2602, !dp.md.instr.id !2603
  call void @llvm.dbg.declare(metadata %struct._IO_FILE** %f, metadata !2604, metadata !DIExpression()), !dbg !2605, !dp.md.instr.id !2606
  %10 = ptrtoint i8** %fname.addr to i64
  %11 = load i8*, i8** %fname.addr, align 8, !dbg !2607, !dp.md.instr.id !2608
  call void @__dp_call(i32 16470), !dbg !2609
  %call2 = call noalias %struct._IO_FILE* @fopen(i8* %11, i8* getelementptr inbounds ([3 x i8], [3 x i8]* @.str.10, i64 0, i64 0)), !dbg !2609, !dp.md.instr.id !2610
  %12 = ptrtoint %struct._IO_FILE** %f to i64
  store %struct._IO_FILE* %call2, %struct._IO_FILE** %f, align 8, !dbg !2605, !dp.md.instr.id !2611
  %13 = ptrtoint %struct._IO_FILE** %f to i64
  %14 = load %struct._IO_FILE*, %struct._IO_FILE** %f, align 8, !dbg !2612, !dp.md.instr.id !2614
  %cmp3 = icmp eq %struct._IO_FILE* %14, null, !dbg !2615, !dp.md.instr.id !2616
  call void @__dp_report_bb(i32 11)
  br i1 %cmp3, label %if.then4, label %if.end6, !dbg !2617, !dp.md.instr.id !2618

if.then4:                                         ; preds = %if.end
  %15 = ptrtoint %struct._IO_FILE** @stderr to i64
  call void @__dp_read(i32 225, i64 %15, i8* getelementptr inbounds ([7 x i8], [7 x i8]* @.str.38, i32 0, i32 0))
  %16 = load %struct._IO_FILE*, %struct._IO_FILE** @stderr, align 8, !dbg !2619, !dp.md.instr.id !2621
  %17 = ptrtoint i8** %fname.addr to i64
  %18 = load i8*, i8** %fname.addr, align 8, !dbg !2622, !dp.md.instr.id !2623
  call void @__dp_call(i32 16470), !dbg !2624
  %call5 = call i32 (%struct._IO_FILE*, i8*, ...) @fprintf(%struct._IO_FILE* %16, i8* getelementptr inbounds ([32 x i8], [32 x i8]* @.str.1, i64 0, i64 0), i8* %18), !dbg !2624, !dp.md.instr.id !2625
  call void @__dp_finalize(i32 16470), !dbg !2626
  call void @exit(i32 -1) #14, !dbg !2626, !dp.md.instr.id !2627
  call void @__dp_report_bb(i32 9)
  unreachable, !dbg !2626, !dp.md.instr.id !2628

if.end6:                                          ; preds = %if.end
  %nodes7 = getelementptr inbounds %struct.ECLgraph, %struct.ECLgraph* %g, i32 0, i32 0, !dbg !2629, !dp.md.instr.id !2630
  %19 = bitcast i32* %nodes7 to i8*, !dbg !2631, !dp.md.instr.id !2632
  %20 = ptrtoint %struct._IO_FILE** %f to i64
  %21 = load %struct._IO_FILE*, %struct._IO_FILE** %f, align 8, !dbg !2633, !dp.md.instr.id !2634
  call void @__dp_call(i32 16471), !dbg !2635
  %call8 = call i64 @fwrite(i8* %19, i64 4, i64 1, %struct._IO_FILE* %21), !dbg !2635, !dp.md.instr.id !2636
  %conv = trunc i64 %call8 to i32, !dbg !2635, !dp.md.instr.id !2637
  %22 = ptrtoint i32* %cnt to i64
  store i32 %conv, i32* %cnt, align 4, !dbg !2638, !dp.md.instr.id !2639
  %23 = ptrtoint i32* %cnt to i64
  %24 = load i32, i32* %cnt, align 4, !dbg !2640, !dp.md.instr.id !2642
  %cmp9 = icmp ne i32 %24, 1, !dbg !2643, !dp.md.instr.id !2644
  call void @__dp_report_bb(i32 12)
  br i1 %cmp9, label %if.then10, label %if.end12, !dbg !2645, !dp.md.instr.id !2646

if.then10:                                        ; preds = %if.end6
  %25 = ptrtoint %struct._IO_FILE** @stderr to i64
  call void @__dp_read(i32 239, i64 %25, i8* getelementptr inbounds ([7 x i8], [7 x i8]* @.str.38, i32 0, i32 0))
  %26 = load %struct._IO_FILE*, %struct._IO_FILE** @stderr, align 8, !dbg !2647, !dp.md.instr.id !2649
  call void @__dp_call(i32 16471), !dbg !2650
  %call11 = call i32 (%struct._IO_FILE*, i8*, ...) @fprintf(%struct._IO_FILE* %26, i8* getelementptr inbounds ([31 x i8], [31 x i8]* @.str.11, i64 0, i64 0)), !dbg !2650, !dp.md.instr.id !2651
  call void @__dp_finalize(i32 16471), !dbg !2652
  call void @exit(i32 -1) #14, !dbg !2652, !dp.md.instr.id !2653
  unreachable, !dbg !2652, !dp.md.instr.id !2654

if.end12:                                         ; preds = %if.end6
  %edges13 = getelementptr inbounds %struct.ECLgraph, %struct.ECLgraph* %g, i32 0, i32 1, !dbg !2655, !dp.md.instr.id !2656
  %27 = bitcast i32* %edges13 to i8*, !dbg !2657, !dp.md.instr.id !2658
  %28 = ptrtoint %struct._IO_FILE** %f to i64
  %29 = load %struct._IO_FILE*, %struct._IO_FILE** %f, align 8, !dbg !2659, !dp.md.instr.id !2660
  call void @__dp_call(i32 16472), !dbg !2661
  %call14 = call i64 @fwrite(i8* %27, i64 4, i64 1, %struct._IO_FILE* %29), !dbg !2661, !dp.md.instr.id !2662
  %conv15 = trunc i64 %call14 to i32, !dbg !2661, !dp.md.instr.id !2663
  %30 = ptrtoint i32* %cnt to i64
  store i32 %conv15, i32* %cnt, align 4, !dbg !2664, !dp.md.instr.id !2665
  %31 = ptrtoint i32* %cnt to i64
  %32 = load i32, i32* %cnt, align 4, !dbg !2666, !dp.md.instr.id !2668
  %cmp16 = icmp ne i32 %32, 1, !dbg !2669, !dp.md.instr.id !2670
  call void @__dp_report_bb(i32 13)
  br i1 %cmp16, label %if.then17, label %if.end19, !dbg !2671, !dp.md.instr.id !2672

if.then17:                                        ; preds = %if.end12
  %33 = ptrtoint %struct._IO_FILE** @stderr to i64
  call void @__dp_read(i32 252, i64 %33, i8* getelementptr inbounds ([7 x i8], [7 x i8]* @.str.38, i32 0, i32 0))
  %34 = load %struct._IO_FILE*, %struct._IO_FILE** @stderr, align 8, !dbg !2673, !dp.md.instr.id !2675
  call void @__dp_call(i32 16472), !dbg !2676
  %call18 = call i32 (%struct._IO_FILE*, i8*, ...) @fprintf(%struct._IO_FILE* %34, i8* getelementptr inbounds ([31 x i8], [31 x i8]* @.str.12, i64 0, i64 0)), !dbg !2676, !dp.md.instr.id !2677
  call void @__dp_finalize(i32 16472), !dbg !2678
  call void @exit(i32 -1) #14, !dbg !2678, !dp.md.instr.id !2679
  unreachable, !dbg !2678, !dp.md.instr.id !2680

if.end19:                                         ; preds = %if.end12
  %nindex = getelementptr inbounds %struct.ECLgraph, %struct.ECLgraph* %g, i32 0, i32 2, !dbg !2681, !dp.md.instr.id !2682
  %35 = ptrtoint i32** %nindex to i64
  call void @__dp_read(i32 257, i64 %35, i8* getelementptr inbounds ([12 x i8], [12 x i8]* @.str.41, i32 0, i32 0))
  %36 = load i32*, i32** %nindex, align 8, !dbg !2681, !dp.md.instr.id !2683
  %37 = bitcast i32* %36 to i8*, !dbg !2684, !dp.md.instr.id !2685
  %nodes20 = getelementptr inbounds %struct.ECLgraph, %struct.ECLgraph* %g, i32 0, i32 0, !dbg !2686, !dp.md.instr.id !2687
  %38 = ptrtoint i32* %nodes20 to i64
  call void @__dp_read(i32 260, i64 %38, i8* getelementptr inbounds ([12 x i8], [12 x i8]* @.str.41, i32 0, i32 0))
  %39 = load i32, i32* %nodes20, align 8, !dbg !2686, !dp.md.instr.id !2688
  %add = add nsw i32 %39, 1, !dbg !2689, !dp.md.instr.id !2690
  %conv21 = sext i32 %add to i64, !dbg !2691, !dp.md.instr.id !2692
  %40 = ptrtoint %struct._IO_FILE** %f to i64
  %41 = load %struct._IO_FILE*, %struct._IO_FILE** %f, align 8, !dbg !2693, !dp.md.instr.id !2694
  call void @__dp_call(i32 16474), !dbg !2695
  %call22 = call i64 @fwrite(i8* %37, i64 4, i64 %conv21, %struct._IO_FILE* %41), !dbg !2695, !dp.md.instr.id !2696
  %conv23 = trunc i64 %call22 to i32, !dbg !2695, !dp.md.instr.id !2697
  %42 = ptrtoint i32* %cnt to i64
  store i32 %conv23, i32* %cnt, align 4, !dbg !2698, !dp.md.instr.id !2699
  %43 = ptrtoint i32* %cnt to i64
  %44 = load i32, i32* %cnt, align 4, !dbg !2700, !dp.md.instr.id !2702
  %nodes24 = getelementptr inbounds %struct.ECLgraph, %struct.ECLgraph* %g, i32 0, i32 0, !dbg !2703, !dp.md.instr.id !2704
  %45 = ptrtoint i32* %nodes24 to i64
  call void @__dp_read(i32 269, i64 %45, i8* getelementptr inbounds ([12 x i8], [12 x i8]* @.str.41, i32 0, i32 0))
  %46 = load i32, i32* %nodes24, align 8, !dbg !2703, !dp.md.instr.id !2705
  %add25 = add nsw i32 %46, 1, !dbg !2706, !dp.md.instr.id !2707
  %cmp26 = icmp ne i32 %44, %add25, !dbg !2708, !dp.md.instr.id !2709
  call void @__dp_report_bb(i32 14)
  br i1 %cmp26, label %if.then27, label %if.end29, !dbg !2710, !dp.md.instr.id !2711

if.then27:                                        ; preds = %if.end19
  %47 = ptrtoint %struct._IO_FILE** @stderr to i64
  call void @__dp_read(i32 273, i64 %47, i8* getelementptr inbounds ([7 x i8], [7 x i8]* @.str.38, i32 0, i32 0))
  %48 = load %struct._IO_FILE*, %struct._IO_FILE** @stderr, align 8, !dbg !2712, !dp.md.instr.id !2714
  call void @__dp_call(i32 16474), !dbg !2715
  %call28 = call i32 (%struct._IO_FILE*, i8*, ...) @fprintf(%struct._IO_FILE* %48, i8* getelementptr inbounds ([45 x i8], [45 x i8]* @.str.13, i64 0, i64 0)), !dbg !2715, !dp.md.instr.id !2716
  call void @__dp_finalize(i32 16474), !dbg !2717
  call void @exit(i32 -1) #14, !dbg !2717, !dp.md.instr.id !2718
  unreachable, !dbg !2717, !dp.md.instr.id !2719

if.end29:                                         ; preds = %if.end19
  %nlist = getelementptr inbounds %struct.ECLgraph, %struct.ECLgraph* %g, i32 0, i32 3, !dbg !2720, !dp.md.instr.id !2721
  %49 = ptrtoint i32** %nlist to i64
  call void @__dp_read(i32 278, i64 %49, i8* getelementptr inbounds ([12 x i8], [12 x i8]* @.str.41, i32 0, i32 0))
  %50 = load i32*, i32** %nlist, align 8, !dbg !2720, !dp.md.instr.id !2722
  %51 = bitcast i32* %50 to i8*, !dbg !2723, !dp.md.instr.id !2724
  %edges30 = getelementptr inbounds %struct.ECLgraph, %struct.ECLgraph* %g, i32 0, i32 1, !dbg !2725, !dp.md.instr.id !2726
  %52 = ptrtoint i32* %edges30 to i64
  call void @__dp_read(i32 281, i64 %52, i8* getelementptr inbounds ([12 x i8], [12 x i8]* @.str.41, i32 0, i32 0))
  %53 = load i32, i32* %edges30, align 4, !dbg !2725, !dp.md.instr.id !2727
  %conv31 = sext i32 %53 to i64, !dbg !2728, !dp.md.instr.id !2729
  %54 = ptrtoint %struct._IO_FILE** %f to i64
  %55 = load %struct._IO_FILE*, %struct._IO_FILE** %f, align 8, !dbg !2730, !dp.md.instr.id !2731
  call void @__dp_call(i32 16475), !dbg !2732
  %call32 = call i64 @fwrite(i8* %51, i64 4, i64 %conv31, %struct._IO_FILE* %55), !dbg !2732, !dp.md.instr.id !2733
  %conv33 = trunc i64 %call32 to i32, !dbg !2732, !dp.md.instr.id !2734
  %56 = ptrtoint i32* %cnt to i64
  store i32 %conv33, i32* %cnt, align 4, !dbg !2735, !dp.md.instr.id !2736
  %57 = ptrtoint i32* %cnt to i64
  %58 = load i32, i32* %cnt, align 4, !dbg !2737, !dp.md.instr.id !2739
  %edges34 = getelementptr inbounds %struct.ECLgraph, %struct.ECLgraph* %g, i32 0, i32 1, !dbg !2740, !dp.md.instr.id !2741
  %59 = ptrtoint i32* %edges34 to i64
  call void @__dp_read(i32 289, i64 %59, i8* getelementptr inbounds ([12 x i8], [12 x i8]* @.str.41, i32 0, i32 0))
  %60 = load i32, i32* %edges34, align 4, !dbg !2740, !dp.md.instr.id !2742
  %cmp35 = icmp ne i32 %58, %60, !dbg !2743, !dp.md.instr.id !2744
  call void @__dp_report_bb(i32 15)
  br i1 %cmp35, label %if.then36, label %if.end38, !dbg !2745, !dp.md.instr.id !2746

if.then36:                                        ; preds = %if.end29
  %61 = ptrtoint %struct._IO_FILE** @stderr to i64
  call void @__dp_read(i32 292, i64 %61, i8* getelementptr inbounds ([7 x i8], [7 x i8]* @.str.38, i32 0, i32 0))
  %62 = load %struct._IO_FILE*, %struct._IO_FILE** @stderr, align 8, !dbg !2747, !dp.md.instr.id !2749
  call void @__dp_call(i32 16475), !dbg !2750
  %call37 = call i32 (%struct._IO_FILE*, i8*, ...) @fprintf(%struct._IO_FILE* %62, i8* getelementptr inbounds ([39 x i8], [39 x i8]* @.str.14, i64 0, i64 0)), !dbg !2750, !dp.md.instr.id !2751
  call void @__dp_finalize(i32 16475), !dbg !2752
  call void @exit(i32 -1) #14, !dbg !2752, !dp.md.instr.id !2753
  unreachable, !dbg !2752, !dp.md.instr.id !2754

if.end38:                                         ; preds = %if.end29
  %eweight = getelementptr inbounds %struct.ECLgraph, %struct.ECLgraph* %g, i32 0, i32 4, !dbg !2755, !dp.md.instr.id !2757
  %63 = ptrtoint i32** %eweight to i64
  call void @__dp_read(i32 297, i64 %63, i8* getelementptr inbounds ([12 x i8], [12 x i8]* @.str.41, i32 0, i32 0))
  %64 = load i32*, i32** %eweight, align 8, !dbg !2755, !dp.md.instr.id !2758
  %cmp39 = icmp ne i32* %64, null, !dbg !2759, !dp.md.instr.id !2760
  br i1 %cmp39, label %if.then40, label %if.end51, !dbg !2761, !dp.md.instr.id !2762

if.then40:                                        ; preds = %if.end38
  %eweight41 = getelementptr inbounds %struct.ECLgraph, %struct.ECLgraph* %g, i32 0, i32 4, !dbg !2763, !dp.md.instr.id !2765
  %65 = ptrtoint i32** %eweight41 to i64
  call void @__dp_read(i32 301, i64 %65, i8* getelementptr inbounds ([12 x i8], [12 x i8]* @.str.41, i32 0, i32 0))
  %66 = load i32*, i32** %eweight41, align 8, !dbg !2763, !dp.md.instr.id !2766
  %67 = bitcast i32* %66 to i8*, !dbg !2767, !dp.md.instr.id !2768
  %edges42 = getelementptr inbounds %struct.ECLgraph, %struct.ECLgraph* %g, i32 0, i32 1, !dbg !2769, !dp.md.instr.id !2770
  %68 = ptrtoint i32* %edges42 to i64
  call void @__dp_read(i32 304, i64 %68, i8* getelementptr inbounds ([12 x i8], [12 x i8]* @.str.41, i32 0, i32 0))
  %69 = load i32, i32* %edges42, align 4, !dbg !2769, !dp.md.instr.id !2771
  %conv43 = sext i32 %69 to i64, !dbg !2772, !dp.md.instr.id !2773
  %70 = ptrtoint %struct._IO_FILE** %f to i64
  %71 = load %struct._IO_FILE*, %struct._IO_FILE** %f, align 8, !dbg !2774, !dp.md.instr.id !2775
  call void @__dp_call(i32 16477), !dbg !2776
  %call44 = call i64 @fwrite(i8* %67, i64 4, i64 %conv43, %struct._IO_FILE* %71), !dbg !2776, !dp.md.instr.id !2777
  %conv45 = trunc i64 %call44 to i32, !dbg !2776, !dp.md.instr.id !2778
  %72 = ptrtoint i32* %cnt to i64
  store i32 %conv45, i32* %cnt, align 4, !dbg !2779, !dp.md.instr.id !2780
  %73 = ptrtoint i32* %cnt to i64
  %74 = load i32, i32* %cnt, align 4, !dbg !2781, !dp.md.instr.id !2783
  %edges46 = getelementptr inbounds %struct.ECLgraph, %struct.ECLgraph* %g, i32 0, i32 1, !dbg !2784, !dp.md.instr.id !2785
  %75 = ptrtoint i32* %edges46 to i64
  call void @__dp_read(i32 312, i64 %75, i8* getelementptr inbounds ([12 x i8], [12 x i8]* @.str.41, i32 0, i32 0))
  %76 = load i32, i32* %edges46, align 4, !dbg !2784, !dp.md.instr.id !2786
  %cmp47 = icmp ne i32 %74, %76, !dbg !2787, !dp.md.instr.id !2788
  call void @__dp_report_bb(i32 16)
  br i1 %cmp47, label %if.then48, label %if.end50, !dbg !2789, !dp.md.instr.id !2790

if.then48:                                        ; preds = %if.then40
  %77 = ptrtoint %struct._IO_FILE** @stderr to i64
  call void @__dp_read(i32 315, i64 %77, i8* getelementptr inbounds ([7 x i8], [7 x i8]* @.str.38, i32 0, i32 0))
  %78 = load %struct._IO_FILE*, %struct._IO_FILE** @stderr, align 8, !dbg !2791, !dp.md.instr.id !2793
  call void @__dp_call(i32 16477), !dbg !2794
  %call49 = call i32 (%struct._IO_FILE*, i8*, ...) @fprintf(%struct._IO_FILE* %78, i8* getelementptr inbounds ([38 x i8], [38 x i8]* @.str.15, i64 0, i64 0)), !dbg !2794, !dp.md.instr.id !2795
  call void @__dp_finalize(i32 16477), !dbg !2796
  call void @exit(i32 -1) #14, !dbg !2796, !dp.md.instr.id !2797
  unreachable, !dbg !2796, !dp.md.instr.id !2798

if.end50:                                         ; preds = %if.then40
  br label %if.end51, !dbg !2799, !dp.md.instr.id !2800

if.end51:                                         ; preds = %if.end50, %if.end38
  %79 = ptrtoint %struct._IO_FILE** %f to i64
  %80 = load %struct._IO_FILE*, %struct._IO_FILE** %f, align 8, !dbg !2801, !dp.md.instr.id !2802
  call void @__dp_call(i32 16479), !dbg !2803
  %call52 = call i32 @fclose(%struct._IO_FILE* %80), !dbg !2803, !dp.md.instr.id !2804
  call void @__dp_report_bb(i32 17)
  call void @__dp_func_exit(i32 16480, i32 0), !dbg !2805
  ret void, !dbg !2805, !dp.md.instr.id !2806
}

declare i64 @fwrite(i8*, i64, i64, %struct._IO_FILE*) #2

; Function Attrs: noinline nounwind optnone uwtable
define void @_Z12freeECLgraphR8ECLgraph(%struct.ECLgraph* nonnull align 8 dereferenceable(32) %g) #5 !dbg !2807 {
entry:
  call void @__dp_func_entry(i32 16482, i32 0), !dp.md.instr.id !2811
  %g.addr = alloca %struct.ECLgraph*, align 8, !dp.md.instr.id !2812
  %0 = ptrtoint %struct.ECLgraph** %g.addr to i64, !dp.md.instr.id !2813
  %1 = ptrtoint %struct.ECLgraph** %g.addr to i64
  store %struct.ECLgraph* %g, %struct.ECLgraph** %g.addr, align 8, !dp.md.instr.id !2814
  call void @llvm.dbg.declare(metadata %struct.ECLgraph** %g.addr, metadata !2815, metadata !DIExpression()), !dbg !2816, !dp.md.instr.id !2817
  %2 = ptrtoint %struct.ECLgraph** %g.addr to i64
  %3 = load %struct.ECLgraph*, %struct.ECLgraph** %g.addr, align 8, !dbg !2818, !dp.md.instr.id !2820
  %nindex = getelementptr inbounds %struct.ECLgraph, %struct.ECLgraph* %3, i32 0, i32 2, !dbg !2821, !dp.md.instr.id !2822
  %4 = ptrtoint i32** %nindex to i64
  call void @__dp_read(i32 331, i64 %4, i8* getelementptr inbounds ([12 x i8], [12 x i8]* @.str.41, i32 0, i32 0))
  %5 = load i32*, i32** %nindex, align 8, !dbg !2821, !dp.md.instr.id !2823
  %cmp = icmp ne i32* %5, null, !dbg !2824, !dp.md.instr.id !2825
  call void @__dp_report_bb(i32 18)
  br i1 %cmp, label %if.then, label %if.end, !dbg !2826, !dp.md.instr.id !2827

if.then:                                          ; preds = %entry
  %6 = ptrtoint %struct.ECLgraph** %g.addr to i64
  %7 = load %struct.ECLgraph*, %struct.ECLgraph** %g.addr, align 8, !dbg !2828, !dp.md.instr.id !2829
  %nindex1 = getelementptr inbounds %struct.ECLgraph, %struct.ECLgraph* %7, i32 0, i32 2, !dbg !2830, !dp.md.instr.id !2831
  %8 = ptrtoint i32** %nindex1 to i64
  call void @__dp_read(i32 336, i64 %8, i8* getelementptr inbounds ([12 x i8], [12 x i8]* @.str.41, i32 0, i32 0))
  %9 = load i32*, i32** %nindex1, align 8, !dbg !2830, !dp.md.instr.id !2832
  %10 = bitcast i32* %9 to i8*, !dbg !2828, !dp.md.instr.id !2833
  call void @free(i8* %10) #12, !dbg !2834, !dp.md.instr.id !2835
  %11 = ptrtoint i8* %10 to i64, !dp.md.instr.id !2836
  call void @__dp_delete(i32 16484, i64 %11), !dbg !2834, !dp.md.instr.id !2837
  call void @__dp_report_bb(i32 19)
  br label %if.end, !dbg !2834, !dp.md.instr.id !2838

if.end:                                           ; preds = %if.then, %entry
  %12 = ptrtoint %struct.ECLgraph** %g.addr to i64
  %13 = load %struct.ECLgraph*, %struct.ECLgraph** %g.addr, align 8, !dbg !2839, !dp.md.instr.id !2841
  %nlist = getelementptr inbounds %struct.ECLgraph, %struct.ECLgraph* %13, i32 0, i32 3, !dbg !2842, !dp.md.instr.id !2843
  %14 = ptrtoint i32** %nlist to i64
  call void @__dp_read(i32 344, i64 %14, i8* getelementptr inbounds ([12 x i8], [12 x i8]* @.str.41, i32 0, i32 0))
  %15 = load i32*, i32** %nlist, align 8, !dbg !2842, !dp.md.instr.id !2844
  %cmp2 = icmp ne i32* %15, null, !dbg !2845, !dp.md.instr.id !2846
  call void @__dp_report_bb(i32 20)
  br i1 %cmp2, label %if.then3, label %if.end5, !dbg !2847, !dp.md.instr.id !2848

if.then3:                                         ; preds = %if.end
  %16 = ptrtoint %struct.ECLgraph** %g.addr to i64
  %17 = load %struct.ECLgraph*, %struct.ECLgraph** %g.addr, align 8, !dbg !2849, !dp.md.instr.id !2850
  %nlist4 = getelementptr inbounds %struct.ECLgraph, %struct.ECLgraph* %17, i32 0, i32 3, !dbg !2851, !dp.md.instr.id !2852
  %18 = ptrtoint i32** %nlist4 to i64
  call void @__dp_read(i32 349, i64 %18, i8* getelementptr inbounds ([12 x i8], [12 x i8]* @.str.41, i32 0, i32 0))
  %19 = load i32*, i32** %nlist4, align 8, !dbg !2851, !dp.md.instr.id !2853
  %20 = bitcast i32* %19 to i8*, !dbg !2849, !dp.md.instr.id !2854
  call void @free(i8* %20) #12, !dbg !2855, !dp.md.instr.id !2856
  %21 = ptrtoint i8* %20 to i64, !dp.md.instr.id !2857
  call void @__dp_delete(i32 16485, i64 %21), !dbg !2855, !dp.md.instr.id !2858
  call void @__dp_report_bb(i32 21)
  br label %if.end5, !dbg !2855, !dp.md.instr.id !2859

if.end5:                                          ; preds = %if.then3, %if.end
  %22 = ptrtoint %struct.ECLgraph** %g.addr to i64
  %23 = load %struct.ECLgraph*, %struct.ECLgraph** %g.addr, align 8, !dbg !2860, !dp.md.instr.id !2862
  %eweight = getelementptr inbounds %struct.ECLgraph, %struct.ECLgraph* %23, i32 0, i32 4, !dbg !2863, !dp.md.instr.id !2864
  %24 = ptrtoint i32** %eweight to i64
  call void @__dp_read(i32 357, i64 %24, i8* getelementptr inbounds ([12 x i8], [12 x i8]* @.str.41, i32 0, i32 0))
  %25 = load i32*, i32** %eweight, align 8, !dbg !2863, !dp.md.instr.id !2865
  %cmp6 = icmp ne i32* %25, null, !dbg !2866, !dp.md.instr.id !2867
  call void @__dp_report_bb(i32 22)
  br i1 %cmp6, label %if.then7, label %if.end9, !dbg !2868, !dp.md.instr.id !2869

if.then7:                                         ; preds = %if.end5
  %26 = ptrtoint %struct.ECLgraph** %g.addr to i64
  %27 = load %struct.ECLgraph*, %struct.ECLgraph** %g.addr, align 8, !dbg !2870, !dp.md.instr.id !2871
  %eweight8 = getelementptr inbounds %struct.ECLgraph, %struct.ECLgraph* %27, i32 0, i32 4, !dbg !2872, !dp.md.instr.id !2873
  %28 = ptrtoint i32** %eweight8 to i64
  call void @__dp_read(i32 362, i64 %28, i8* getelementptr inbounds ([12 x i8], [12 x i8]* @.str.41, i32 0, i32 0))
  %29 = load i32*, i32** %eweight8, align 8, !dbg !2872, !dp.md.instr.id !2874
  %30 = bitcast i32* %29 to i8*, !dbg !2870, !dp.md.instr.id !2875
  call void @free(i8* %30) #12, !dbg !2876, !dp.md.instr.id !2877
  %31 = ptrtoint i8* %30 to i64, !dp.md.instr.id !2878
  call void @__dp_delete(i32 16486, i64 %31), !dbg !2876, !dp.md.instr.id !2879
  call void @__dp_report_bb(i32 23)
  br label %if.end9, !dbg !2876, !dp.md.instr.id !2880

if.end9:                                          ; preds = %if.then7, %if.end5
  %32 = ptrtoint %struct.ECLgraph** %g.addr to i64
  %33 = load %struct.ECLgraph*, %struct.ECLgraph** %g.addr, align 8, !dbg !2881, !dp.md.instr.id !2882
  %nindex10 = getelementptr inbounds %struct.ECLgraph, %struct.ECLgraph* %33, i32 0, i32 2, !dbg !2883, !dp.md.instr.id !2884
  %34 = ptrtoint i32** %nindex10 to i64
  call void @__dp_write(i32 370, i64 %34, i8* getelementptr inbounds ([12 x i8], [12 x i8]* @.str.41, i32 0, i32 0))
  store i32* null, i32** %nindex10, align 8, !dbg !2885, !dp.md.instr.id !2886
  %35 = ptrtoint %struct.ECLgraph** %g.addr to i64
  %36 = load %struct.ECLgraph*, %struct.ECLgraph** %g.addr, align 8, !dbg !2887, !dp.md.instr.id !2888
  %nlist11 = getelementptr inbounds %struct.ECLgraph, %struct.ECLgraph* %36, i32 0, i32 3, !dbg !2889, !dp.md.instr.id !2890
  %37 = ptrtoint i32** %nlist11 to i64
  call void @__dp_write(i32 373, i64 %37, i8* getelementptr inbounds ([12 x i8], [12 x i8]* @.str.41, i32 0, i32 0))
  store i32* null, i32** %nlist11, align 8, !dbg !2891, !dp.md.instr.id !2892
  %38 = ptrtoint %struct.ECLgraph** %g.addr to i64
  %39 = load %struct.ECLgraph*, %struct.ECLgraph** %g.addr, align 8, !dbg !2893, !dp.md.instr.id !2894
  %eweight12 = getelementptr inbounds %struct.ECLgraph, %struct.ECLgraph* %39, i32 0, i32 4, !dbg !2895, !dp.md.instr.id !2896
  %40 = ptrtoint i32** %eweight12 to i64
  call void @__dp_write(i32 376, i64 %40, i8* getelementptr inbounds ([12 x i8], [12 x i8]* @.str.41, i32 0, i32 0))
  store i32* null, i32** %eweight12, align 8, !dbg !2897, !dp.md.instr.id !2898
  call void @__dp_report_bb(i32 24)
  call void @__dp_func_exit(i32 16490, i32 0), !dbg !2899
  ret void, !dbg !2899, !dp.md.instr.id !2900
}

; Function Attrs: noinline norecurse optnone uwtable
define i32 @main(i32 %argc, i8** %argv) #6 personality i8* bitcast (i32 (...)* @__gxx_personality_v0 to i8*) !dbg !2901 {
entry:
  call void @__dp_func_entry(i32 32836, i32 1), !dp.md.instr.id !2905
  %__dp_bb154 = alloca i32, align 4
  store i32 0, i32* %__dp_bb154, align 4
  %__dp_bb153 = alloca i32, align 4
  store i32 0, i32* %__dp_bb153, align 4
  %__dp_bb152 = alloca i32, align 4
  store i32 0, i32* %__dp_bb152, align 4
  %__dp_bb151 = alloca i32, align 4
  store i32 0, i32* %__dp_bb151, align 4
  %__dp_bb150 = alloca i32, align 4
  store i32 0, i32* %__dp_bb150, align 4
  %__dp_bb149 = alloca i32, align 4
  store i32 0, i32* %__dp_bb149, align 4
  %__dp_bb148 = alloca i32, align 4
  store i32 0, i32* %__dp_bb148, align 4
  %__dp_bb147 = alloca i32, align 4
  store i32 0, i32* %__dp_bb147, align 4
  %__dp_bb146 = alloca i32, align 4
  store i32 0, i32* %__dp_bb146, align 4
  %__dp_bb145 = alloca i32, align 4
  store i32 0, i32* %__dp_bb145, align 4
  %__dp_bb = alloca i32, align 4
  store i32 0, i32* %__dp_bb, align 4
  %retval = alloca i32, align 4, !dp.md.instr.id !2906
  %0 = ptrtoint i32* %retval to i64, !dp.md.instr.id !2907
  %argc.addr = alloca i32, align 4, !dp.md.instr.id !2908
  %1 = ptrtoint i32* %argc.addr to i64, !dp.md.instr.id !2909
  %argv.addr = alloca i8**, align 8, !dp.md.instr.id !2910
  %2 = ptrtoint i8*** %argv.addr to i64, !dp.md.instr.id !2911
  %g = alloca %struct.ECLgraph, align 8, !dp.md.instr.id !2912
  %3 = ptrtoint %struct.ECLgraph* %g to i64, !dp.md.instr.id !2913
  call void @__dp_alloca(i32 32836, i8* getelementptr inbounds ([2 x i8], [2 x i8]* @.str.42, i32 0, i32 0), i64 %3, i64 %3, i64 0, i64 1), !dp.md.instr.id !2914
  %runveri = alloca i32, align 4, !dp.md.instr.id !2915
  %4 = ptrtoint i32* %runveri to i64, !dp.md.instr.id !2916
  %threadCount = alloca i32, align 4, !dp.md.instr.id !2917
  %5 = ptrtoint i32* %threadCount to i64, !dp.md.instr.id !2918
  %countInt = alloca i32, align 4, !dp.md.instr.id !2919
  %6 = ptrtoint i32* %countInt to i64, !dp.md.instr.id !2920
  %label = alloca i32*, align 8, !dp.md.instr.id !2921
  %7 = ptrtoint i32** %label to i64, !dp.md.instr.id !2922
  %runs = alloca i32, align 4, !dp.md.instr.id !2923
  %8 = ptrtoint i32* %runs to i64, !dp.md.instr.id !2924
  %runtimes = alloca [3 x double], align 16, !dp.md.instr.id !2925
  %9 = ptrtoint [3 x double]* %runtimes to i64, !dp.md.instr.id !2926
  %10 = add i64 %9, 3, !dp.md.instr.id !2927
  call void @__dp_alloca(i32 32836, i8* getelementptr inbounds ([9 x i8], [9 x i8]* @.str.99, i32 0, i32 0), i64 %9, i64 %10, i64 24, i64 3), !dp.md.instr.id !2928
  %i = alloca i32, align 4, !dp.md.instr.id !2929
  %11 = ptrtoint i32* %i to i64, !dp.md.instr.id !2930
  %agg.tmp = alloca %struct.ECLgraph, align 8, !dp.md.instr.id !2931
  %12 = ptrtoint %struct.ECLgraph* %agg.tmp to i64, !dp.md.instr.id !2932
  call void @__dp_alloca(i32 32836, i8* getelementptr inbounds ([8 x i8], [8 x i8]* @.str.101, i32 0, i32 0), i64 %12, i64 %12, i64 0, i64 1), !dp.md.instr.id !2933
  %med = alloca double, align 8, !dp.md.instr.id !2934
  %13 = ptrtoint double* %med to i64, !dp.md.instr.id !2935
  %s1 = alloca %"class.std::set", align 8, !dp.md.instr.id !2936
  %14 = ptrtoint %"class.std::set"* %s1 to i64, !dp.md.instr.id !2937
  call void @__dp_alloca(i32 32836, i8* getelementptr inbounds ([3 x i8], [3 x i8]* @.str.103, i32 0, i32 0), i64 %14, i64 %14, i64 0, i64 1), !dp.md.instr.id !2938
  %v = alloca i32, align 4, !dp.md.instr.id !2939
  %15 = ptrtoint i32* %v to i64, !dp.md.instr.id !2940
  %exn.slot = alloca i8*, align 8, !dp.md.instr.id !2941
  %16 = ptrtoint i8** %exn.slot to i64, !dp.md.instr.id !2942
  %ehselector.slot = alloca i32, align 4, !dp.md.instr.id !2943
  %17 = ptrtoint i32* %ehselector.slot to i64, !dp.md.instr.id !2944
  %coerce = alloca %"struct.std::pair", align 8, !dp.md.instr.id !2945
  %18 = ptrtoint %"struct.std::pair"* %coerce to i64, !dp.md.instr.id !2946
  call void @__dp_alloca(i32 32836, i8* getelementptr inbounds ([7 x i8], [7 x i8]* @.str.107, i32 0, i32 0), i64 %18, i64 %18, i64 0, i64 1), !dp.md.instr.id !2947
  %v50 = alloca i32, align 4, !dp.md.instr.id !2948
  %19 = ptrtoint i32* %v50 to i64, !dp.md.instr.id !2949
  %i55 = alloca i32, align 4, !dp.md.instr.id !2950
  %20 = ptrtoint i32* %i55 to i64, !dp.md.instr.id !2951
  %v81 = alloca i32, align 4, !dp.md.instr.id !2952
  %21 = ptrtoint i32* %v81 to i64, !dp.md.instr.id !2953
  %s2 = alloca %"class.std::set", align 8, !dp.md.instr.id !2954
  %22 = ptrtoint %"class.std::set"* %s2 to i64, !dp.md.instr.id !2955
  call void @__dp_alloca(i32 32836, i8* getelementptr inbounds ([3 x i8], [3 x i8]* @.str.108, i32 0, i32 0), i64 %22, i64 %22, i64 0, i64 1), !dp.md.instr.id !2956
  %count = alloca i32, align 4, !dp.md.instr.id !2957
  %23 = ptrtoint i32* %count to i64, !dp.md.instr.id !2958
  %v97 = alloca i32, align 4, !dp.md.instr.id !2959
  %24 = ptrtoint i32* %v97 to i64, !dp.md.instr.id !2960
  %coerce113 = alloca %"struct.std::pair", align 8, !dp.md.instr.id !2961
  %25 = ptrtoint %"struct.std::pair"* %coerce113 to i64, !dp.md.instr.id !2962
  call void @__dp_alloca(i32 32836, i8* getelementptr inbounds ([10 x i8], [10 x i8]* @.str.110, i32 0, i32 0), i64 %25, i64 %25, i64 0, i64 1), !dp.md.instr.id !2963
  %26 = ptrtoint i32* %retval to i64
  store i32 0, i32* %retval, align 4, !dp.md.instr.id !2964
  %27 = ptrtoint i32* %argc.addr to i64
  store i32 %argc, i32* %argc.addr, align 4, !dp.md.instr.id !2965
  call void @llvm.dbg.declare(metadata i32* %argc.addr, metadata !2966, metadata !DIExpression()), !dbg !2967, !dp.md.instr.id !2968
  %28 = ptrtoint i8*** %argv.addr to i64
  store i8** %argv, i8*** %argv.addr, align 8, !dp.md.instr.id !2969
  call void @llvm.dbg.declare(metadata i8*** %argv.addr, metadata !2970, metadata !DIExpression()), !dbg !2971, !dp.md.instr.id !2972
  call void @__dp_call(i32 32838), !dbg !2973
  %call = call i32 (i8*, ...) @printf(i8* getelementptr inbounds ([26 x i8], [26 x i8]* @.str.16, i64 0, i64 0), i8* getelementptr inbounds ([82 x i8], [82 x i8]* @.str.17, i64 0, i64 0)), !dbg !2973, !dp.md.instr.id !2974
  %29 = ptrtoint i32* %argc.addr to i64
  %30 = load i32, i32* %argc.addr, align 4, !dbg !2975, !dp.md.instr.id !2977
  %cmp = icmp ne i32 %30, 3, !dbg !2978, !dp.md.instr.id !2979
  call void @__dp_report_bb(i32 28)
  br i1 %cmp, label %land.lhs.true, label %if.end, !dbg !2980, !dp.md.instr.id !2981

land.lhs.true:                                    ; preds = %entry
  %31 = ptrtoint i32* %argc.addr to i64
  %32 = load i32, i32* %argc.addr, align 4, !dbg !2982, !dp.md.instr.id !2983
  %cmp1 = icmp ne i32 %32, 4, !dbg !2984, !dp.md.instr.id !2985
  call void @__dp_report_bb(i32 31)
  br i1 %cmp1, label %if.then, label %if.end, !dbg !2986, !dp.md.instr.id !2987

if.then:                                          ; preds = %land.lhs.true
  %33 = ptrtoint %struct._IO_FILE** @stderr to i64
  call void @__dp_read(i32 467, i64 %33, i8* getelementptr inbounds ([7 x i8], [7 x i8]* @.str.38, i32 0, i32 0))
  %34 = load %struct._IO_FILE*, %struct._IO_FILE** @stderr, align 8, !dbg !2988, !dp.md.instr.id !2990
  %35 = ptrtoint i8*** %argv.addr to i64
  %36 = load i8**, i8*** %argv.addr, align 8, !dbg !2991, !dp.md.instr.id !2992
  %arrayidx = getelementptr inbounds i8*, i8** %36, i64 0, !dbg !2991, !dp.md.instr.id !2993
  %37 = ptrtoint i8** %arrayidx to i64
  call void @__dp_read(i32 470, i64 %37, i8* getelementptr inbounds ([15 x i8], [15 x i8]* @.str.111, i32 0, i32 0))
  %38 = load i8*, i8** %arrayidx, align 8, !dbg !2991, !dp.md.instr.id !2994
  call void @__dp_call(i32 32839), !dbg !2995
  %call2 = call i32 (%struct._IO_FILE*, i8*, ...) @fprintf(%struct._IO_FILE* %34, i8* getelementptr inbounds ([57 x i8], [57 x i8]* @.str.18, i64 0, i64 0), i8* %38), !dbg !2995, !dp.md.instr.id !2996
  call void @__dp_finalize(i32 32839), !dbg !2997
  call void @exit(i32 -1) #14, !dbg !2997, !dp.md.instr.id !2998
  call void @__dp_report_bb(i32 29)
  unreachable, !dbg !2997, !dp.md.instr.id !2999

if.end:                                           ; preds = %land.lhs.true, %entry
  call void @llvm.dbg.declare(metadata %struct.ECLgraph* %g, metadata !3000, metadata !DIExpression()), !dbg !3001, !dp.md.instr.id !3002
  %39 = ptrtoint i8*** %argv.addr to i64
  %40 = load i8**, i8*** %argv.addr, align 8, !dbg !3003, !dp.md.instr.id !3004
  %arrayidx3 = getelementptr inbounds i8*, i8** %40, i64 1, !dbg !3003, !dp.md.instr.id !3005
  %41 = ptrtoint i8** %arrayidx3 to i64
  call void @__dp_read(i32 477, i64 %41, i8* getelementptr inbounds ([15 x i8], [15 x i8]* @.str.111, i32 0, i32 0))
  %42 = load i8*, i8** %arrayidx3, align 8, !dbg !3003, !dp.md.instr.id !3006
  call void @__dp_call(i32 32842), !dbg !3007
  call void @_Z12readECLgraphPKc(%struct.ECLgraph* sret align 8 %g, i8* %42), !dbg !3007, !dp.md.instr.id !3008
  %43 = ptrtoint i8*** %argv.addr to i64
  %44 = load i8**, i8*** %argv.addr, align 8, !dbg !3009, !dp.md.instr.id !3010
  %arrayidx4 = getelementptr inbounds i8*, i8** %44, i64 1, !dbg !3009, !dp.md.instr.id !3011
  %45 = ptrtoint i8** %arrayidx4 to i64
  call void @__dp_read(i32 481, i64 %45, i8* getelementptr inbounds ([15 x i8], [15 x i8]* @.str.111, i32 0, i32 0))
  %46 = load i8*, i8** %arrayidx4, align 8, !dbg !3009, !dp.md.instr.id !3012
  call void @__dp_call(i32 32843), !dbg !3013
  %call5 = call i32 (i8*, ...) @printf(i8* getelementptr inbounds ([11 x i8], [11 x i8]* @.str.19, i64 0, i64 0), i8* %46), !dbg !3013, !dp.md.instr.id !3014
  %nodes = getelementptr inbounds %struct.ECLgraph, %struct.ECLgraph* %g, i32 0, i32 0, !dbg !3015, !dp.md.instr.id !3016
  %47 = ptrtoint i32* %nodes to i64
  call void @__dp_read(i32 484, i64 %47, i8* getelementptr inbounds ([12 x i8], [12 x i8]* @.str.41, i32 0, i32 0))
  %48 = load i32, i32* %nodes, align 8, !dbg !3015, !dp.md.instr.id !3017
  call void @__dp_call(i32 32844), !dbg !3018
  %call6 = call i32 (i8*, ...) @printf(i8* getelementptr inbounds ([11 x i8], [11 x i8]* @.str.20, i64 0, i64 0), i32 %48), !dbg !3018, !dp.md.instr.id !3019
  %edges = getelementptr inbounds %struct.ECLgraph, %struct.ECLgraph* %g, i32 0, i32 1, !dbg !3020, !dp.md.instr.id !3021
  %49 = ptrtoint i32* %edges to i64
  call void @__dp_read(i32 487, i64 %49, i8* getelementptr inbounds ([12 x i8], [12 x i8]* @.str.41, i32 0, i32 0))
  %50 = load i32, i32* %edges, align 4, !dbg !3020, !dp.md.instr.id !3022
  call void @__dp_call(i32 32845), !dbg !3023
  %call7 = call i32 (i8*, ...) @printf(i8* getelementptr inbounds ([11 x i8], [11 x i8]* @.str.21, i64 0, i64 0), i32 %50), !dbg !3023, !dp.md.instr.id !3024
  call void @llvm.dbg.declare(metadata i32* %runveri, metadata !3025, metadata !DIExpression()), !dbg !3026, !dp.md.instr.id !3027
  %51 = ptrtoint i8*** %argv.addr to i64
  %52 = load i8**, i8*** %argv.addr, align 8, !dbg !3028, !dp.md.instr.id !3029
  %arrayidx8 = getelementptr inbounds i8*, i8** %52, i64 2, !dbg !3028, !dp.md.instr.id !3030
  %53 = ptrtoint i8** %arrayidx8 to i64
  call void @__dp_read(i32 492, i64 %53, i8* getelementptr inbounds ([15 x i8], [15 x i8]* @.str.111, i32 0, i32 0))
  %54 = load i8*, i8** %arrayidx8, align 8, !dbg !3028, !dp.md.instr.id !3031
  call void @__dp_call(i32 32846), !dbg !3032
  %call9 = call i32 @atoi(i8* %54) #15, !dbg !3032, !dp.md.instr.id !3033
  %55 = ptrtoint i32* %runveri to i64
  store i32 %call9, i32* %runveri, align 4, !dbg !3026, !dp.md.instr.id !3034
  %56 = ptrtoint i32* %runveri to i64
  %57 = load i32, i32* %runveri, align 4, !dbg !3035, !dp.md.instr.id !3037
  %cmp10 = icmp ne i32 %57, 0, !dbg !3038, !dp.md.instr.id !3039
  call void @__dp_report_bb(i32 30)
  br i1 %cmp10, label %land.lhs.true11, label %if.end15, !dbg !3040, !dp.md.instr.id !3041

land.lhs.true11:                                  ; preds = %if.end
  %58 = ptrtoint i32* %runveri to i64
  %59 = load i32, i32* %runveri, align 4, !dbg !3042, !dp.md.instr.id !3043
  %cmp12 = icmp ne i32 %59, 1, !dbg !3044, !dp.md.instr.id !3045
  call void @__dp_report_bb(i32 33)
  br i1 %cmp12, label %if.then13, label %if.end15, !dbg !3046, !dp.md.instr.id !3047

if.then13:                                        ; preds = %land.lhs.true11
  call void @__dp_call(i32 32848), !dbg !3048
  %call14 = call i32 (i8*, ...) @printf(i8* getelementptr inbounds ([51 x i8], [51 x i8]* @.str.22, i64 0, i64 0)), !dbg !3048, !dp.md.instr.id !3050
  br label %if.end15, !dbg !3051, !dp.md.instr.id !3052

if.end15:                                         ; preds = %if.then13, %land.lhs.true11, %if.end
  call void @llvm.dbg.declare(metadata i32* %threadCount, metadata !3053, metadata !DIExpression()), !dbg !3054, !dp.md.instr.id !3055
  call void @__dp_call(i32 32851), !dbg !3056
  %call16 = call i32 @_ZNSt6thread20hardware_concurrencyEv() #12, !dbg !3056, !dp.md.instr.id !3057
  %60 = ptrtoint i32* %threadCount to i64
  store i32 %call16, i32* %threadCount, align 4, !dbg !3054, !dp.md.instr.id !3058
  %61 = ptrtoint i32* %argc.addr to i64
  %62 = load i32, i32* %argc.addr, align 4, !dbg !3059, !dp.md.instr.id !3061
  %cmp17 = icmp eq i32 %62, 4, !dbg !3062, !dp.md.instr.id !3063
  call void @__dp_report_bb(i32 32)
  br i1 %cmp17, label %if.then18, label %if.end23, !dbg !3064, !dp.md.instr.id !3065

if.then18:                                        ; preds = %if.end15
  call void @llvm.dbg.declare(metadata i32* %countInt, metadata !3066, metadata !DIExpression()), !dbg !3068, !dp.md.instr.id !3069
  %63 = ptrtoint i8*** %argv.addr to i64
  %64 = load i8**, i8*** %argv.addr, align 8, !dbg !3070, !dp.md.instr.id !3071
  %arrayidx19 = getelementptr inbounds i8*, i8** %64, i64 3, !dbg !3070, !dp.md.instr.id !3072
  %65 = ptrtoint i8** %arrayidx19 to i64
  call void @__dp_read(i32 512, i64 %65, i8* getelementptr inbounds ([15 x i8], [15 x i8]* @.str.111, i32 0, i32 0))
  %66 = load i8*, i8** %arrayidx19, align 8, !dbg !3070, !dp.md.instr.id !3073
  call void @__dp_call(i32 32853), !dbg !3074
  %call20 = call i32 @atoi(i8* %66) #15, !dbg !3074, !dp.md.instr.id !3075
  %67 = ptrtoint i32* %countInt to i64
  store i32 %call20, i32* %countInt, align 4, !dbg !3068, !dp.md.instr.id !3076
  %68 = ptrtoint i32* %countInt to i64
  %69 = load i32, i32* %countInt, align 4, !dbg !3068, !dp.md.instr.id !3077
  %tobool = icmp ne i32 %69, 0, !dbg !3068, !dp.md.instr.id !3078
  call void @__dp_report_bb(i32 34)
  br i1 %tobool, label %if.then21, label %if.end22, !dbg !3079, !dp.md.instr.id !3080

if.then21:                                        ; preds = %if.then18
  %70 = ptrtoint i32* %countInt to i64
  %71 = load i32, i32* %countInt, align 4, !dbg !3081, !dp.md.instr.id !3082
  %72 = ptrtoint i32* %threadCount to i64
  store i32 %71, i32* %threadCount, align 4, !dbg !3083, !dp.md.instr.id !3084
  call void @__dp_report_bb(i32 36)
  store i32 1, i32* %__dp_bb145, align 4
  br label %if.end22, !dbg !3085, !dp.md.instr.id !3086

if.end22:                                         ; preds = %if.then21, %if.then18
  br label %if.end23, !dbg !3068, !dp.md.instr.id !3087

if.end23:                                         ; preds = %if.end22, %if.end15
  %73 = ptrtoint i32* %threadCount to i64
  %74 = load i32, i32* %threadCount, align 4, !dbg !3088, !dp.md.instr.id !3089
  call void @__dp_call(i32 32855), !dbg !3090
  %call24 = call i32 (i8*, ...) @printf(i8* getelementptr inbounds ([13 x i8], [13 x i8]* @.str.23, i64 0, i64 0), i32 %74), !dbg !3090, !dp.md.instr.id !3091
  call void @llvm.dbg.declare(metadata i32** %label, metadata !3092, metadata !DIExpression()), !dbg !3096, !dp.md.instr.id !3097
  %nodes25 = getelementptr inbounds %struct.ECLgraph, %struct.ECLgraph* %g, i32 0, i32 0, !dbg !3098, !dp.md.instr.id !3099
  %75 = ptrtoint i32* %nodes25 to i64
  call void @__dp_read(i32 526, i64 %75, i8* getelementptr inbounds ([12 x i8], [12 x i8]* @.str.41, i32 0, i32 0))
  %76 = load i32, i32* %nodes25, align 8, !dbg !3098, !dp.md.instr.id !3100
  %conv = sext i32 %76 to i64, !dbg !3101, !dp.md.instr.id !3102
  call void @__dp_call(i32 32858), !dbg !3103
  %77 = call { i64, i1 } @llvm.umul.with.overflow.i64(i64 %conv, i64 4), !dbg !3103, !dp.md.instr.id !3104
  %78 = extractvalue { i64, i1 } %77, 1, !dbg !3103, !dp.md.instr.id !3105
  %79 = extractvalue { i64, i1 } %77, 0, !dbg !3103, !dp.md.instr.id !3106
  %80 = select i1 %78, i64 -1, i64 %79, !dbg !3103, !dp.md.instr.id !3107
  %call26 = call noalias nonnull i8* @_Znam(i64 %80) #16, !dbg !3103, !heapallocsite !3095, !dp.md.instr.id !3108
  %81 = ptrtoint i8* %call26 to i64, !dp.md.instr.id !3109
  call void @__dp_new(i32 32858, i64 %81, i64 %81, i64 %80), !dbg !3103, !dp.md.instr.id !3110
  %82 = bitcast i8* %call26 to i32*, !dbg !3103, !dp.md.instr.id !3111
  %83 = ptrtoint i32** %label to i64
  store i32* %82, i32** %label, align 8, !dbg !3096, !dp.md.instr.id !3112
  call void @llvm.dbg.declare(metadata i32* %runs, metadata !3113, metadata !DIExpression()), !dbg !3114, !dp.md.instr.id !3115
  %84 = ptrtoint i32* %runs to i64
  store i32 3, i32* %runs, align 4, !dbg !3114, !dp.md.instr.id !3116
  call void @llvm.dbg.declare(metadata [3 x double]* %runtimes, metadata !3117, metadata !DIExpression()), !dbg !3121, !dp.md.instr.id !3122
  call void @llvm.dbg.declare(metadata i32* %i, metadata !3123, metadata !DIExpression()), !dbg !3125, !dp.md.instr.id !3126
  %85 = ptrtoint i32* %i to i64
  store i32 0, i32* %i, align 4, !dbg !3125, !dp.md.instr.id !3127
  call void @__dp_report_bb(i32 35)
  %86 = load i32, i32* %__dp_bb145, align 4
  call void @__dp_report_bb_pair(i32 %86, i32 65)
  br label %for.cond, !dbg !3128, !dp.md.instr.id !3129

for.cond:                                         ; preds = %for.inc, %if.end23
  call void @__dp_loop_entry(i32 32863, i32 0), !dp.md.instr.id !3130
  %87 = ptrtoint i32* %i to i64
  %88 = load i32, i32* %i, align 4, !dbg !3131, !dp.md.instr.id !3133
  %cmp27 = icmp slt i32 %88, 3, !dbg !3134, !dp.md.instr.id !3135
  call void @__dp_report_bb(i32 38)
  %89 = load i32, i32* %__dp_bb146, align 4
  call void @__dp_report_bb_pair(i32 %89, i32 67)
  br i1 %cmp27, label %for.body, label %for.end, !dbg !3136, !dp.md.instr.id !3137

for.body:                                         ; preds = %for.cond
  call void @__dp_loop_incr(i32 6)
  %90 = bitcast %struct.ECLgraph* %agg.tmp to i8*, !dbg !3138, !dp.md.instr.id !3140
  %91 = bitcast %struct.ECLgraph* %g to i8*, !dbg !3138, !dp.md.instr.id !3141
  call void @__dp_call(i32 32864), !dbg !3138
  call void @llvm.memcpy.p0i8.p0i8.i64(i8* align 8 %90, i8* align 8 %91, i64 32, i1 false), !dbg !3138, !dp.md.instr.id !3142
  %92 = ptrtoint i32** %label to i64
  %93 = load i32*, i32** %label, align 8, !dbg !3143, !dp.md.instr.id !3144
  %94 = ptrtoint i32* %threadCount to i64
  %95 = load i32, i32* %threadCount, align 4, !dbg !3145, !dp.md.instr.id !3146
  call void @__dp_call(i32 32864), !dbg !3147
  %call28 = call double @_ZL12CPUcc_vertex8ECLgraphPii(%struct.ECLgraph* byval(%struct.ECLgraph) align 8 %agg.tmp, i32* %93, i32 %95), !dbg !3147, !dp.md.instr.id !3148
  %96 = ptrtoint i32* %i to i64
  %97 = load i32, i32* %i, align 4, !dbg !3149, !dp.md.instr.id !3150
  %idxprom = sext i32 %97 to i64, !dbg !3151, !dp.md.instr.id !3152
  %arrayidx29 = getelementptr inbounds [3 x double], [3 x double]* %runtimes, i64 0, i64 %idxprom, !dbg !3151, !dp.md.instr.id !3153
  %98 = ptrtoint double* %arrayidx29 to i64
  call void @__dp_write(i32 556, i64 %98, i8* getelementptr inbounds ([19 x i8], [19 x i8]* @.str.112, i32 0, i32 0))
  store double %call28, double* %arrayidx29, align 8, !dbg !3154, !dp.md.instr.id !3155
  call void @__dp_report_bb(i32 40)
  %99 = load i32, i32* %__dp_bb145, align 4
  call void @__dp_report_bb_pair(i32 %99, i32 66)
  %100 = load i32, i32* %__dp_bb146, align 4
  call void @__dp_report_bb_pair(i32 %100, i32 69)
  br label %for.inc, !dbg !3156, !dp.md.instr.id !3157

for.inc:                                          ; preds = %for.body
  %101 = ptrtoint i32* %i to i64
  %102 = load i32, i32* %i, align 4, !dbg !3158, !dp.md.instr.id !3159
  %inc = add nsw i32 %102, 1, !dbg !3158, !dp.md.instr.id !3160
  %103 = ptrtoint i32* %i to i64
  store i32 %inc, i32* %i, align 4, !dbg !3158, !dp.md.instr.id !3161
  call void @__dp_report_bb(i32 39)
  %104 = load i32, i32* %__dp_bb146, align 4
  call void @__dp_report_bb_pair(i32 %104, i32 68)
  store i32 1, i32* %__dp_bb146, align 4
  br label %for.cond, !dbg !3162, !llvm.loop !3163, !dp.md.instr.id !3165

for.end:                                          ; preds = %for.cond
  call void @__dp_loop_exit(i32 32866, i32 0), !dp.md.instr.id !3166
  call void @llvm.dbg.declare(metadata double* %med, metadata !3167, metadata !DIExpression()), !dbg !3169, !dp.md.instr.id !3170
  %arraydecay = getelementptr inbounds [3 x double], [3 x double]* %runtimes, i64 0, i64 0, !dbg !3171, !dp.md.instr.id !3172
  call void @__dp_call(i32 32866), !dbg !3173
  %call30 = call double @_ZL6medianPdi(double* %arraydecay, i32 3), !dbg !3173, !dp.md.instr.id !3174
  %105 = ptrtoint double* %med to i64
  store double %call30, double* %med, align 8, !dbg !3169, !dp.md.instr.id !3175
  %106 = ptrtoint double* %med to i64
  %107 = load double, double* %med, align 8, !dbg !3176, !dp.md.instr.id !3177
  call void @__dp_call(i32 32867), !dbg !3178
  %call31 = call i32 (i8*, ...) @printf(i8* getelementptr inbounds ([20 x i8], [20 x i8]* @.str.24, i64 0, i64 0), double %107), !dbg !3178, !dp.md.instr.id !3179
  %edges32 = getelementptr inbounds %struct.ECLgraph, %struct.ECLgraph* %g, i32 0, i32 1, !dbg !3180, !dp.md.instr.id !3181
  %108 = ptrtoint i32* %edges32 to i64
  call void @__dp_read(i32 570, i64 %108, i8* getelementptr inbounds ([12 x i8], [12 x i8]* @.str.41, i32 0, i32 0))
  %109 = load i32, i32* %edges32, align 4, !dbg !3180, !dp.md.instr.id !3182
  %conv33 = sitofp i32 %109 to double, !dbg !3183, !dp.md.instr.id !3184
  %mul = fmul double 1.000000e-09, %conv33, !dbg !3185, !dp.md.instr.id !3186
  %110 = ptrtoint double* %med to i64
  %111 = load double, double* %med, align 8, !dbg !3187, !dp.md.instr.id !3188
  %div = fdiv double %mul, %111, !dbg !3189, !dp.md.instr.id !3190
  call void @__dp_call(i32 32868), !dbg !3191
  %call34 = call i32 (i8*, ...) @printf(i8* getelementptr inbounds ([34 x i8], [34 x i8]* @.str.25, i64 0, i64 0), double %div), !dbg !3191, !dp.md.instr.id !3192
  call void @llvm.dbg.declare(metadata %"class.std::set"* %s1, metadata !3193, metadata !DIExpression()), !dbg !3394, !dp.md.instr.id !3395
  call void @__dp_call(i32 32871), !dbg !3394
  call void @_ZNSt3setIiSt4lessIiESaIiEEC2Ev(%"class.std::set"* %s1) #12, !dbg !3394, !dp.md.instr.id !3396
  call void @llvm.dbg.declare(metadata i32* %v, metadata !3397, metadata !DIExpression()), !dbg !3399, !dp.md.instr.id !3400
  %112 = ptrtoint i32* %v to i64
  store i32 0, i32* %v, align 4, !dbg !3399, !dp.md.instr.id !3401
  call void @__dp_report_bb(i32 37)
  br label %for.cond35, !dbg !3402, !dp.md.instr.id !3403

for.cond35:                                       ; preds = %for.inc42, %for.end
  call void @__dp_loop_entry(i32 32872, i32 1), !dp.md.instr.id !3404
  %113 = ptrtoint i32* %v to i64
  %114 = load i32, i32* %v, align 4, !dbg !3405, !dp.md.instr.id !3407
  %nodes36 = getelementptr inbounds %struct.ECLgraph, %struct.ECLgraph* %g, i32 0, i32 0, !dbg !3408, !dp.md.instr.id !3409
  %115 = ptrtoint i32* %nodes36 to i64
  call void @__dp_read(i32 584, i64 %115, i8* getelementptr inbounds ([12 x i8], [12 x i8]* @.str.41, i32 0, i32 0))
  %116 = load i32, i32* %nodes36, align 8, !dbg !3408, !dp.md.instr.id !3410
  %cmp37 = icmp slt i32 %114, %116, !dbg !3411, !dp.md.instr.id !3412
  call void @__dp_report_bb(i32 41)
  %117 = load i32, i32* %__dp_bb147, align 4
  call void @__dp_report_bb_pair(i32 %117, i32 70)
  br i1 %cmp37, label %for.body38, label %for.end44, !dbg !3413, !dp.md.instr.id !3414

for.body38:                                       ; preds = %for.cond35
  call void @__dp_loop_incr(i32 5)
  %118 = ptrtoint i32** %label to i64
  %119 = load i32*, i32** %label, align 8, !dbg !3415, !dp.md.instr.id !3417
  %120 = ptrtoint i32* %v to i64
  %121 = load i32, i32* %v, align 4, !dbg !3418, !dp.md.instr.id !3419
  %idxprom39 = sext i32 %121 to i64, !dbg !3415, !dp.md.instr.id !3420
  %arrayidx40 = getelementptr inbounds i32, i32* %119, i64 %idxprom39, !dbg !3415, !dp.md.instr.id !3421
  call void @__dp_call(i32 32873), !dbg !3422
  call void @__dp_report_bb(i32 43)
  %122 = load i32, i32* %__dp_bb147, align 4
  call void @__dp_report_bb_pair(i32 %122, i32 72)
  %call41 = invoke { %"struct.std::_Rb_tree_node_base"*, i8 } @_ZNSt3setIiSt4lessIiESaIiEE6insertERKi(%"class.std::set"* %s1, i32* nonnull align 4 dereferenceable(4) %arrayidx40)
          to label %invoke.cont unwind label %lpad, !dbg !3422, !dp.md.instr.id !3423

invoke.cont:                                      ; preds = %for.body38
  %123 = bitcast %"struct.std::pair"* %coerce to { %"struct.std::_Rb_tree_node_base"*, i8 }*, !dbg !3422, !dp.md.instr.id !3424
  %124 = getelementptr inbounds { %"struct.std::_Rb_tree_node_base"*, i8 }, { %"struct.std::_Rb_tree_node_base"*, i8 }* %123, i32 0, i32 0, !dbg !3422, !dp.md.instr.id !3425
  %125 = extractvalue { %"struct.std::_Rb_tree_node_base"*, i8 } %call41, 0, !dbg !3422, !dp.md.instr.id !3426
  %126 = ptrtoint %"struct.std::_Rb_tree_node_base"** %124 to i64
  call void @__dp_write(i32 595, i64 %126, i8* getelementptr inbounds ([2 x i8], [2 x i8]* @.str.113, i32 0, i32 0))
  store %"struct.std::_Rb_tree_node_base"* %125, %"struct.std::_Rb_tree_node_base"** %124, align 8, !dbg !3422, !dp.md.instr.id !3427
  %127 = getelementptr inbounds { %"struct.std::_Rb_tree_node_base"*, i8 }, { %"struct.std::_Rb_tree_node_base"*, i8 }* %123, i32 0, i32 1, !dbg !3422, !dp.md.instr.id !3428
  %128 = extractvalue { %"struct.std::_Rb_tree_node_base"*, i8 } %call41, 1, !dbg !3422, !dp.md.instr.id !3429
  %129 = ptrtoint i8* %127 to i64
  call void @__dp_write(i32 598, i64 %129, i8* getelementptr inbounds ([2 x i8], [2 x i8]* @.str.113, i32 0, i32 0))
  store i8 %128, i8* %127, align 8, !dbg !3422, !dp.md.instr.id !3430
  br label %for.inc42, !dbg !3431, !dp.md.instr.id !3432

for.inc42:                                        ; preds = %invoke.cont
  %130 = ptrtoint i32* %v to i64
  %131 = load i32, i32* %v, align 4, !dbg !3433, !dp.md.instr.id !3434
  %inc43 = add nsw i32 %131, 1, !dbg !3433, !dp.md.instr.id !3435
  %132 = ptrtoint i32* %v to i64
  store i32 %inc43, i32* %v, align 4, !dbg !3433, !dp.md.instr.id !3436
  call void @__dp_report_bb(i32 42)
  %133 = load i32, i32* %__dp_bb147, align 4
  call void @__dp_report_bb_pair(i32 %133, i32 71)
  store i32 1, i32* %__dp_bb147, align 4
  br label %for.cond35, !dbg !3437, !llvm.loop !3438, !dp.md.instr.id !3440

lpad:                                             ; preds = %delete.end, %if.else, %if.then90, %if.then71, %for.end44, %for.body38
  %134 = landingpad { i8*, i32 }
          cleanup, !dbg !3441, !dp.md.instr.id !3442
  %135 = extractvalue { i8*, i32 } %134, 0, !dbg !3441, !dp.md.instr.id !3443
  %136 = ptrtoint i8** %exn.slot to i64
  store i8* %135, i8** %exn.slot, align 8, !dbg !3441, !dp.md.instr.id !3444
  %137 = extractvalue { i8*, i32 } %134, 1, !dbg !3441, !dp.md.instr.id !3445
  %138 = ptrtoint i32* %ehselector.slot to i64
  store i32 %137, i32* %ehselector.slot, align 4, !dbg !3441, !dp.md.instr.id !3446
  call void @__dp_report_bb(i32 44)
  store i32 1, i32* %__dp_bb148, align 4
  br label %ehcleanup, !dbg !3441, !dp.md.instr.id !3447

for.end44:                                        ; preds = %for.cond35
  call void @__dp_loop_exit(i32 32875, i32 1), !dp.md.instr.id !3448
  call void @__dp_call(i32 32875), !dbg !3449
  %call45 = call i64 @_ZNKSt3setIiSt4lessIiESaIiEE4sizeEv(%"class.std::set"* %s1) #12, !dbg !3449, !dp.md.instr.id !3450
  call void @__dp_call(i32 32875), !dbg !3451
  %call47 = invoke i32 (i8*, ...) @printf(i8* getelementptr inbounds ([36 x i8], [36 x i8]* @.str.26, i64 0, i64 0), i64 %call45)
          to label %invoke.cont46 unwind label %lpad, !dbg !3451, !dp.md.instr.id !3452

invoke.cont46:                                    ; preds = %for.end44
  %139 = ptrtoint i32* %runveri to i64
  %140 = load i32, i32* %runveri, align 4, !dbg !3453, !dp.md.instr.id !3455
  %tobool48 = icmp ne i32 %140, 0, !dbg !3453, !dp.md.instr.id !3456
  call void @__dp_report_bb(i32 45)
  br i1 %tobool48, label %if.then49, label %if.else, !dbg !3457, !dp.md.instr.id !3458

if.then49:                                        ; preds = %invoke.cont46
  call void @llvm.dbg.declare(metadata i32* %v50, metadata !3459, metadata !DIExpression()), !dbg !3462, !dp.md.instr.id !3463
  %141 = ptrtoint i32* %v50 to i64
  store i32 0, i32* %v50, align 4, !dbg !3462, !dp.md.instr.id !3464
  call void @__dp_report_bb(i32 46)
  br label %for.cond51, !dbg !3465, !dp.md.instr.id !3466

for.cond51:                                       ; preds = %for.inc78, %if.then49
  call void @__dp_loop_entry(i32 32881, i32 2), !dp.md.instr.id !3467
  %142 = ptrtoint i32* %v50 to i64
  %143 = load i32, i32* %v50, align 4, !dbg !3468, !dp.md.instr.id !3470
  %nodes52 = getelementptr inbounds %struct.ECLgraph, %struct.ECLgraph* %g, i32 0, i32 0, !dbg !3471, !dp.md.instr.id !3472
  %144 = ptrtoint i32* %nodes52 to i64
  call void @__dp_read(i32 622, i64 %144, i8* getelementptr inbounds ([12 x i8], [12 x i8]* @.str.41, i32 0, i32 0))
  %145 = load i32, i32* %nodes52, align 8, !dbg !3471, !dp.md.instr.id !3473
  %cmp53 = icmp slt i32 %143, %145, !dbg !3474, !dp.md.instr.id !3475
  call void @__dp_report_bb(i32 49)
  %146 = load i32, i32* %__dp_bb149, align 4
  call void @__dp_report_bb_pair(i32 %146, i32 74)
  br i1 %cmp53, label %for.body54, label %for.end80, !dbg !3476, !dp.md.instr.id !3477

for.body54:                                       ; preds = %for.cond51
  call void @__dp_loop_incr(i32 3)
  call void @llvm.dbg.declare(metadata i32* %i55, metadata !3478, metadata !DIExpression()), !dbg !3481, !dp.md.instr.id !3482
  %nindex = getelementptr inbounds %struct.ECLgraph, %struct.ECLgraph* %g, i32 0, i32 2, !dbg !3483, !dp.md.instr.id !3484
  %147 = ptrtoint i32** %nindex to i64
  call void @__dp_read(i32 627, i64 %147, i8* getelementptr inbounds ([12 x i8], [12 x i8]* @.str.41, i32 0, i32 0))
  %148 = load i32*, i32** %nindex, align 8, !dbg !3483, !dp.md.instr.id !3485
  %149 = ptrtoint i32* %v50 to i64
  %150 = load i32, i32* %v50, align 4, !dbg !3486, !dp.md.instr.id !3487
  %idxprom56 = sext i32 %150 to i64, !dbg !3488, !dp.md.instr.id !3489
  %arrayidx57 = getelementptr inbounds i32, i32* %148, i64 %idxprom56, !dbg !3488, !dp.md.instr.id !3490
  %151 = ptrtoint i32* %arrayidx57 to i64
  call void @__dp_read(i32 631, i64 %151, i8* getelementptr inbounds ([22 x i8], [22 x i8]* @.str.114, i32 0, i32 0))
  %152 = load i32, i32* %arrayidx57, align 4, !dbg !3488, !dp.md.instr.id !3491
  %153 = ptrtoint i32* %i55 to i64
  store i32 %152, i32* %i55, align 4, !dbg !3481, !dp.md.instr.id !3492
  call void @__dp_report_bb(i32 51)
  %154 = load i32, i32* %__dp_bb149, align 4
  call void @__dp_report_bb_pair(i32 %154, i32 76)
  %155 = load i32, i32* %__dp_bb150, align 4
  call void @__dp_report_bb_pair(i32 %155, i32 79)
  br label %for.cond58, !dbg !3493, !dp.md.instr.id !3494

for.cond58:                                       ; preds = %for.inc75, %for.body54
  call void @__dp_loop_entry(i32 32882, i32 3), !dp.md.instr.id !3495
  %156 = ptrtoint i32* %i55 to i64
  %157 = load i32, i32* %i55, align 4, !dbg !3496, !dp.md.instr.id !3498
  %nindex59 = getelementptr inbounds %struct.ECLgraph, %struct.ECLgraph* %g, i32 0, i32 2, !dbg !3499, !dp.md.instr.id !3500
  %158 = ptrtoint i32** %nindex59 to i64
  call void @__dp_read(i32 637, i64 %158, i8* getelementptr inbounds ([12 x i8], [12 x i8]* @.str.41, i32 0, i32 0))
  %159 = load i32*, i32** %nindex59, align 8, !dbg !3499, !dp.md.instr.id !3501
  %160 = ptrtoint i32* %v50 to i64
  %161 = load i32, i32* %v50, align 4, !dbg !3502, !dp.md.instr.id !3503
  %add = add nsw i32 %161, 1, !dbg !3504, !dp.md.instr.id !3505
  %idxprom60 = sext i32 %add to i64, !dbg !3506, !dp.md.instr.id !3507
  %arrayidx61 = getelementptr inbounds i32, i32* %159, i64 %idxprom60, !dbg !3506, !dp.md.instr.id !3508
  %162 = ptrtoint i32* %arrayidx61 to i64
  call void @__dp_read(i32 642, i64 %162, i8* getelementptr inbounds ([22 x i8], [22 x i8]* @.str.114, i32 0, i32 0))
  %163 = load i32, i32* %arrayidx61, align 4, !dbg !3506, !dp.md.instr.id !3509
  %cmp62 = icmp slt i32 %157, %163, !dbg !3510, !dp.md.instr.id !3511
  call void @__dp_report_bb(i32 53)
  %164 = load i32, i32* %__dp_bb149, align 4
  call void @__dp_report_bb_pair(i32 %164, i32 77)
  store i32 1, i32* %__dp_bb150, align 4
  %165 = load i32, i32* %__dp_bb151, align 4
  call void @__dp_report_bb_pair(i32 %165, i32 80)
  br i1 %cmp62, label %for.body63, label %for.end77, !dbg !3512, !dp.md.instr.id !3513

for.body63:                                       ; preds = %for.cond58
  call void @__dp_loop_incr(i32 4)
  %166 = ptrtoint i32** %label to i64
  %167 = load i32*, i32** %label, align 8, !dbg !3514, !dp.md.instr.id !3517
  %nlist = getelementptr inbounds %struct.ECLgraph, %struct.ECLgraph* %g, i32 0, i32 3, !dbg !3518, !dp.md.instr.id !3519
  %168 = ptrtoint i32** %nlist to i64
  call void @__dp_read(i32 647, i64 %168, i8* getelementptr inbounds ([12 x i8], [12 x i8]* @.str.41, i32 0, i32 0))
  %169 = load i32*, i32** %nlist, align 8, !dbg !3518, !dp.md.instr.id !3520
  %170 = ptrtoint i32* %i55 to i64
  %171 = load i32, i32* %i55, align 4, !dbg !3521, !dp.md.instr.id !3522
  %idxprom64 = sext i32 %171 to i64, !dbg !3523, !dp.md.instr.id !3524
  %arrayidx65 = getelementptr inbounds i32, i32* %169, i64 %idxprom64, !dbg !3523, !dp.md.instr.id !3525
  %172 = ptrtoint i32* %arrayidx65 to i64
  call void @__dp_read(i32 651, i64 %172, i8* getelementptr inbounds ([22 x i8], [22 x i8]* @.str.114, i32 0, i32 0))
  %173 = load i32, i32* %arrayidx65, align 4, !dbg !3523, !dp.md.instr.id !3526
  %idxprom66 = sext i32 %173 to i64, !dbg !3514, !dp.md.instr.id !3527
  %arrayidx67 = getelementptr inbounds i32, i32* %167, i64 %idxprom66, !dbg !3514, !dp.md.instr.id !3528
  %174 = ptrtoint i32* %arrayidx67 to i64
  call void @__dp_read(i32 654, i64 %174, i8* getelementptr inbounds ([16 x i8], [16 x i8]* @.str.115, i32 0, i32 0))
  %175 = load i32, i32* %arrayidx67, align 4, !dbg !3514, !dp.md.instr.id !3529
  %176 = ptrtoint i32** %label to i64
  %177 = load i32*, i32** %label, align 8, !dbg !3530, !dp.md.instr.id !3531
  %178 = ptrtoint i32* %v50 to i64
  %179 = load i32, i32* %v50, align 4, !dbg !3532, !dp.md.instr.id !3533
  %idxprom68 = sext i32 %179 to i64, !dbg !3530, !dp.md.instr.id !3534
  %arrayidx69 = getelementptr inbounds i32, i32* %177, i64 %idxprom68, !dbg !3530, !dp.md.instr.id !3535
  %180 = ptrtoint i32* %arrayidx69 to i64
  call void @__dp_read(i32 659, i64 %180, i8* getelementptr inbounds ([16 x i8], [16 x i8]* @.str.115, i32 0, i32 0))
  %181 = load i32, i32* %arrayidx69, align 4, !dbg !3530, !dp.md.instr.id !3536
  %cmp70 = icmp ne i32 %175, %181, !dbg !3537, !dp.md.instr.id !3538
  call void @__dp_report_bb(i32 55)
  %182 = load i32, i32* %__dp_bb149, align 4
  call void @__dp_report_bb_pair(i32 %182, i32 78)
  %183 = load i32, i32* %__dp_bb151, align 4
  call void @__dp_report_bb_pair(i32 %183, i32 82)
  br i1 %cmp70, label %if.then71, label %if.end74, !dbg !3539, !dp.md.instr.id !3540

if.then71:                                        ; preds = %for.body63
  %184 = ptrtoint %struct._IO_FILE** @stderr to i64
  call void @__dp_read(i32 662, i64 %184, i8* getelementptr inbounds ([7 x i8], [7 x i8]* @.str.38, i32 0, i32 0))
  %185 = load %struct._IO_FILE*, %struct._IO_FILE** @stderr, align 8, !dbg !3541, !dp.md.instr.id !3543
  call void @__dp_call(i32 32883), !dbg !3544
  %call73 = invoke i32 (%struct._IO_FILE*, i8*, ...) @fprintf(%struct._IO_FILE* %185, i8* getelementptr inbounds ([54 x i8], [54 x i8]* @.str.27, i64 0, i64 0))
          to label %invoke.cont72 unwind label %lpad, !dbg !3544, !dp.md.instr.id !3545

invoke.cont72:                                    ; preds = %if.then71
  call void @__dp_finalize(i32 32883), !dbg !3546
  call void @exit(i32 -1) #14, !dbg !3546, !dp.md.instr.id !3547
  unreachable, !dbg !3546, !dp.md.instr.id !3548

if.end74:                                         ; preds = %for.body63
  br label %for.inc75, !dbg !3549, !dp.md.instr.id !3550

for.inc75:                                        ; preds = %if.end74
  %186 = ptrtoint i32* %i55 to i64
  %187 = load i32, i32* %i55, align 4, !dbg !3551, !dp.md.instr.id !3552
  %inc76 = add nsw i32 %187, 1, !dbg !3551, !dp.md.instr.id !3553
  %188 = ptrtoint i32* %i55 to i64
  store i32 %inc76, i32* %i55, align 4, !dbg !3551, !dp.md.instr.id !3554
  call void @__dp_report_bb(i32 54)
  %189 = load i32, i32* %__dp_bb151, align 4
  call void @__dp_report_bb_pair(i32 %189, i32 81)
  store i32 1, i32* %__dp_bb151, align 4
  br label %for.cond58, !dbg !3555, !llvm.loop !3556, !dp.md.instr.id !3558

for.end77:                                        ; preds = %for.cond58
  call void @__dp_loop_exit(i32 32885, i32 3), !dp.md.instr.id !3559
  br label %for.inc78, !dbg !3560, !dp.md.instr.id !3561

for.inc78:                                        ; preds = %for.end77
  %190 = ptrtoint i32* %v50 to i64
  %191 = load i32, i32* %v50, align 4, !dbg !3562, !dp.md.instr.id !3563
  %inc79 = add nsw i32 %191, 1, !dbg !3562, !dp.md.instr.id !3564
  %192 = ptrtoint i32* %v50 to i64
  store i32 %inc79, i32* %v50, align 4, !dbg !3562, !dp.md.instr.id !3565
  call void @__dp_report_bb(i32 50)
  %193 = load i32, i32* %__dp_bb149, align 4
  call void @__dp_report_bb_pair(i32 %193, i32 75)
  store i32 1, i32* %__dp_bb149, align 4
  br label %for.cond51, !dbg !3566, !llvm.loop !3567, !dp.md.instr.id !3569

for.end80:                                        ; preds = %for.cond51
  call void @__dp_loop_exit(i32 32887, i32 2), !dp.md.instr.id !3570
  call void @llvm.dbg.declare(metadata i32* %v81, metadata !3571, metadata !DIExpression()), !dbg !3573, !dp.md.instr.id !3574
  %194 = ptrtoint i32* %v81 to i64
  store i32 0, i32* %v81, align 4, !dbg !3573, !dp.md.instr.id !3575
  call void @__dp_report_bb(i32 48)
  br label %for.cond82, !dbg !3576, !dp.md.instr.id !3577

for.cond82:                                       ; preds = %for.inc94, %for.end80
  call void @__dp_loop_entry(i32 32887, i32 4), !dp.md.instr.id !3578
  %195 = ptrtoint i32* %v81 to i64
  %196 = load i32, i32* %v81, align 4, !dbg !3579, !dp.md.instr.id !3581
  %nodes83 = getelementptr inbounds %struct.ECLgraph, %struct.ECLgraph* %g, i32 0, i32 0, !dbg !3582, !dp.md.instr.id !3583
  %197 = ptrtoint i32* %nodes83 to i64
  call void @__dp_read(i32 684, i64 %197, i8* getelementptr inbounds ([12 x i8], [12 x i8]* @.str.41, i32 0, i32 0))
  %198 = load i32, i32* %nodes83, align 8, !dbg !3582, !dp.md.instr.id !3584
  %cmp84 = icmp slt i32 %196, %198, !dbg !3585, !dp.md.instr.id !3586
  call void @__dp_report_bb(i32 57)
  %199 = load i32, i32* %__dp_bb152, align 4
  call void @__dp_report_bb_pair(i32 %199, i32 83)
  br i1 %cmp84, label %for.body85, label %for.end96, !dbg !3587, !dp.md.instr.id !3588

for.body85:                                       ; preds = %for.cond82
  call void @__dp_loop_incr(i32 2)
  %200 = ptrtoint i32** %label to i64
  %201 = load i32*, i32** %label, align 8, !dbg !3589, !dp.md.instr.id !3592
  %202 = ptrtoint i32* %v81 to i64
  %203 = load i32, i32* %v81, align 4, !dbg !3593, !dp.md.instr.id !3594
  %idxprom86 = sext i32 %203 to i64, !dbg !3589, !dp.md.instr.id !3595
  %arrayidx87 = getelementptr inbounds i32, i32* %201, i64 %idxprom86, !dbg !3589, !dp.md.instr.id !3596
  %204 = ptrtoint i32* %arrayidx87 to i64
  call void @__dp_read(i32 691, i64 %204, i8* getelementptr inbounds ([16 x i8], [16 x i8]* @.str.115, i32 0, i32 0))
  %205 = load i32, i32* %arrayidx87, align 4, !dbg !3589, !dp.md.instr.id !3597
  %nodes88 = getelementptr inbounds %struct.ECLgraph, %struct.ECLgraph* %g, i32 0, i32 0, !dbg !3598, !dp.md.instr.id !3599
  %206 = ptrtoint i32* %nodes88 to i64
  call void @__dp_read(i32 693, i64 %206, i8* getelementptr inbounds ([12 x i8], [12 x i8]* @.str.41, i32 0, i32 0))
  %207 = load i32, i32* %nodes88, align 8, !dbg !3598, !dp.md.instr.id !3600
  %cmp89 = icmp sge i32 %205, %207, !dbg !3601, !dp.md.instr.id !3602
  call void @__dp_report_bb(i32 59)
  %208 = load i32, i32* %__dp_bb152, align 4
  call void @__dp_report_bb_pair(i32 %208, i32 85)
  br i1 %cmp89, label %if.then90, label %if.end93, !dbg !3603, !dp.md.instr.id !3604

if.then90:                                        ; preds = %for.body85
  %209 = ptrtoint %struct._IO_FILE** @stderr to i64
  call void @__dp_read(i32 696, i64 %209, i8* getelementptr inbounds ([7 x i8], [7 x i8]* @.str.38, i32 0, i32 0))
  %210 = load %struct._IO_FILE*, %struct._IO_FILE** @stderr, align 8, !dbg !3605, !dp.md.instr.id !3607
  call void @__dp_call(i32 32888), !dbg !3608
  %call92 = invoke i32 (%struct._IO_FILE*, i8*, ...) @fprintf(%struct._IO_FILE* %210, i8* getelementptr inbounds ([31 x i8], [31 x i8]* @.str.28, i64 0, i64 0))
          to label %invoke.cont91 unwind label %lpad, !dbg !3608, !dp.md.instr.id !3609

invoke.cont91:                                    ; preds = %if.then90
  call void @__dp_finalize(i32 32888), !dbg !3610
  call void @exit(i32 -1) #14, !dbg !3610, !dp.md.instr.id !3611
  unreachable, !dbg !3610, !dp.md.instr.id !3612

if.end93:                                         ; preds = %for.body85
  br label %for.inc94, !dbg !3613, !dp.md.instr.id !3614

for.inc94:                                        ; preds = %if.end93
  %211 = ptrtoint i32* %v81 to i64
  %212 = load i32, i32* %v81, align 4, !dbg !3615, !dp.md.instr.id !3616
  %inc95 = add nsw i32 %212, 1, !dbg !3615, !dp.md.instr.id !3617
  %213 = ptrtoint i32* %v81 to i64
  store i32 %inc95, i32* %v81, align 4, !dbg !3615, !dp.md.instr.id !3618
  call void @__dp_report_bb(i32 58)
  %214 = load i32, i32* %__dp_bb152, align 4
  call void @__dp_report_bb_pair(i32 %214, i32 84)
  store i32 1, i32* %__dp_bb152, align 4
  br label %for.cond82, !dbg !3619, !llvm.loop !3620, !dp.md.instr.id !3622

for.end96:                                        ; preds = %for.cond82
  call void @__dp_loop_exit(i32 32891, i32 4), !dp.md.instr.id !3623
  call void @llvm.dbg.declare(metadata %"class.std::set"* %s2, metadata !3624, metadata !DIExpression()), !dbg !3625, !dp.md.instr.id !3626
  call void @__dp_call(i32 32891), !dbg !3625
  call void @_ZNSt3setIiSt4lessIiESaIiEEC2Ev(%"class.std::set"* %s2) #12, !dbg !3625, !dp.md.instr.id !3627
  call void @llvm.dbg.declare(metadata i32* %count, metadata !3628, metadata !DIExpression()), !dbg !3629, !dp.md.instr.id !3630
  %215 = ptrtoint i32* %count to i64
  store i32 0, i32* %count, align 4, !dbg !3629, !dp.md.instr.id !3631
  call void @llvm.dbg.declare(metadata i32* %v97, metadata !3632, metadata !DIExpression()), !dbg !3634, !dp.md.instr.id !3635
  %216 = ptrtoint i32* %v97 to i64
  store i32 0, i32* %v97, align 4, !dbg !3634, !dp.md.instr.id !3636
  call void @__dp_report_bb(i32 56)
  br label %for.cond98, !dbg !3637, !dp.md.instr.id !3638

for.cond98:                                       ; preds = %for.inc121, %for.end96
  call void @__dp_loop_entry(i32 32893, i32 5), !dp.md.instr.id !3639
  %217 = ptrtoint i32* %v97 to i64
  %218 = load i32, i32* %v97, align 4, !dbg !3640, !dp.md.instr.id !3642
  %nodes99 = getelementptr inbounds %struct.ECLgraph, %struct.ECLgraph* %g, i32 0, i32 0, !dbg !3643, !dp.md.instr.id !3644
  %219 = ptrtoint i32* %nodes99 to i64
  call void @__dp_read(i32 716, i64 %219, i8* getelementptr inbounds ([12 x i8], [12 x i8]* @.str.41, i32 0, i32 0))
  %220 = load i32, i32* %nodes99, align 8, !dbg !3643, !dp.md.instr.id !3645
  %cmp100 = icmp slt i32 %218, %220, !dbg !3646, !dp.md.instr.id !3647
  call void @__dp_report_bb(i32 27)
  %221 = load i32, i32* %__dp_bb153, align 4
  call void @__dp_report_bb_pair(i32 %221, i32 87)
  br i1 %cmp100, label %for.body101, label %for.end123, !dbg !3648, !dp.md.instr.id !3649

for.body101:                                      ; preds = %for.cond98
  call void @__dp_loop_incr(i32 1)
  %222 = ptrtoint i32** %label to i64
  %223 = load i32*, i32** %label, align 8, !dbg !3650, !dp.md.instr.id !3653
  %224 = ptrtoint i32* %v97 to i64
  %225 = load i32, i32* %v97, align 4, !dbg !3654, !dp.md.instr.id !3655
  %idxprom102 = sext i32 %225 to i64, !dbg !3650, !dp.md.instr.id !3656
  %arrayidx103 = getelementptr inbounds i32, i32* %223, i64 %idxprom102, !dbg !3650, !dp.md.instr.id !3657
  %226 = ptrtoint i32* %arrayidx103 to i64
  call void @__dp_read(i32 723, i64 %226, i8* getelementptr inbounds ([16 x i8], [16 x i8]* @.str.115, i32 0, i32 0))
  %227 = load i32, i32* %arrayidx103, align 4, !dbg !3650, !dp.md.instr.id !3658
  %nodes104 = getelementptr inbounds %struct.ECLgraph, %struct.ECLgraph* %g, i32 0, i32 0, !dbg !3659, !dp.md.instr.id !3660
  %228 = ptrtoint i32* %nodes104 to i64
  call void @__dp_read(i32 725, i64 %228, i8* getelementptr inbounds ([12 x i8], [12 x i8]* @.str.41, i32 0, i32 0))
  %229 = load i32, i32* %nodes104, align 8, !dbg !3659, !dp.md.instr.id !3661
  %cmp105 = icmp slt i32 %227, %229, !dbg !3662, !dp.md.instr.id !3663
  call void @__dp_report_bb(i32 61)
  %230 = load i32, i32* %__dp_bb153, align 4
  call void @__dp_report_bb_pair(i32 %230, i32 89)
  br i1 %cmp105, label %if.then106, label %if.end120, !dbg !3664, !dp.md.instr.id !3665

if.then106:                                       ; preds = %for.body101
  %231 = ptrtoint i32* %count to i64
  %232 = load i32, i32* %count, align 4, !dbg !3666, !dp.md.instr.id !3668
  %inc107 = add nsw i32 %232, 1, !dbg !3666, !dp.md.instr.id !3669
  %233 = ptrtoint i32* %count to i64
  store i32 %inc107, i32* %count, align 4, !dbg !3666, !dp.md.instr.id !3670
  %234 = ptrtoint i32** %label to i64
  %235 = load i32*, i32** %label, align 8, !dbg !3671, !dp.md.instr.id !3672
  %236 = ptrtoint i32* %v97 to i64
  %237 = load i32, i32* %v97, align 4, !dbg !3673, !dp.md.instr.id !3674
  %idxprom108 = sext i32 %237 to i64, !dbg !3671, !dp.md.instr.id !3675
  %arrayidx109 = getelementptr inbounds i32, i32* %235, i64 %idxprom108, !dbg !3671, !dp.md.instr.id !3676
  call void @__dp_call(i32 32896), !dbg !3677
  call void @__dp_report_bb(i32 62)
  %238 = load i32, i32* %__dp_bb153, align 4
  call void @__dp_report_bb_pair(i32 %238, i32 90)
  %239 = load i32, i32* %__dp_bb154, align 4
  call void @__dp_report_bb_pair(i32 %239, i32 91)
  store i32 1, i32* %__dp_bb154, align 4
  %call112 = invoke { %"struct.std::_Rb_tree_node_base"*, i8 } @_ZNSt3setIiSt4lessIiESaIiEE6insertERKi(%"class.std::set"* %s2, i32* nonnull align 4 dereferenceable(4) %arrayidx109)
          to label %invoke.cont111 unwind label %lpad110, !dbg !3677, !dp.md.instr.id !3678

invoke.cont111:                                   ; preds = %if.then106
  %240 = bitcast %"struct.std::pair"* %coerce113 to { %"struct.std::_Rb_tree_node_base"*, i8 }*, !dbg !3677, !dp.md.instr.id !3679
  %241 = getelementptr inbounds { %"struct.std::_Rb_tree_node_base"*, i8 }, { %"struct.std::_Rb_tree_node_base"*, i8 }* %240, i32 0, i32 0, !dbg !3677, !dp.md.instr.id !3680
  %242 = extractvalue { %"struct.std::_Rb_tree_node_base"*, i8 } %call112, 0, !dbg !3677, !dp.md.instr.id !3681
  %243 = ptrtoint %"struct.std::_Rb_tree_node_base"** %241 to i64
  call void @__dp_write(i32 739, i64 %243, i8* getelementptr inbounds ([2 x i8], [2 x i8]* @.str.113, i32 0, i32 0))
  store %"struct.std::_Rb_tree_node_base"* %242, %"struct.std::_Rb_tree_node_base"** %241, align 8, !dbg !3677, !dp.md.instr.id !3682
  %244 = getelementptr inbounds { %"struct.std::_Rb_tree_node_base"*, i8 }, { %"struct.std::_Rb_tree_node_base"*, i8 }* %240, i32 0, i32 1, !dbg !3677, !dp.md.instr.id !3683
  %245 = extractvalue { %"struct.std::_Rb_tree_node_base"*, i8 } %call112, 1, !dbg !3677, !dp.md.instr.id !3684
  %246 = ptrtoint i8* %244 to i64
  call void @__dp_write(i32 742, i64 %246, i8* getelementptr inbounds ([2 x i8], [2 x i8]* @.str.113, i32 0, i32 0))
  store i8 %245, i8* %244, align 8, !dbg !3677, !dp.md.instr.id !3685
  %247 = ptrtoint i32* %v97 to i64
  %248 = load i32, i32* %v97, align 4, !dbg !3686, !dp.md.instr.id !3687
  %249 = ptrtoint i32** %label to i64
  %250 = load i32*, i32** %label, align 8, !dbg !3688, !dp.md.instr.id !3689
  %251 = ptrtoint i32* %v97 to i64
  %252 = load i32, i32* %v97, align 4, !dbg !3690, !dp.md.instr.id !3691
  %idxprom114 = sext i32 %252 to i64, !dbg !3688, !dp.md.instr.id !3692
  %arrayidx115 = getelementptr inbounds i32, i32* %250, i64 %idxprom114, !dbg !3688, !dp.md.instr.id !3693
  %253 = ptrtoint i32* %arrayidx115 to i64
  call void @__dp_read(i32 748, i64 %253, i8* getelementptr inbounds ([16 x i8], [16 x i8]* @.str.115, i32 0, i32 0))
  %254 = load i32, i32* %arrayidx115, align 4, !dbg !3688, !dp.md.instr.id !3694
  %nindex116 = getelementptr inbounds %struct.ECLgraph, %struct.ECLgraph* %g, i32 0, i32 2, !dbg !3695, !dp.md.instr.id !3696
  %255 = ptrtoint i32** %nindex116 to i64
  call void @__dp_read(i32 750, i64 %255, i8* getelementptr inbounds ([12 x i8], [12 x i8]* @.str.41, i32 0, i32 0))
  %256 = load i32*, i32** %nindex116, align 8, !dbg !3695, !dp.md.instr.id !3697
  %nlist117 = getelementptr inbounds %struct.ECLgraph, %struct.ECLgraph* %g, i32 0, i32 3, !dbg !3698, !dp.md.instr.id !3699
  %257 = ptrtoint i32** %nlist117 to i64
  call void @__dp_read(i32 752, i64 %257, i8* getelementptr inbounds ([12 x i8], [12 x i8]* @.str.41, i32 0, i32 0))
  %258 = load i32*, i32** %nlist117, align 8, !dbg !3698, !dp.md.instr.id !3700
  %259 = ptrtoint i32** %label to i64
  %260 = load i32*, i32** %label, align 8, !dbg !3701, !dp.md.instr.id !3702
  %nodes118 = getelementptr inbounds %struct.ECLgraph, %struct.ECLgraph* %g, i32 0, i32 0, !dbg !3703, !dp.md.instr.id !3704
  %261 = ptrtoint i32* %nodes118 to i64
  call void @__dp_read(i32 755, i64 %261, i8* getelementptr inbounds ([12 x i8], [12 x i8]* @.str.41, i32 0, i32 0))
  %262 = load i32, i32* %nodes118, align 8, !dbg !3703, !dp.md.instr.id !3705
  call void @__dp_call(i32 32897), !dbg !3706
  call void @__dp_report_bb(i32 26)
  %263 = load i32, i32* %__dp_bb153, align 4
  call void @__dp_report_bb_pair(i32 %263, i32 86)
  invoke void @_ZL6verifyiiPKiS0_Pii(i32 %248, i32 %254, i32* %256, i32* %258, i32* %260, i32 %262)
          to label %invoke.cont119 unwind label %lpad110, !dbg !3706, !dp.md.instr.id !3707

invoke.cont119:                                   ; preds = %invoke.cont111
  br label %if.end120, !dbg !3708, !dp.md.instr.id !3709

lpad110:                                          ; preds = %if.end137, %if.then134, %if.then127, %invoke.cont111, %if.then106
  %264 = landingpad { i8*, i32 }
          cleanup, !dbg !3710, !dp.md.instr.id !3711
  %265 = extractvalue { i8*, i32 } %264, 0, !dbg !3710, !dp.md.instr.id !3712
  %266 = ptrtoint i8** %exn.slot to i64
  store i8* %265, i8** %exn.slot, align 8, !dbg !3710, !dp.md.instr.id !3713
  %267 = extractvalue { i8*, i32 } %264, 1, !dbg !3710, !dp.md.instr.id !3714
  %268 = ptrtoint i32* %ehselector.slot to i64
  store i32 %267, i32* %ehselector.slot, align 4, !dbg !3710, !dp.md.instr.id !3715
  call void @__dp_call(i32 32904), !dbg !3716
  call void @_ZNSt3setIiSt4lessIiESaIiEED2Ev(%"class.std::set"* %s2) #12, !dbg !3716, !dp.md.instr.id !3717
  call void @__dp_report_bb(i32 25)
  store i32 1, i32* %__dp_bb, align 4
  br label %ehcleanup, !dbg !3716, !dp.md.instr.id !3718

if.end120:                                        ; preds = %invoke.cont119, %for.body101
  br label %for.inc121, !dbg !3719, !dp.md.instr.id !3720

for.inc121:                                       ; preds = %if.end120
  %269 = ptrtoint i32* %v97 to i64
  %270 = load i32, i32* %v97, align 4, !dbg !3721, !dp.md.instr.id !3722
  %inc122 = add nsw i32 %270, 1, !dbg !3721, !dp.md.instr.id !3723
  %271 = ptrtoint i32* %v97 to i64
  store i32 %inc122, i32* %v97, align 4, !dbg !3721, !dp.md.instr.id !3724
  call void @__dp_report_bb(i32 60)
  %272 = load i32, i32* %__dp_bb153, align 4
  call void @__dp_report_bb_pair(i32 %272, i32 88)
  store i32 1, i32* %__dp_bb153, align 4
  br label %for.cond98, !dbg !3725, !llvm.loop !3726, !dp.md.instr.id !3728

for.end123:                                       ; preds = %for.cond98
  call void @__dp_loop_exit(i32 32900, i32 5), !dp.md.instr.id !3729
  call void @__dp_call(i32 32900), !dbg !3730
  %call124 = call i64 @_ZNKSt3setIiSt4lessIiESaIiEE4sizeEv(%"class.std::set"* %s1) #12, !dbg !3730, !dp.md.instr.id !3732
  call void @__dp_call(i32 32900), !dbg !3733
  %call125 = call i64 @_ZNKSt3setIiSt4lessIiESaIiEE4sizeEv(%"class.std::set"* %s2) #12, !dbg !3733, !dp.md.instr.id !3734
  %cmp126 = icmp ne i64 %call124, %call125, !dbg !3735, !dp.md.instr.id !3736
  br i1 %cmp126, label %if.then127, label %if.end130, !dbg !3737, !dp.md.instr.id !3738

if.then127:                                       ; preds = %for.end123
  %273 = ptrtoint %struct._IO_FILE** @stderr to i64
  call void @__dp_read(i32 775, i64 %273, i8* getelementptr inbounds ([7 x i8], [7 x i8]* @.str.38, i32 0, i32 0))
  %274 = load %struct._IO_FILE*, %struct._IO_FILE** @stderr, align 8, !dbg !3739, !dp.md.instr.id !3741
  call void @__dp_call(i32 32900), !dbg !3742
  %call129 = invoke i32 (%struct._IO_FILE*, i8*, ...) @fprintf(%struct._IO_FILE* %274, i8* getelementptr inbounds ([43 x i8], [43 x i8]* @.str.29, i64 0, i64 0))
          to label %invoke.cont128 unwind label %lpad110, !dbg !3742, !dp.md.instr.id !3743

invoke.cont128:                                   ; preds = %if.then127
  call void @__dp_finalize(i32 32900), !dbg !3744
  call void @exit(i32 -1) #14, !dbg !3744, !dp.md.instr.id !3745
  unreachable, !dbg !3744, !dp.md.instr.id !3746

if.end130:                                        ; preds = %for.end123
  call void @__dp_call(i32 32901), !dbg !3747
  %call131 = call i64 @_ZNKSt3setIiSt4lessIiESaIiEE4sizeEv(%"class.std::set"* %s1) #12, !dbg !3747, !dp.md.instr.id !3749
  %275 = ptrtoint i32* %count to i64
  %276 = load i32, i32* %count, align 4, !dbg !3750, !dp.md.instr.id !3751
  %conv132 = sext i32 %276 to i64, !dbg !3750, !dp.md.instr.id !3752
  %cmp133 = icmp ne i64 %call131, %conv132, !dbg !3753, !dp.md.instr.id !3754
  call void @__dp_report_bb(i32 63)
  %277 = load i32, i32* %__dp_bb154, align 4
  call void @__dp_report_bb_pair(i32 %277, i32 92)
  br i1 %cmp133, label %if.then134, label %if.end137, !dbg !3755, !dp.md.instr.id !3756

if.then134:                                       ; preds = %if.end130
  %278 = ptrtoint %struct._IO_FILE** @stderr to i64
  call void @__dp_read(i32 784, i64 %278, i8* getelementptr inbounds ([7 x i8], [7 x i8]* @.str.38, i32 0, i32 0))
  %279 = load %struct._IO_FILE*, %struct._IO_FILE** @stderr, align 8, !dbg !3757, !dp.md.instr.id !3759
  call void @__dp_call(i32 32901), !dbg !3760
  %call136 = invoke i32 (%struct._IO_FILE*, i8*, ...) @fprintf(%struct._IO_FILE* %279, i8* getelementptr inbounds ([38 x i8], [38 x i8]* @.str.30, i64 0, i64 0))
          to label %invoke.cont135 unwind label %lpad110, !dbg !3760, !dp.md.instr.id !3761

invoke.cont135:                                   ; preds = %if.then134
  call void @__dp_finalize(i32 32901), !dbg !3762
  call void @exit(i32 -1) #14, !dbg !3762, !dp.md.instr.id !3763
  unreachable, !dbg !3762, !dp.md.instr.id !3764

if.end137:                                        ; preds = %if.end130
  call void @__dp_call(i32 32903), !dbg !3765
  %call139 = invoke i32 (i8*, ...) @printf(i8* getelementptr inbounds ([22 x i8], [22 x i8]* @.str.31, i64 0, i64 0))
          to label %invoke.cont138 unwind label %lpad110, !dbg !3765, !dp.md.instr.id !3766

invoke.cont138:                                   ; preds = %if.end137
  call void @__dp_call(i32 32904), !dbg !3716
  call void @_ZNSt3setIiSt4lessIiESaIiEED2Ev(%"class.std::set"* %s2) #12, !dbg !3716, !dp.md.instr.id !3767
  br label %if.end142, !dbg !3768, !dp.md.instr.id !3769

if.else:                                          ; preds = %invoke.cont46
  call void @__dp_call(i32 32905), !dbg !3770
  %call141 = invoke i32 (i8*, ...) @printf(i8* getelementptr inbounds ([24 x i8], [24 x i8]* @.str.32, i64 0, i64 0))
          to label %invoke.cont140 unwind label %lpad, !dbg !3770, !dp.md.instr.id !3772

invoke.cont140:                                   ; preds = %if.else
  br label %if.end142, !dp.md.instr.id !3773

if.end142:                                        ; preds = %invoke.cont140, %invoke.cont138
  %280 = ptrtoint i32** %label to i64
  %281 = load i32*, i32** %label, align 8, !dbg !3774, !dp.md.instr.id !3775
  %isnull = icmp eq i32* %281, null, !dbg !3776, !dp.md.instr.id !3777
  call void @__dp_report_bb(i32 47)
  br i1 %isnull, label %delete.end, label %delete.notnull, !dbg !3776, !dp.md.instr.id !3778

delete.notnull:                                   ; preds = %if.end142
  %282 = bitcast i32* %281 to i8*, !dbg !3776, !dp.md.instr.id !3779
  call void @__dp_call(i32 32909), !dbg !3776
  call void @_ZdaPv(i8* %282) #17, !dbg !3776, !dp.md.instr.id !3780
  br label %delete.end, !dbg !3776, !dp.md.instr.id !3781

delete.end:                                       ; preds = %delete.notnull, %if.end142
  call void @__dp_call(i32 32910), !dbg !3782
  invoke void @_Z12freeECLgraphR8ECLgraph(%struct.ECLgraph* nonnull align 8 dereferenceable(32) %g)
          to label %invoke.cont143 unwind label %lpad, !dbg !3782, !dp.md.instr.id !3783

invoke.cont143:                                   ; preds = %delete.end
  %283 = ptrtoint i32* %retval to i64
  store i32 0, i32* %retval, align 4, !dbg !3784, !dp.md.instr.id !3785
  call void @__dp_call(i32 32912), !dbg !3786
  call void @_ZNSt3setIiSt4lessIiESaIiEED2Ev(%"class.std::set"* %s1) #12, !dbg !3786, !dp.md.instr.id !3787
  %284 = ptrtoint i32* %retval to i64
  %285 = load i32, i32* %retval, align 4, !dbg !3786, !dp.md.instr.id !3788
  call void @__dp_report_bb(i32 52)
  call void @__dp_finalize(i32 32912), !dbg !3786
  call void @__dp_loop_output(), !dbg !3786
  ret i32 %285, !dbg !3786, !dp.md.instr.id !3789

ehcleanup:                                        ; preds = %lpad110, %lpad
  call void @__dp_call(i32 32912), !dbg !3786
  call void @_ZNSt3setIiSt4lessIiESaIiEED2Ev(%"class.std::set"* %s1) #12, !dbg !3786, !dp.md.instr.id !3790
  br label %eh.resume, !dbg !3786, !dp.md.instr.id !3791

eh.resume:                                        ; preds = %ehcleanup
  %286 = ptrtoint i8** %exn.slot to i64
  %exn = load i8*, i8** %exn.slot, align 8, !dbg !3786, !dp.md.instr.id !3792
  %287 = ptrtoint i32* %ehselector.slot to i64
  %sel = load i32, i32* %ehselector.slot, align 4, !dbg !3786, !dp.md.instr.id !3793
  %lpad.val = insertvalue { i8*, i32 } undef, i8* %exn, 0, !dbg !3786, !dp.md.instr.id !3794
  %lpad.val144 = insertvalue { i8*, i32 } %lpad.val, i32 %sel, 1, !dbg !3786, !dp.md.instr.id !3795
  %288 = load i32, i32* %__dp_bb, align 4
  call void @__dp_report_bb_pair(i32 %288, i32 64)
  %289 = load i32, i32* %__dp_bb148, align 4
  call void @__dp_report_bb_pair(i32 %289, i32 73)
  resume { i8*, i32 } %lpad.val144, !dbg !3786, !dp.md.instr.id !3796
}

; Function Attrs: nounwind readonly
declare i32 @atoi(i8*) #7

; Function Attrs: nounwind
declare i32 @_ZNSt6thread20hardware_concurrencyEv() #4

; Function Attrs: nounwind readnone speculatable willreturn
declare { i64, i1 } @llvm.umul.with.overflow.i64(i64, i64) #1

; Function Attrs: nobuiltin allocsize(0)
declare nonnull i8* @_Znam(i64) #8

; Function Attrs: noinline optnone uwtable
define internal double @_ZL12CPUcc_vertex8ECLgraphPii(%struct.ECLgraph* byval(%struct.ECLgraph) align 8 %g, i32* %label, i32 %threadCount) #0 personality i8* bitcast (i32 (...)* @__gxx_personality_v0 to i8*) !dbg !3797 {
entry:
  call void @__dp_func_entry(i32 49231, i32 0), !dp.md.instr.id !3800
  %__dp_bb48 = alloca i32, align 4
  store i32 0, i32* %__dp_bb48, align 4
  %__dp_bb47 = alloca i32, align 4
  store i32 0, i32* %__dp_bb47, align 4
  %__dp_bb46 = alloca i32, align 4
  store i32 0, i32* %__dp_bb46, align 4
  %__dp_bb45 = alloca i32, align 4
  store i32 0, i32* %__dp_bb45, align 4
  %__dp_bb44 = alloca i32, align 4
  store i32 0, i32* %__dp_bb44, align 4
  %__dp_bb = alloca i32, align 4
  store i32 0, i32* %__dp_bb, align 4
  %retval = alloca double, align 8, !dp.md.instr.id !3801
  %0 = ptrtoint double* %retval to i64, !dp.md.instr.id !3802
  %label.addr = alloca i32*, align 8, !dp.md.instr.id !3803
  %1 = ptrtoint i32** %label.addr to i64, !dp.md.instr.id !3804
  %threadCount.addr = alloca i32, align 4, !dp.md.instr.id !3805
  %2 = ptrtoint i32* %threadCount.addr to i64, !dp.md.instr.id !3806
  %size = alloca i32, align 4, !dp.md.instr.id !3807
  %3 = ptrtoint i32* %size to i64, !dp.md.instr.id !3808
  %wlsize = alloca i32, align 4, !dp.md.instr.id !3809
  %4 = ptrtoint i32* %wlsize to i64, !dp.md.instr.id !3810
  call void @__dp_alloca(i32 49231, i8* getelementptr inbounds ([7 x i8], [7 x i8]* @.str.117, i32 0, i32 0), i64 %4, i64 %4, i64 4, i64 1), !dp.md.instr.id !3811
  %wl1 = alloca i32*, align 8, !dp.md.instr.id !3812
  %5 = ptrtoint i32** %wl1 to i64, !dp.md.instr.id !3813
  call void @__dp_alloca(i32 49231, i8* getelementptr inbounds ([4 x i8], [4 x i8]* @.str.118, i32 0, i32 0), i64 %5, i64 %5, i64 0, i64 1), !dp.md.instr.id !3814
  %wl2 = alloca i32*, align 8, !dp.md.instr.id !3815
  %6 = ptrtoint i32** %wl2 to i64, !dp.md.instr.id !3816
  call void @__dp_alloca(i32 49231, i8* getelementptr inbounds ([4 x i8], [4 x i8]* @.str.119, i32 0, i32 0), i64 %6, i64 %6, i64 0, i64 1), !dp.md.instr.id !3817
  %wl1size = alloca i32, align 4, !dp.md.instr.id !3818
  %7 = ptrtoint i32* %wl1size to i64, !dp.md.instr.id !3819
  %wl2size = alloca i32, align 4, !dp.md.instr.id !3820
  %8 = ptrtoint i32* %wl2size to i64, !dp.md.instr.id !3821
  call void @__dp_alloca(i32 49231, i8* getelementptr inbounds ([8 x i8], [8 x i8]* @.str.121, i32 0, i32 0), i64 %8, i64 %8, i64 4, i64 1), !dp.md.instr.id !3822
  %saved_stack = alloca i8*, align 8, !dp.md.instr.id !3823
  %9 = ptrtoint i8** %saved_stack to i64, !dp.md.instr.id !3824
  %__vla_expr0 = alloca i64, align 8, !dp.md.instr.id !3825
  %10 = ptrtoint i64* %__vla_expr0 to i64, !dp.md.instr.id !3826
  %exn.slot = alloca i8*, align 8, !dp.md.instr.id !3827
  %11 = ptrtoint i8** %exn.slot to i64, !dp.md.instr.id !3828
  %ehselector.slot = alloca i32, align 4, !dp.md.instr.id !3829
  %12 = ptrtoint i32* %ehselector.slot to i64, !dp.md.instr.id !3830
  %start = alloca %struct.timeval, align 8, !dp.md.instr.id !3831
  %13 = ptrtoint %struct.timeval* %start to i64, !dp.md.instr.id !3832
  call void @__dp_alloca(i32 49231, i8* getelementptr inbounds ([6 x i8], [6 x i8]* @.str.124, i32 0, i32 0), i64 %13, i64 %13, i64 0, i64 1), !dp.md.instr.id !3833
  %end = alloca %struct.timeval, align 8, !dp.md.instr.id !3834
  %14 = ptrtoint %struct.timeval* %end to i64, !dp.md.instr.id !3835
  call void @__dp_alloca(i32 49231, i8* getelementptr inbounds ([4 x i8], [4 x i8]* @.str.125, i32 0, i32 0), i64 %14, i64 %14, i64 0, i64 1), !dp.md.instr.id !3836
  %iter = alloca i32, align 4, !dp.md.instr.id !3837
  %15 = ptrtoint i32* %iter to i64, !dp.md.instr.id !3838
  %i = alloca i32, align 4, !dp.md.instr.id !3839
  %16 = ptrtoint i32* %i to i64, !dp.md.instr.id !3840
  %ref.tmp = alloca %"class.std::thread", align 8, !dp.md.instr.id !3841
  %17 = ptrtoint %"class.std::thread"* %ref.tmp to i64, !dp.md.instr.id !3842
  call void @__dp_alloca(i32 49231, i8* getelementptr inbounds ([8 x i8], [8 x i8]* @.str.127, i32 0, i32 0), i64 %17, i64 %17, i64 0, i64 1), !dp.md.instr.id !3843
  %ref.tmp6 = alloca %"class.std::reference_wrapper", align 8, !dp.md.instr.id !3844
  %18 = ptrtoint %"class.std::reference_wrapper"* %ref.tmp6 to i64, !dp.md.instr.id !3845
  call void @__dp_alloca(i32 49231, i8* getelementptr inbounds ([9 x i8], [9 x i8]* @.str.128, i32 0, i32 0), i64 %18, i64 %18, i64 0, i64 1), !dp.md.instr.id !3846
  %i11 = alloca i32, align 4, !dp.md.instr.id !3847
  %19 = ptrtoint i32* %i11 to i64, !dp.md.instr.id !3848
  %runtime = alloca double, align 8, !dp.md.instr.id !3849
  %20 = ptrtoint double* %runtime to i64, !dbg !3850, !dp.md.instr.id !3851
  call void @llvm.dbg.declare(metadata %struct.ECLgraph* %g, metadata !3852, metadata !DIExpression()), !dbg !3850, !dp.md.instr.id !3853
  %21 = ptrtoint i32** %label.addr to i64
  store i32* %label, i32** %label.addr, align 8, !dp.md.instr.id !3854
  call void @llvm.dbg.declare(metadata i32** %label.addr, metadata !3855, metadata !DIExpression()), !dbg !3856, !dp.md.instr.id !3857
  %22 = ptrtoint i32* %threadCount.addr to i64
  store i32 %threadCount, i32* %threadCount.addr, align 4, !dp.md.instr.id !3858
  call void @llvm.dbg.declare(metadata i32* %threadCount.addr, metadata !3859, metadata !DIExpression()), !dbg !3860, !dp.md.instr.id !3861
  call void @llvm.dbg.declare(metadata i32* %size, metadata !3862, metadata !DIExpression()), !dbg !3863, !dp.md.instr.id !3864
  %edges = getelementptr inbounds %struct.ECLgraph, %struct.ECLgraph* %g, i32 0, i32 1, !dbg !3865, !dp.md.instr.id !3866
  %nodes = getelementptr inbounds %struct.ECLgraph, %struct.ECLgraph* %g, i32 0, i32 0, !dbg !3867, !dp.md.instr.id !3868
  call void @__dp_call(i32 49233), !dbg !3869
  %call = call nonnull align 4 dereferenceable(4) i32* @_ZSt3maxIiERKT_S2_S2_(i32* nonnull align 4 dereferenceable(4) %edges, i32* nonnull align 4 dereferenceable(4) %nodes), !dbg !3869, !dp.md.instr.id !3870
  %23 = ptrtoint i32* %call to i64
  call void @__dp_read(i32 884, i64 %23, i8* getelementptr inbounds ([5 x i8], [5 x i8]* @.str.130, i32 0, i32 0))
  %24 = load i32, i32* %call, align 4, !dbg !3869, !dp.md.instr.id !3871
  %25 = ptrtoint i32* %size to i64
  store i32 %24, i32* %size, align 4, !dbg !3863, !dp.md.instr.id !3872
  call void @llvm.dbg.declare(metadata i32* %wlsize, metadata !3873, metadata !DIExpression()), !dbg !3874, !dp.md.instr.id !3875
  call void @llvm.dbg.declare(metadata i32** %wl1, metadata !3876, metadata !DIExpression()), !dbg !3877, !dp.md.instr.id !3878
  %26 = ptrtoint i32* %size to i64
  %27 = load i32, i32* %size, align 4, !dbg !3879, !dp.md.instr.id !3880
  %conv = sext i32 %27 to i64, !dbg !3879, !dp.md.instr.id !3881
  call void @__dp_call(i32 49235), !dbg !3882
  %28 = call { i64, i1 } @llvm.umul.with.overflow.i64(i64 %conv, i64 4), !dbg !3882, !dp.md.instr.id !3883
  %29 = extractvalue { i64, i1 } %28, 1, !dbg !3882, !dp.md.instr.id !3884
  %30 = extractvalue { i64, i1 } %28, 0, !dbg !3882, !dp.md.instr.id !3885
  %31 = select i1 %29, i64 -1, i64 %30, !dbg !3882, !dp.md.instr.id !3886
  %call1 = call noalias nonnull i8* @_Znam(i64 %31) #16, !dbg !3882, !heapallocsite !31, !dp.md.instr.id !3887
  %32 = ptrtoint i8* %call1 to i64, !dp.md.instr.id !3888
  call void @__dp_new(i32 49235, i64 %32, i64 %32, i64 %31), !dbg !3882, !dp.md.instr.id !3889
  %33 = bitcast i8* %call1 to i32*, !dbg !3882, !dp.md.instr.id !3890
  %34 = ptrtoint i32** %wl1 to i64
  call void @__dp_write(i32 898, i64 %34, i8* getelementptr inbounds ([4 x i8], [4 x i8]* @.str.118, i32 0, i32 0))
  store i32* %33, i32** %wl1, align 8, !dbg !3877, !dp.md.instr.id !3891
  call void @llvm.dbg.declare(metadata i32** %wl2, metadata !3892, metadata !DIExpression()), !dbg !3893, !dp.md.instr.id !3894
  %35 = ptrtoint i32* %size to i64
  %36 = load i32, i32* %size, align 4, !dbg !3895, !dp.md.instr.id !3896
  %conv2 = sext i32 %36 to i64, !dbg !3895, !dp.md.instr.id !3897
  call void @__dp_call(i32 49236), !dbg !3898
  %37 = call { i64, i1 } @llvm.umul.with.overflow.i64(i64 %conv2, i64 4), !dbg !3898, !dp.md.instr.id !3899
  %38 = extractvalue { i64, i1 } %37, 1, !dbg !3898, !dp.md.instr.id !3900
  %39 = extractvalue { i64, i1 } %37, 0, !dbg !3898, !dp.md.instr.id !3901
  %40 = select i1 %38, i64 -1, i64 %39, !dbg !3898, !dp.md.instr.id !3902
  %call3 = call noalias nonnull i8* @_Znam(i64 %40) #16, !dbg !3898, !heapallocsite !31, !dp.md.instr.id !3903
  %41 = ptrtoint i8* %call3 to i64, !dp.md.instr.id !3904
  call void @__dp_new(i32 49236, i64 %41, i64 %41, i64 %40), !dbg !3898, !dp.md.instr.id !3905
  %42 = bitcast i8* %call3 to i32*, !dbg !3898, !dp.md.instr.id !3906
  %43 = ptrtoint i32** %wl2 to i64
  call void @__dp_write(i32 910, i64 %43, i8* getelementptr inbounds ([4 x i8], [4 x i8]* @.str.119, i32 0, i32 0))
  store i32* %42, i32** %wl2, align 8, !dbg !3893, !dp.md.instr.id !3907
  call void @llvm.dbg.declare(metadata i32* %wl1size, metadata !3908, metadata !DIExpression()), !dbg !3909, !dp.md.instr.id !3910
  call void @llvm.dbg.declare(metadata i32* %wl2size, metadata !3911, metadata !DIExpression()), !dbg !3912, !dp.md.instr.id !3913
  %44 = ptrtoint i32* %threadCount.addr to i64
  %45 = load i32, i32* %threadCount.addr, align 4, !dbg !3914, !dp.md.instr.id !3915
  %46 = zext i32 %45 to i64, !dbg !3916, !dp.md.instr.id !3917
  call void @__dp_call(i32 49239), !dbg !3916
  %47 = call i8* @llvm.stacksave(), !dbg !3916, !dp.md.instr.id !3918
  %48 = ptrtoint i8** %saved_stack to i64
  store i8* %47, i8** %saved_stack, align 8, !dbg !3916, !dp.md.instr.id !3919
  %vla = alloca %"class.std::thread", i64 %46, align 16, !dbg !3916, !dp.md.instr.id !3920
  %49 = ptrtoint %"class.std::thread"* %vla to i64, !dbg !3916, !dp.md.instr.id !3921
  %50 = add i64 %49, %46, !dbg !3916, !dp.md.instr.id !3922
  %51 = mul i64 %46, 0, !dbg !3916, !dp.md.instr.id !3923
  call void @__dp_alloca(i32 49239, i8* getelementptr inbounds ([14 x i8], [14 x i8]* @.str.131, i32 0, i32 0), i64 %49, i64 %50, i64 %51, i64 %46), !dbg !3916, !dp.md.instr.id !3924
  %52 = ptrtoint i64* %__vla_expr0 to i64
  store i64 %46, i64* %__vla_expr0, align 8, !dbg !3916, !dp.md.instr.id !3925
  call void @llvm.dbg.declare(metadata i64* %__vla_expr0, metadata !3926, metadata !DIExpression()), !dbg !3927, !dp.md.instr.id !3928
  call void @llvm.dbg.declare(metadata %"class.std::thread"* %vla, metadata !3929, metadata !DIExpression()), !dbg !3933, !dp.md.instr.id !3934
  %isempty = icmp eq i64 %46, 0, !dbg !3933, !dp.md.instr.id !3935
  call void @__dp_report_bb(i32 97)
  br i1 %isempty, label %arrayctor.cont, label %new.ctorloop, !dbg !3933, !dp.md.instr.id !3936

new.ctorloop:                                     ; preds = %entry
  %arrayctor.end = getelementptr inbounds %"class.std::thread", %"class.std::thread"* %vla, i64 %46, !dbg !3933, !dp.md.instr.id !3937
  br label %arrayctor.loop, !dbg !3933, !dp.md.instr.id !3938

arrayctor.loop:                                   ; preds = %arrayctor.loop, %new.ctorloop
  %arrayctor.cur = phi %"class.std::thread"* [ %vla, %new.ctorloop ], [ %arrayctor.next, %arrayctor.loop ], !dbg !3933, !dp.md.instr.id !3939
  call void @__dp_call(i32 49239), !dbg !3933
  call void @_ZNSt6threadC2Ev(%"class.std::thread"* %arrayctor.cur) #12, !dbg !3933, !dp.md.instr.id !3940
  %arrayctor.next = getelementptr inbounds %"class.std::thread", %"class.std::thread"* %arrayctor.cur, i64 1, !dbg !3933, !dp.md.instr.id !3941
  %arrayctor.done = icmp eq %"class.std::thread"* %arrayctor.next, %arrayctor.end, !dbg !3933, !dp.md.instr.id !3942
  br i1 %arrayctor.done, label %arrayctor.cont, label %arrayctor.loop, !dbg !3933, !dp.md.instr.id !3943

arrayctor.cont:                                   ; preds = %entry, %arrayctor.loop
  %53 = ptrtoint i32** %label.addr to i64
  %54 = load i32*, i32** %label.addr, align 8, !dbg !3944, !dp.md.instr.id !3945
  %nodes4 = getelementptr inbounds %struct.ECLgraph, %struct.ECLgraph* %g, i32 0, i32 0, !dbg !3946, !dp.md.instr.id !3947
  %55 = ptrtoint i32* %nodes4 to i64
  call void @__dp_read(i32 936, i64 %55, i8* getelementptr inbounds ([12 x i8], [12 x i8]* @.str.41, i32 0, i32 0))
  %56 = load i32, i32* %nodes4, align 8, !dbg !3946, !dp.md.instr.id !3948
  %57 = ptrtoint i32** %wl1 to i64
  call void @__dp_read(i32 937, i64 %57, i8* getelementptr inbounds ([4 x i8], [4 x i8]* @.str.118, i32 0, i32 0))
  %58 = load i32*, i32** %wl1, align 8, !dbg !3949, !dp.md.instr.id !3950
  call void @__dp_call(i32 49241), !dbg !3951
  call void @__dp_report_bb(i32 98)
  invoke void @_ZL4initPiiS_Ri(i32* %54, i32 %56, i32* %58, i32* nonnull align 4 dereferenceable(4) %wl1size)
          to label %invoke.cont unwind label %lpad, !dbg !3951, !dp.md.instr.id !3952

invoke.cont:                                      ; preds = %arrayctor.cont
  call void @llvm.dbg.declare(metadata %struct.timeval* %start, metadata !3953, metadata !DIExpression()), !dbg !3960, !dp.md.instr.id !3961
  call void @llvm.dbg.declare(metadata %struct.timeval* %end, metadata !3962, metadata !DIExpression()), !dbg !3963, !dp.md.instr.id !3964
  call void @__dp_call(i32 49244), !dbg !3965
  %call5 = call i32 @gettimeofday(%struct.timeval* %start, i8* null) #12, !dbg !3965, !dp.md.instr.id !3966
  call void @llvm.dbg.declare(metadata i32* %iter, metadata !3967, metadata !DIExpression()), !dbg !3968, !dp.md.instr.id !3969
  %59 = ptrtoint i32* %iter to i64
  store i32 0, i32* %iter, align 4, !dbg !3968, !dp.md.instr.id !3970
  call void @__dp_report_bb(i32 100)
  br label %do.body, !dbg !3971, !dp.md.instr.id !3972

do.body:                                          ; preds = %do.cond, %invoke.cont
  call void @__dp_loop_entry(i32 49249, i32 6), !dp.md.instr.id !3973
  %60 = ptrtoint i32* %iter to i64
  %61 = load i32, i32* %iter, align 4, !dbg !3974, !dp.md.instr.id !3976
  %inc = add nsw i32 %61, 1, !dbg !3974, !dp.md.instr.id !3977
  %62 = ptrtoint i32* %iter to i64
  store i32 %inc, i32* %iter, align 4, !dbg !3974, !dp.md.instr.id !3978
  %63 = ptrtoint i32* %wl2size to i64
  call void @__dp_write(i32 949, i64 %63, i8* getelementptr inbounds ([8 x i8], [8 x i8]* @.str.121, i32 0, i32 0))
  store i32 0, i32* %wl2size, align 4, !dbg !3979, !dp.md.instr.id !3980
  call void @llvm.dbg.declare(metadata i32* %i, metadata !3981, metadata !DIExpression()), !dbg !3983, !dp.md.instr.id !3984
  %64 = ptrtoint i32* %i to i64
  store i32 0, i32* %i, align 4, !dbg !3983, !dp.md.instr.id !3985
  call void @__dp_report_bb(i32 103)
  %65 = load i32, i32* %__dp_bb46, align 4
  call void @__dp_report_bb_pair(i32 %65, i32 116)
  store i32 1, i32* %__dp_bb46, align 4
  %66 = load i32, i32* %__dp_bb47, align 4
  call void @__dp_report_bb_pair(i32 %66, i32 117)
  br label %for.cond, !dbg !3986, !dp.md.instr.id !3987

for.cond:                                         ; preds = %for.inc, %do.body
  call void @__dp_loop_incr(i32 7)
  call void @__dp_loop_entry(i32 49252, i32 7), !dp.md.instr.id !3988
  %67 = ptrtoint i32* %i to i64
  %68 = load i32, i32* %i, align 4, !dbg !3989, !dp.md.instr.id !3991
  %69 = ptrtoint i32* %threadCount.addr to i64
  %70 = load i32, i32* %threadCount.addr, align 4, !dbg !3992, !dp.md.instr.id !3993
  %cmp = icmp slt i32 %68, %70, !dbg !3994, !dp.md.instr.id !3995
  call void @__dp_report_bb(i32 105)
  store i32 1, i32* %__dp_bb47, align 4
  %71 = load i32, i32* %__dp_bb48, align 4
  call void @__dp_report_bb_pair(i32 %71, i32 119)
  br i1 %cmp, label %for.body, label %for.end, !dbg !3996, !dp.md.instr.id !3997

for.body:                                         ; preds = %for.cond
  call void @__dp_loop_incr(i32 8)
  call void @__dp_call(i32 49253), !dbg !3998
  %call7 = call i32* @_ZSt3refIiESt17reference_wrapperIT_ERS1_(i32* nonnull align 4 dereferenceable(4) %wl2size) #12, !dbg !3998, !dp.md.instr.id !4000
  %coerce.dive = getelementptr inbounds %"class.std::reference_wrapper", %"class.std::reference_wrapper"* %ref.tmp6, i32 0, i32 0, !dbg !3998, !dp.md.instr.id !4001
  %72 = ptrtoint i32** %coerce.dive to i64
  call void @__dp_write(i32 960, i64 %72, i8* getelementptr inbounds ([19 x i8], [19 x i8]* @.str.132, i32 0, i32 0))
  store i32* %call7, i32** %coerce.dive, align 8, !dbg !3998, !dp.md.instr.id !4002
  call void @__dp_call(i32 49253), !dbg !4003
  invoke void @_ZNSt6threadC2IRFv8ECLgraphPiPKiiS2_RiiiiEJRKS1_RS2_SA_S5_SA_St17reference_wrapperIiES5_S5_RS3_EvEEOT_DpOT0_(%"class.std::thread"* %ref.tmp, void (%struct.ECLgraph*, i32*, i32*, i32, i32*, i32*, i32, i32, i32)* nonnull @_ZL14cc_vertex_data8ECLgraphPiPKiiS0_Riiii, %struct.ECLgraph* nonnull align 8 dereferenceable(32) %g, i32** nonnull align 8 dereferenceable(8) %label.addr, i32** nonnull align 8 dereferenceable(8) %wl1, i32* nonnull align 4 dereferenceable(4) %wl1size, i32** nonnull align 8 dereferenceable(8) %wl2, %"class.std::reference_wrapper"* nonnull align 8 dereferenceable(8) %ref.tmp6, i32* nonnull align 4 dereferenceable(4) %iter, i32* nonnull align 4 dereferenceable(4) %i, i32* nonnull align 4 dereferenceable(4) %threadCount.addr)
          to label %invoke.cont8 unwind label %lpad, !dbg !4003, !dp.md.instr.id !4004

invoke.cont8:                                     ; preds = %for.body
  %73 = ptrtoint i32* %i to i64
  %74 = load i32, i32* %i, align 4, !dbg !4005, !dp.md.instr.id !4006
  %idxprom = sext i32 %74 to i64, !dbg !4007, !dp.md.instr.id !4008
  %arrayidx = getelementptr inbounds %"class.std::thread", %"class.std::thread"* %vla, i64 %idxprom, !dbg !4007, !dp.md.instr.id !4009
  call void @__dp_call(i32 49253), !dbg !4010
  %call9 = call nonnull align 8 dereferenceable(8) %"class.std::thread"* @_ZNSt6threadaSEOS_(%"class.std::thread"* %arrayidx, %"class.std::thread"* nonnull align 8 dereferenceable(8) %ref.tmp) #12, !dbg !4010, !dp.md.instr.id !4011
  call void @__dp_call(i32 49253), !dbg !4007
  call void @_ZNSt6threadD2Ev(%"class.std::thread"* %ref.tmp) #12, !dbg !4007, !dp.md.instr.id !4012
  call void @__dp_report_bb(i32 96)
  %75 = load i32, i32* %__dp_bb48, align 4
  call void @__dp_report_bb_pair(i32 %75, i32 118)
  br label %for.inc, !dbg !4013, !dp.md.instr.id !4014

for.inc:                                          ; preds = %invoke.cont8
  %76 = ptrtoint i32* %i to i64
  %77 = load i32, i32* %i, align 4, !dbg !4015, !dp.md.instr.id !4016
  %inc10 = add nsw i32 %77, 1, !dbg !4015, !dp.md.instr.id !4017
  %78 = ptrtoint i32* %i to i64
  store i32 %inc10, i32* %i, align 4, !dbg !4015, !dp.md.instr.id !4018
  call void @__dp_report_bb(i32 106)
  %79 = load i32, i32* %__dp_bb48, align 4
  call void @__dp_report_bb_pair(i32 %79, i32 120)
  store i32 1, i32* %__dp_bb48, align 4
  br label %for.cond, !dbg !4019, !llvm.loop !4020, !dp.md.instr.id !4022

lpad:                                             ; preds = %do.end, %for.body14, %for.body, %arrayctor.cont
  %80 = landingpad { i8*, i32 }
          cleanup, !dbg !4023, !dp.md.instr.id !4024
  %81 = extractvalue { i8*, i32 } %80, 0, !dbg !4023, !dp.md.instr.id !4025
  %82 = ptrtoint i8** %exn.slot to i64
  store i8* %81, i8** %exn.slot, align 8, !dbg !4023, !dp.md.instr.id !4026
  %83 = extractvalue { i8*, i32 } %80, 1, !dbg !4023, !dp.md.instr.id !4027
  %84 = ptrtoint i32* %ehselector.slot to i64
  store i32 %83, i32* %ehselector.slot, align 4, !dbg !4023, !dp.md.instr.id !4028
  %85 = getelementptr inbounds %"class.std::thread", %"class.std::thread"* %vla, i64 %46, !dbg !4023, !dp.md.instr.id !4029
  %arraydestroy.isempty37 = icmp eq %"class.std::thread"* %vla, %85, !dbg !4023, !dp.md.instr.id !4030
  call void @__dp_report_bb(i32 93)
  br i1 %arraydestroy.isempty37, label %arraydestroy.done42, label %arraydestroy.body38, !dbg !4023, !dp.md.instr.id !4031

for.end:                                          ; preds = %for.cond
  call void @__dp_loop_exit(i32 49255, i32 7), !dp.md.instr.id !4032
  call void @llvm.dbg.declare(metadata i32* %i11, metadata !4033, metadata !DIExpression()), !dbg !4035, !dp.md.instr.id !4036
  %86 = ptrtoint i32* %i11 to i64
  store i32 0, i32* %i11, align 4, !dbg !4035, !dp.md.instr.id !4037
  call void @__dp_report_bb(i32 104)
  %87 = load i32, i32* %__dp_bb, align 4
  call void @__dp_report_bb_pair(i32 %87, i32 111)
  br label %for.cond12, !dbg !4038, !dp.md.instr.id !4039

for.cond12:                                       ; preds = %for.inc18, %for.end
  call void @__dp_loop_entry(i32 49255, i32 8), !dp.md.instr.id !4040
  %88 = ptrtoint i32* %i11 to i64
  %89 = load i32, i32* %i11, align 4, !dbg !4041, !dp.md.instr.id !4043
  %90 = ptrtoint i32* %threadCount.addr to i64
  %91 = load i32, i32* %threadCount.addr, align 4, !dbg !4044, !dp.md.instr.id !4045
  %cmp13 = icmp slt i32 %89, %91, !dbg !4046, !dp.md.instr.id !4047
  call void @__dp_report_bb(i32 95)
  store i32 1, i32* %__dp_bb, align 4
  %92 = load i32, i32* %__dp_bb44, align 4
  call void @__dp_report_bb_pair(i32 %92, i32 112)
  br i1 %cmp13, label %for.body14, label %for.end20, !dbg !4048, !dp.md.instr.id !4049

for.body14:                                       ; preds = %for.cond12
  call void @__dp_loop_incr(i32 9)
  %93 = ptrtoint i32* %i11 to i64
  %94 = load i32, i32* %i11, align 4, !dbg !4050, !dp.md.instr.id !4052
  %idxprom15 = sext i32 %94 to i64, !dbg !4053, !dp.md.instr.id !4054
  %arrayidx16 = getelementptr inbounds %"class.std::thread", %"class.std::thread"* %vla, i64 %idxprom15, !dbg !4053, !dp.md.instr.id !4055
  call void @__dp_call(i32 49256), !dbg !4056
  call void @__dp_report_bb(i32 107)
  %95 = load i32, i32* %__dp_bb44, align 4
  call void @__dp_report_bb_pair(i32 %95, i32 114)
  invoke void @_ZNSt6thread4joinEv(%"class.std::thread"* %arrayidx16)
          to label %invoke.cont17 unwind label %lpad, !dbg !4056, !dp.md.instr.id !4057

invoke.cont17:                                    ; preds = %for.body14
  br label %for.inc18, !dbg !4058, !dp.md.instr.id !4059

for.inc18:                                        ; preds = %invoke.cont17
  %96 = ptrtoint i32* %i11 to i64
  %97 = load i32, i32* %i11, align 4, !dbg !4060, !dp.md.instr.id !4061
  %inc19 = add nsw i32 %97, 1, !dbg !4060, !dp.md.instr.id !4062
  %98 = ptrtoint i32* %i11 to i64
  store i32 %inc19, i32* %i11, align 4, !dbg !4060, !dp.md.instr.id !4063
  call void @__dp_report_bb(i32 99)
  %99 = load i32, i32* %__dp_bb44, align 4
  call void @__dp_report_bb_pair(i32 %99, i32 113)
  store i32 1, i32* %__dp_bb44, align 4
  br label %for.cond12, !dbg !4064, !llvm.loop !4065, !dp.md.instr.id !4067

for.end20:                                        ; preds = %for.cond12
  call void @__dp_loop_exit(i32 49259, i32 8), !dp.md.instr.id !4068
  call void @__dp_call(i32 49259), !dbg !4069
  call void @_ZSt4swapIPiENSt9enable_ifIXsr6__and_ISt6__not_ISt15__is_tuple_likeIT_EESt21is_move_constructibleIS4_ESt18is_move_assignableIS4_EEE5valueEvE4typeERS4_SD_(i32** nonnull align 8 dereferenceable(8) %wl1, i32** nonnull align 8 dereferenceable(8) %wl2) #12, !dbg !4069, !dp.md.instr.id !4070
  %100 = ptrtoint i32* %wl2size to i64
  call void @__dp_read(i32 1000, i64 %100, i8* getelementptr inbounds ([8 x i8], [8 x i8]* @.str.121, i32 0, i32 0))
  %101 = load i32, i32* %wl2size, align 4, !dbg !4071, !dp.md.instr.id !4072
  %102 = ptrtoint i32* %wl1size to i64
  store i32 %101, i32* %wl1size, align 4, !dbg !4073, !dp.md.instr.id !4074
  call void @__dp_report_bb(i32 94)
  %103 = load i32, i32* %__dp_bb45, align 4
  call void @__dp_report_bb_pair(i32 %103, i32 115)
  br label %do.cond, !dbg !4075, !dp.md.instr.id !4076

do.cond:                                          ; preds = %for.end20
  %104 = ptrtoint i32* %wl1size to i64
  %105 = load i32, i32* %wl1size, align 4, !dbg !4077, !dp.md.instr.id !4078
  %cmp21 = icmp sgt i32 %105, 0, !dbg !4079, !dp.md.instr.id !4080
  call void @__dp_report_bb(i32 102)
  store i32 1, i32* %__dp_bb45, align 4
  br i1 %cmp21, label %do.body, label %do.end, !dbg !4075, !llvm.loop !4081, !dp.md.instr.id !4083

do.end:                                           ; preds = %do.cond
  call void @__dp_loop_exit(i32 49263, i32 6), !dp.md.instr.id !4084
  call void @__dp_call(i32 49263), !dbg !4085
  %call22 = call i32 @gettimeofday(%struct.timeval* %end, i8* null) #12, !dbg !4085, !dp.md.instr.id !4086
  call void @llvm.dbg.declare(metadata double* %runtime, metadata !4087, metadata !DIExpression()), !dbg !4088, !dp.md.instr.id !4089
  %tv_sec = getelementptr inbounds %struct.timeval, %struct.timeval* %end, i32 0, i32 0, !dbg !4090, !dp.md.instr.id !4091
  %106 = ptrtoint i64* %tv_sec to i64
  call void @__dp_read(i32 1010, i64 %106, i8* getelementptr inbounds ([14 x i8], [14 x i8]* @.str.133, i32 0, i32 0))
  %107 = load i64, i64* %tv_sec, align 8, !dbg !4090, !dp.md.instr.id !4092
  %conv23 = sitofp i64 %107 to double, !dbg !4093, !dp.md.instr.id !4094
  %tv_usec = getelementptr inbounds %struct.timeval, %struct.timeval* %end, i32 0, i32 1, !dbg !4095, !dp.md.instr.id !4096
  %108 = ptrtoint i64* %tv_usec to i64
  call void @__dp_read(i32 1013, i64 %108, i8* getelementptr inbounds ([14 x i8], [14 x i8]* @.str.133, i32 0, i32 0))
  %109 = load i64, i64* %tv_usec, align 8, !dbg !4095, !dp.md.instr.id !4097
  %conv24 = sitofp i64 %109 to double, !dbg !4098, !dp.md.instr.id !4099
  %div = fdiv double %conv24, 1.000000e+06, !dbg !4100, !dp.md.instr.id !4101
  %add = fadd double %conv23, %div, !dbg !4102, !dp.md.instr.id !4103
  %tv_sec25 = getelementptr inbounds %struct.timeval, %struct.timeval* %start, i32 0, i32 0, !dbg !4104, !dp.md.instr.id !4105
  %110 = ptrtoint i64* %tv_sec25 to i64
  call void @__dp_read(i32 1018, i64 %110, i8* getelementptr inbounds ([16 x i8], [16 x i8]* @.str.134, i32 0, i32 0))
  %111 = load i64, i64* %tv_sec25, align 8, !dbg !4104, !dp.md.instr.id !4106
  %conv26 = sitofp i64 %111 to double, !dbg !4107, !dp.md.instr.id !4108
  %sub = fsub double %add, %conv26, !dbg !4109, !dp.md.instr.id !4110
  %tv_usec27 = getelementptr inbounds %struct.timeval, %struct.timeval* %start, i32 0, i32 1, !dbg !4111, !dp.md.instr.id !4112
  %112 = ptrtoint i64* %tv_usec27 to i64
  call void @__dp_read(i32 1022, i64 %112, i8* getelementptr inbounds ([16 x i8], [16 x i8]* @.str.134, i32 0, i32 0))
  %113 = load i64, i64* %tv_usec27, align 8, !dbg !4111, !dp.md.instr.id !4113
  %conv28 = sitofp i64 %113 to double, !dbg !4114, !dp.md.instr.id !4115
  %div29 = fdiv double %conv28, 1.000000e+06, !dbg !4116, !dp.md.instr.id !4117
  %sub30 = fsub double %sub, %div29, !dbg !4118, !dp.md.instr.id !4119
  %114 = ptrtoint double* %runtime to i64
  store double %sub30, double* %runtime, align 8, !dbg !4088, !dp.md.instr.id !4120
  %115 = ptrtoint i32* %iter to i64
  %116 = load i32, i32* %iter, align 4, !dbg !4121, !dp.md.instr.id !4122
  call void @__dp_call(i32 49265), !dbg !4123
  call void @__dp_report_bb(i32 101)
  %call32 = invoke i32 (i8*, ...) @printf(i8* getelementptr inbounds ([16 x i8], [16 x i8]* @.str.34, i64 0, i64 0), i32 %116)
          to label %invoke.cont31 unwind label %lpad, !dbg !4123, !dp.md.instr.id !4124

invoke.cont31:                                    ; preds = %do.end
  %117 = ptrtoint i32** %wl1 to i64
  call void @__dp_read(i32 1029, i64 %117, i8* getelementptr inbounds ([4 x i8], [4 x i8]* @.str.118, i32 0, i32 0))
  %118 = load i32*, i32** %wl1, align 8, !dbg !4125, !dp.md.instr.id !4126
  %isnull = icmp eq i32* %118, null, !dbg !4127, !dp.md.instr.id !4128
  br i1 %isnull, label %delete.end, label %delete.notnull, !dbg !4127, !dp.md.instr.id !4129

delete.notnull:                                   ; preds = %invoke.cont31
  %119 = bitcast i32* %118 to i8*, !dbg !4127, !dp.md.instr.id !4130
  call void @__dp_call(i32 49267), !dbg !4127
  call void @_ZdaPv(i8* %119) #17, !dbg !4127, !dp.md.instr.id !4131
  br label %delete.end, !dbg !4127, !dp.md.instr.id !4132

delete.end:                                       ; preds = %delete.notnull, %invoke.cont31
  %120 = ptrtoint i32** %wl2 to i64
  call void @__dp_read(i32 1035, i64 %120, i8* getelementptr inbounds ([4 x i8], [4 x i8]* @.str.119, i32 0, i32 0))
  %121 = load i32*, i32** %wl2, align 8, !dbg !4133, !dp.md.instr.id !4134
  %isnull33 = icmp eq i32* %121, null, !dbg !4135, !dp.md.instr.id !4136
  br i1 %isnull33, label %delete.end35, label %delete.notnull34, !dbg !4135, !dp.md.instr.id !4137

delete.notnull34:                                 ; preds = %delete.end
  %122 = bitcast i32* %121 to i8*, !dbg !4135, !dp.md.instr.id !4138
  call void @__dp_call(i32 49268), !dbg !4135
  call void @_ZdaPv(i8* %122) #17, !dbg !4135, !dp.md.instr.id !4139
  br label %delete.end35, !dbg !4135, !dp.md.instr.id !4140

delete.end35:                                     ; preds = %delete.notnull34, %delete.end
  %123 = ptrtoint double* %runtime to i64
  %124 = load double, double* %runtime, align 8, !dbg !4141, !dp.md.instr.id !4142
  %125 = ptrtoint double* %retval to i64
  store double %124, double* %retval, align 8, !dbg !4143, !dp.md.instr.id !4144
  %126 = getelementptr inbounds %"class.std::thread", %"class.std::thread"* %vla, i64 %46, !dbg !4023, !dp.md.instr.id !4145
  %arraydestroy.isempty = icmp eq %"class.std::thread"* %vla, %126, !dbg !4023, !dp.md.instr.id !4146
  call void @__dp_report_bb(i32 108)
  br i1 %arraydestroy.isempty, label %arraydestroy.done36, label %arraydestroy.body, !dbg !4023, !dp.md.instr.id !4147

arraydestroy.body:                                ; preds = %arraydestroy.body, %delete.end35
  %arraydestroy.elementPast = phi %"class.std::thread"* [ %126, %delete.end35 ], [ %arraydestroy.element, %arraydestroy.body ], !dbg !4023, !dp.md.instr.id !4148
  %arraydestroy.element = getelementptr inbounds %"class.std::thread", %"class.std::thread"* %arraydestroy.elementPast, i64 -1, !dbg !4023, !dp.md.instr.id !4149
  call void @__dp_call(i32 49270), !dbg !4023
  call void @_ZNSt6threadD2Ev(%"class.std::thread"* %arraydestroy.element) #12, !dbg !4023, !dp.md.instr.id !4150
  %arraydestroy.done = icmp eq %"class.std::thread"* %arraydestroy.element, %vla, !dbg !4023, !dp.md.instr.id !4151
  br i1 %arraydestroy.done, label %arraydestroy.done36, label %arraydestroy.body, !dbg !4023, !dp.md.instr.id !4152

arraydestroy.done36:                              ; preds = %arraydestroy.body, %delete.end35
  %127 = ptrtoint i8** %saved_stack to i64
  %128 = load i8*, i8** %saved_stack, align 8, !dbg !4023, !dp.md.instr.id !4153
  call void @__dp_call(i32 49270), !dbg !4023
  call void @llvm.stackrestore(i8* %128), !dbg !4023, !dp.md.instr.id !4154
  %129 = ptrtoint double* %retval to i64
  %130 = load double, double* %retval, align 8, !dbg !4023, !dp.md.instr.id !4155
  call void @__dp_report_bb(i32 110)
  call void @__dp_func_exit(i32 49270, i32 0), !dbg !4023
  ret double %130, !dbg !4023, !dp.md.instr.id !4156

arraydestroy.body38:                              ; preds = %arraydestroy.body38, %lpad
  %arraydestroy.elementPast39 = phi %"class.std::thread"* [ %85, %lpad ], [ %arraydestroy.element40, %arraydestroy.body38 ], !dbg !4023, !dp.md.instr.id !4157
  %arraydestroy.element40 = getelementptr inbounds %"class.std::thread", %"class.std::thread"* %arraydestroy.elementPast39, i64 -1, !dbg !4023, !dp.md.instr.id !4158
  call void @__dp_call(i32 49270), !dbg !4023
  call void @_ZNSt6threadD2Ev(%"class.std::thread"* %arraydestroy.element40) #12, !dbg !4023, !dp.md.instr.id !4159
  %arraydestroy.done41 = icmp eq %"class.std::thread"* %arraydestroy.element40, %vla, !dbg !4023, !dp.md.instr.id !4160
  br i1 %arraydestroy.done41, label %arraydestroy.done42, label %arraydestroy.body38, !dbg !4023, !dp.md.instr.id !4161

arraydestroy.done42:                              ; preds = %arraydestroy.body38, %lpad
  br label %eh.resume, !dbg !4023, !dp.md.instr.id !4162

eh.resume:                                        ; preds = %arraydestroy.done42
  %131 = ptrtoint i8** %exn.slot to i64
  %exn = load i8*, i8** %exn.slot, align 8, !dbg !4023, !dp.md.instr.id !4163
  %132 = ptrtoint i32* %ehselector.slot to i64
  %sel = load i32, i32* %ehselector.slot, align 4, !dbg !4023, !dp.md.instr.id !4164
  %lpad.val = insertvalue { i8*, i32 } undef, i8* %exn, 0, !dbg !4023, !dp.md.instr.id !4165
  %lpad.val43 = insertvalue { i8*, i32 } %lpad.val, i32 %sel, 1, !dbg !4023, !dp.md.instr.id !4166
  call void @__dp_report_bb(i32 109)
  resume { i8*, i32 } %lpad.val43, !dbg !4023, !dp.md.instr.id !4167
}

; Function Attrs: argmemonly nounwind willreturn
declare void @llvm.memcpy.p0i8.p0i8.i64(i8* noalias nocapture writeonly, i8* noalias nocapture readonly, i64, i1 immarg) #9

; Function Attrs: noinline optnone uwtable
define internal double @_ZL6medianPdi(double* %array, i32 %n) #0 !dbg !4168 {
entry:
  call void @__dp_func_entry(i32 32827, i32 0), !dp.md.instr.id !4171
  %__dp_bb8 = alloca i32, align 4
  store i32 0, i32* %__dp_bb8, align 4
  %__dp_bb = alloca i32, align 4
  store i32 0, i32* %__dp_bb, align 4
  %array.addr = alloca double*, align 8, !dp.md.instr.id !4172
  %0 = ptrtoint double** %array.addr to i64, !dp.md.instr.id !4173
  %n.addr = alloca i32, align 4, !dp.md.instr.id !4174
  %1 = ptrtoint i32* %n.addr to i64, !dp.md.instr.id !4175
  %median = alloca double, align 8, !dp.md.instr.id !4176
  %2 = ptrtoint double* %median to i64, !dp.md.instr.id !4177
  %3 = ptrtoint double** %array.addr to i64
  store double* %array, double** %array.addr, align 8, !dp.md.instr.id !4178
  call void @llvm.dbg.declare(metadata double** %array.addr, metadata !4179, metadata !DIExpression()), !dbg !4180, !dp.md.instr.id !4181
  %4 = ptrtoint i32* %n.addr to i64
  store i32 %n, i32* %n.addr, align 4, !dp.md.instr.id !4182
  call void @llvm.dbg.declare(metadata i32* %n.addr, metadata !4183, metadata !DIExpression()), !dbg !4184, !dp.md.instr.id !4185
  call void @llvm.dbg.declare(metadata double* %median, metadata !4186, metadata !DIExpression()), !dbg !4187, !dp.md.instr.id !4188
  %5 = ptrtoint double* %median to i64
  store double 0.000000e+00, double* %median, align 8, !dbg !4187, !dp.md.instr.id !4189
  %6 = ptrtoint double** %array.addr to i64
  %7 = load double*, double** %array.addr, align 8, !dbg !4190, !dp.md.instr.id !4191
  %8 = ptrtoint double** %array.addr to i64
  %9 = load double*, double** %array.addr, align 8, !dbg !4192, !dp.md.instr.id !4193
  %10 = ptrtoint i32* %n.addr to i64
  %11 = load i32, i32* %n.addr, align 4, !dbg !4194, !dp.md.instr.id !4195
  %idx.ext = sext i32 %11 to i64, !dbg !4196, !dp.md.instr.id !4197
  %add.ptr = getelementptr inbounds double, double* %9, i64 %idx.ext, !dbg !4196, !dp.md.instr.id !4198
  call void @__dp_call(i32 32830), !dbg !4199
  call void @_ZSt4sortIPdEvT_S1_(double* %7, double* %add.ptr), !dbg !4199, !dp.md.instr.id !4200
  %12 = ptrtoint i32* %n.addr to i64
  %13 = load i32, i32* %n.addr, align 4, !dbg !4201, !dp.md.instr.id !4203
  %rem = srem i32 %13, 2, !dbg !4204, !dp.md.instr.id !4205
  %cmp = icmp eq i32 %rem, 0, !dbg !4206, !dp.md.instr.id !4207
  call void @__dp_report_bb(i32 121)
  br i1 %cmp, label %if.then, label %if.else, !dbg !4208, !dp.md.instr.id !4209

if.then:                                          ; preds = %entry
  %14 = ptrtoint double** %array.addr to i64
  %15 = load double*, double** %array.addr, align 8, !dbg !4210, !dp.md.instr.id !4211
  %16 = ptrtoint i32* %n.addr to i64
  %17 = load i32, i32* %n.addr, align 4, !dbg !4212, !dp.md.instr.id !4213
  %sub = sub nsw i32 %17, 1, !dbg !4214, !dp.md.instr.id !4215
  %div = sdiv i32 %sub, 2, !dbg !4216, !dp.md.instr.id !4217
  %idxprom = sext i32 %div to i64, !dbg !4210, !dp.md.instr.id !4218
  %arrayidx = getelementptr inbounds double, double* %15, i64 %idxprom, !dbg !4210, !dp.md.instr.id !4219
  %18 = ptrtoint double* %arrayidx to i64
  call void @__dp_read(i32 1098, i64 %18, i8* getelementptr inbounds ([16 x i8], [16 x i8]* @.str.138, i32 0, i32 0))
  %19 = load double, double* %arrayidx, align 8, !dbg !4210, !dp.md.instr.id !4220
  %20 = ptrtoint double** %array.addr to i64
  %21 = load double*, double** %array.addr, align 8, !dbg !4221, !dp.md.instr.id !4222
  %22 = ptrtoint i32* %n.addr to i64
  %23 = load i32, i32* %n.addr, align 4, !dbg !4223, !dp.md.instr.id !4224
  %div1 = sdiv i32 %23, 2, !dbg !4225, !dp.md.instr.id !4226
  %idxprom2 = sext i32 %div1 to i64, !dbg !4221, !dp.md.instr.id !4227
  %arrayidx3 = getelementptr inbounds double, double* %21, i64 %idxprom2, !dbg !4221, !dp.md.instr.id !4228
  %24 = ptrtoint double* %arrayidx3 to i64
  call void @__dp_read(i32 1104, i64 %24, i8* getelementptr inbounds ([16 x i8], [16 x i8]* @.str.138, i32 0, i32 0))
  %25 = load double, double* %arrayidx3, align 8, !dbg !4221, !dp.md.instr.id !4229
  %add = fadd double %19, %25, !dbg !4230, !dp.md.instr.id !4231
  %div4 = fdiv double %add, 2.000000e+00, !dbg !4232, !dp.md.instr.id !4233
  %26 = ptrtoint double* %median to i64
  store double %div4, double* %median, align 8, !dbg !4234, !dp.md.instr.id !4235
  call void @__dp_report_bb(i32 122)
  store i32 1, i32* %__dp_bb, align 4
  br label %if.end, !dbg !4236, !dp.md.instr.id !4237

if.else:                                          ; preds = %entry
  %27 = ptrtoint double** %array.addr to i64
  %28 = load double*, double** %array.addr, align 8, !dbg !4238, !dp.md.instr.id !4239
  %29 = ptrtoint i32* %n.addr to i64
  %30 = load i32, i32* %n.addr, align 4, !dbg !4240, !dp.md.instr.id !4241
  %div5 = sdiv i32 %30, 2, !dbg !4242, !dp.md.instr.id !4243
  %idxprom6 = sext i32 %div5 to i64, !dbg !4238, !dp.md.instr.id !4244
  %arrayidx7 = getelementptr inbounds double, double* %28, i64 %idxprom6, !dbg !4238, !dp.md.instr.id !4245
  %31 = ptrtoint double* %arrayidx7 to i64
  call void @__dp_read(i32 1114, i64 %31, i8* getelementptr inbounds ([16 x i8], [16 x i8]* @.str.138, i32 0, i32 0))
  %32 = load double, double* %arrayidx7, align 8, !dbg !4238, !dp.md.instr.id !4246
  %33 = ptrtoint double* %median to i64
  store double %32, double* %median, align 8, !dbg !4247, !dp.md.instr.id !4248
  call void @__dp_report_bb(i32 123)
  store i32 1, i32* %__dp_bb8, align 4
  br label %if.end, !dp.md.instr.id !4249

if.end:                                           ; preds = %if.else, %if.then
  %34 = ptrtoint double* %median to i64
  %35 = load double, double* %median, align 8, !dbg !4250, !dp.md.instr.id !4251
  %36 = load i32, i32* %__dp_bb, align 4
  call void @__dp_report_bb_pair(i32 %36, i32 124)
  %37 = load i32, i32* %__dp_bb8, align 4
  call void @__dp_report_bb_pair(i32 %37, i32 125)
  call void @__dp_func_exit(i32 32833, i32 0), !dbg !4252
  ret double %35, !dbg !4252, !dp.md.instr.id !4253
}

; Function Attrs: noinline nounwind optnone uwtable
define linkonce_odr void @_ZNSt3setIiSt4lessIiESaIiEEC2Ev(%"class.std::set"* %this) unnamed_addr #5 comdat align 2 !dbg !4254 {
entry:
  %this.addr = alloca %"class.std::set"*, align 8
  store %"class.std::set"* %this, %"class.std::set"** %this.addr, align 8
  call void @llvm.dbg.declare(metadata %"class.std::set"** %this.addr, metadata !4255, metadata !DIExpression()), !dbg !4257
  %this1 = load %"class.std::set"*, %"class.std::set"** %this.addr, align 8
  %_M_t = getelementptr inbounds %"class.std::set", %"class.std::set"* %this1, i32 0, i32 0, !dbg !4258
  call void @_ZNSt8_Rb_treeIiiSt9_IdentityIiESt4lessIiESaIiEEC2Ev(%"class.std::_Rb_tree"* %_M_t) #12, !dbg !4258
  ret void, !dbg !4259
}

; Function Attrs: noinline optnone uwtable
define linkonce_odr { %"struct.std::_Rb_tree_node_base"*, i8 } @_ZNSt3setIiSt4lessIiESaIiEE6insertERKi(%"class.std::set"* %this, i32* nonnull align 4 dereferenceable(4) %__x) #0 comdat align 2 !dbg !4260 {
entry:
  %retval = alloca %"struct.std::pair", align 8
  %this.addr = alloca %"class.std::set"*, align 8
  %__x.addr = alloca i32*, align 8
  %__p = alloca %"struct.std::pair.23", align 8
  store %"class.std::set"* %this, %"class.std::set"** %this.addr, align 8
  call void @llvm.dbg.declare(metadata %"class.std::set"** %this.addr, metadata !4261, metadata !DIExpression()), !dbg !4262
  store i32* %__x, i32** %__x.addr, align 8
  call void @llvm.dbg.declare(metadata i32** %__x.addr, metadata !4263, metadata !DIExpression()), !dbg !4264
  %this1 = load %"class.std::set"*, %"class.std::set"** %this.addr, align 8
  call void @llvm.dbg.declare(metadata %"struct.std::pair.23"* %__p, metadata !4265, metadata !DIExpression()), !dbg !4315
  %_M_t = getelementptr inbounds %"class.std::set", %"class.std::set"* %this1, i32 0, i32 0, !dbg !4316
  %0 = load i32*, i32** %__x.addr, align 8, !dbg !4317
  %call = call { %"struct.std::_Rb_tree_node_base"*, i8 } @_ZNSt8_Rb_treeIiiSt9_IdentityIiESt4lessIiESaIiEE16_M_insert_uniqueIRKiEESt4pairISt17_Rb_tree_iteratorIiEbEOT_(%"class.std::_Rb_tree"* %_M_t, i32* nonnull align 4 dereferenceable(4) %0), !dbg !4318
  %1 = bitcast %"struct.std::pair.23"* %__p to { %"struct.std::_Rb_tree_node_base"*, i8 }*, !dbg !4318
  %2 = getelementptr inbounds { %"struct.std::_Rb_tree_node_base"*, i8 }, { %"struct.std::_Rb_tree_node_base"*, i8 }* %1, i32 0, i32 0, !dbg !4318
  %3 = extractvalue { %"struct.std::_Rb_tree_node_base"*, i8 } %call, 0, !dbg !4318
  store %"struct.std::_Rb_tree_node_base"* %3, %"struct.std::_Rb_tree_node_base"** %2, align 8, !dbg !4318
  %4 = getelementptr inbounds { %"struct.std::_Rb_tree_node_base"*, i8 }, { %"struct.std::_Rb_tree_node_base"*, i8 }* %1, i32 0, i32 1, !dbg !4318
  %5 = extractvalue { %"struct.std::_Rb_tree_node_base"*, i8 } %call, 1, !dbg !4318
  store i8 %5, i8* %4, align 8, !dbg !4318
  %first = getelementptr inbounds %"struct.std::pair.23", %"struct.std::pair.23"* %__p, i32 0, i32 0, !dbg !4319
  %second = getelementptr inbounds %"struct.std::pair.23", %"struct.std::pair.23"* %__p, i32 0, i32 1, !dbg !4320
  call void @_ZNSt4pairISt23_Rb_tree_const_iteratorIiEbEC2IRSt17_Rb_tree_iteratorIiERbLb1EEEOT_OT0_(%"struct.std::pair"* %retval, %"struct.std::_Rb_tree_iterator"* nonnull align 8 dereferenceable(8) %first, i8* nonnull align 1 dereferenceable(1) %second), !dbg !4321
  %6 = bitcast %"struct.std::pair"* %retval to { %"struct.std::_Rb_tree_node_base"*, i8 }*, !dbg !4322
  %7 = load { %"struct.std::_Rb_tree_node_base"*, i8 }, { %"struct.std::_Rb_tree_node_base"*, i8 }* %6, align 8, !dbg !4322
  ret { %"struct.std::_Rb_tree_node_base"*, i8 } %7, !dbg !4322
}

declare i32 @__gxx_personality_v0(...)

; Function Attrs: noinline nounwind optnone uwtable
define linkonce_odr i64 @_ZNKSt3setIiSt4lessIiESaIiEE4sizeEv(%"class.std::set"* %this) #5 comdat align 2 !dbg !4323 {
entry:
  %this.addr = alloca %"class.std::set"*, align 8
  store %"class.std::set"* %this, %"class.std::set"** %this.addr, align 8
  call void @llvm.dbg.declare(metadata %"class.std::set"** %this.addr, metadata !4324, metadata !DIExpression()), !dbg !4326
  %this1 = load %"class.std::set"*, %"class.std::set"** %this.addr, align 8
  %_M_t = getelementptr inbounds %"class.std::set", %"class.std::set"* %this1, i32 0, i32 0, !dbg !4327
  %call = call i64 @_ZNKSt8_Rb_treeIiiSt9_IdentityIiESt4lessIiESaIiEE4sizeEv(%"class.std::_Rb_tree"* %_M_t) #12, !dbg !4328
  ret i64 %call, !dbg !4329
}

; Function Attrs: noinline optnone uwtable
define internal void @_ZL6verifyiiPKiS0_Pii(i32 %v, i32 %id, i32* noalias %nidx, i32* noalias %nlist, i32* noalias %nstat, i32 %nodes) #0 !dbg !4330 {
entry:
  call void @__dp_func_entry(i32 32816, i32 0), !dp.md.instr.id !4337
  %__dp_bb = alloca i32, align 4
  store i32 0, i32* %__dp_bb, align 4
  %v.addr = alloca i32, align 4, !dp.md.instr.id !4338
  %0 = ptrtoint i32* %v.addr to i64, !dp.md.instr.id !4339
  %id.addr = alloca i32, align 4, !dp.md.instr.id !4340
  %1 = ptrtoint i32* %id.addr to i64, !dp.md.instr.id !4341
  %nidx.addr = alloca i32*, align 8, !dp.md.instr.id !4342
  %2 = ptrtoint i32** %nidx.addr to i64, !dp.md.instr.id !4343
  %nlist.addr = alloca i32*, align 8, !dp.md.instr.id !4344
  %3 = ptrtoint i32** %nlist.addr to i64, !dp.md.instr.id !4345
  %nstat.addr = alloca i32*, align 8, !dp.md.instr.id !4346
  %4 = ptrtoint i32** %nstat.addr to i64, !dp.md.instr.id !4347
  %nodes.addr = alloca i32, align 4, !dp.md.instr.id !4348
  %5 = ptrtoint i32* %nodes.addr to i64, !dp.md.instr.id !4349
  %i = alloca i32, align 4, !dp.md.instr.id !4350
  %6 = ptrtoint i32* %i to i64, !dp.md.instr.id !4351
  %7 = ptrtoint i32* %v.addr to i64
  store i32 %v, i32* %v.addr, align 4, !dp.md.instr.id !4352
  call void @llvm.dbg.declare(metadata i32* %v.addr, metadata !4353, metadata !DIExpression()), !dbg !4354, !dp.md.instr.id !4355
  %8 = ptrtoint i32* %id.addr to i64
  store i32 %id, i32* %id.addr, align 4, !dp.md.instr.id !4356
  call void @llvm.dbg.declare(metadata i32* %id.addr, metadata !4357, metadata !DIExpression()), !dbg !4358, !dp.md.instr.id !4359
  %9 = ptrtoint i32** %nidx.addr to i64
  store i32* %nidx, i32** %nidx.addr, align 8, !dp.md.instr.id !4360
  call void @llvm.dbg.declare(metadata i32** %nidx.addr, metadata !4361, metadata !DIExpression()), !dbg !4362, !dp.md.instr.id !4363
  %10 = ptrtoint i32** %nlist.addr to i64
  store i32* %nlist, i32** %nlist.addr, align 8, !dp.md.instr.id !4364
  call void @llvm.dbg.declare(metadata i32** %nlist.addr, metadata !4365, metadata !DIExpression()), !dbg !4366, !dp.md.instr.id !4367
  %11 = ptrtoint i32** %nstat.addr to i64
  store i32* %nstat, i32** %nstat.addr, align 8, !dp.md.instr.id !4368
  call void @llvm.dbg.declare(metadata i32** %nstat.addr, metadata !4369, metadata !DIExpression()), !dbg !4370, !dp.md.instr.id !4371
  %12 = ptrtoint i32* %nodes.addr to i64
  store i32 %nodes, i32* %nodes.addr, align 4, !dp.md.instr.id !4372
  call void @llvm.dbg.declare(metadata i32* %nodes.addr, metadata !4373, metadata !DIExpression()), !dbg !4374, !dp.md.instr.id !4375
  %13 = ptrtoint i32** %nstat.addr to i64
  %14 = load i32*, i32** %nstat.addr, align 8, !dbg !4376, !dp.md.instr.id !4378
  %15 = ptrtoint i32* %v.addr to i64
  %16 = load i32, i32* %v.addr, align 4, !dbg !4379, !dp.md.instr.id !4380
  %idxprom = sext i32 %16 to i64, !dbg !4376, !dp.md.instr.id !4381
  %arrayidx = getelementptr inbounds i32, i32* %14, i64 %idxprom, !dbg !4376, !dp.md.instr.id !4382
  %17 = ptrtoint i32* %arrayidx to i64
  call void @__dp_read(i32 1157, i64 %17, i8* getelementptr inbounds ([16 x i8], [16 x i8]* @.str.144, i32 0, i32 0))
  %18 = load i32, i32* %arrayidx, align 4, !dbg !4376, !dp.md.instr.id !4383
  %19 = ptrtoint i32* %nodes.addr to i64
  %20 = load i32, i32* %nodes.addr, align 4, !dbg !4384, !dp.md.instr.id !4385
  %cmp = icmp slt i32 %18, %20, !dbg !4386, !dp.md.instr.id !4387
  call void @__dp_report_bb(i32 126)
  br i1 %cmp, label %if.then, label %if.end14, !dbg !4388, !dp.md.instr.id !4389

if.then:                                          ; preds = %entry
  %21 = ptrtoint i32** %nstat.addr to i64
  %22 = load i32*, i32** %nstat.addr, align 8, !dbg !4390, !dp.md.instr.id !4393
  %23 = ptrtoint i32* %v.addr to i64
  %24 = load i32, i32* %v.addr, align 4, !dbg !4394, !dp.md.instr.id !4395
  %idxprom1 = sext i32 %24 to i64, !dbg !4390, !dp.md.instr.id !4396
  %arrayidx2 = getelementptr inbounds i32, i32* %22, i64 %idxprom1, !dbg !4390, !dp.md.instr.id !4397
  %25 = ptrtoint i32* %arrayidx2 to i64
  call void @__dp_read(i32 1165, i64 %25, i8* getelementptr inbounds ([16 x i8], [16 x i8]* @.str.144, i32 0, i32 0))
  %26 = load i32, i32* %arrayidx2, align 4, !dbg !4390, !dp.md.instr.id !4398
  %27 = ptrtoint i32* %id.addr to i64
  %28 = load i32, i32* %id.addr, align 4, !dbg !4399, !dp.md.instr.id !4400
  %cmp3 = icmp ne i32 %26, %28, !dbg !4401, !dp.md.instr.id !4402
  call void @__dp_report_bb(i32 127)
  br i1 %cmp3, label %if.then4, label %if.end, !dbg !4403, !dp.md.instr.id !4404

if.then4:                                         ; preds = %if.then
  %29 = ptrtoint %struct._IO_FILE** @stderr to i64
  call void @__dp_read(i32 1169, i64 %29, i8* getelementptr inbounds ([7 x i8], [7 x i8]* @.str.38, i32 0, i32 0))
  %30 = load %struct._IO_FILE*, %struct._IO_FILE** @stderr, align 8, !dbg !4405, !dp.md.instr.id !4407
  call void @__dp_call(i32 32819), !dbg !4408
  %call = call i32 (%struct._IO_FILE*, i8*, ...) @fprintf(%struct._IO_FILE* %30, i8* getelementptr inbounds ([34 x i8], [34 x i8]* @.str.33, i64 0, i64 0)), !dbg !4408, !dp.md.instr.id !4409
  call void @__dp_finalize(i32 32819), !dbg !4410
  call void @exit(i32 -1) #14, !dbg !4410, !dp.md.instr.id !4411
  unreachable, !dbg !4410, !dp.md.instr.id !4412

if.end:                                           ; preds = %if.then
  %31 = ptrtoint i32* %nodes.addr to i64
  %32 = load i32, i32* %nodes.addr, align 4, !dbg !4413, !dp.md.instr.id !4414
  %33 = ptrtoint i32** %nstat.addr to i64
  %34 = load i32*, i32** %nstat.addr, align 8, !dbg !4415, !dp.md.instr.id !4416
  %35 = ptrtoint i32* %v.addr to i64
  %36 = load i32, i32* %v.addr, align 4, !dbg !4417, !dp.md.instr.id !4418
  %idxprom5 = sext i32 %36 to i64, !dbg !4415, !dp.md.instr.id !4419
  %arrayidx6 = getelementptr inbounds i32, i32* %34, i64 %idxprom5, !dbg !4415, !dp.md.instr.id !4420
  %37 = ptrtoint i32* %arrayidx6 to i64
  call void @__dp_write(i32 1178, i64 %37, i8* getelementptr inbounds ([16 x i8], [16 x i8]* @.str.144, i32 0, i32 0))
  store i32 %32, i32* %arrayidx6, align 4, !dbg !4421, !dp.md.instr.id !4422
  call void @llvm.dbg.declare(metadata i32* %i, metadata !4423, metadata !DIExpression()), !dbg !4425, !dp.md.instr.id !4426
  %38 = ptrtoint i32** %nidx.addr to i64
  %39 = load i32*, i32** %nidx.addr, align 8, !dbg !4427, !dp.md.instr.id !4428
  %40 = ptrtoint i32* %v.addr to i64
  %41 = load i32, i32* %v.addr, align 4, !dbg !4429, !dp.md.instr.id !4430
  %idxprom7 = sext i32 %41 to i64, !dbg !4427, !dp.md.instr.id !4431
  %arrayidx8 = getelementptr inbounds i32, i32* %39, i64 %idxprom7, !dbg !4427, !dp.md.instr.id !4432
  %42 = ptrtoint i32* %arrayidx8 to i64
  call void @__dp_read(i32 1184, i64 %42, i8* getelementptr inbounds ([15 x i8], [15 x i8]* @.str.145, i32 0, i32 0))
  %43 = load i32, i32* %arrayidx8, align 4, !dbg !4427, !dp.md.instr.id !4433
  %44 = ptrtoint i32* %i to i64
  store i32 %43, i32* %i, align 4, !dbg !4425, !dp.md.instr.id !4434
  call void @__dp_report_bb(i32 128)
  br label %for.cond, !dbg !4435, !dp.md.instr.id !4436

for.cond:                                         ; preds = %for.inc, %if.end
  call void @__dp_loop_entry(i32 32821, i32 9), !dp.md.instr.id !4437
  %45 = ptrtoint i32* %i to i64
  %46 = load i32, i32* %i, align 4, !dbg !4438, !dp.md.instr.id !4440
  %47 = ptrtoint i32** %nidx.addr to i64
  %48 = load i32*, i32** %nidx.addr, align 8, !dbg !4441, !dp.md.instr.id !4442
  %49 = ptrtoint i32* %v.addr to i64
  %50 = load i32, i32* %v.addr, align 4, !dbg !4443, !dp.md.instr.id !4444
  %add = add nsw i32 %50, 1, !dbg !4445, !dp.md.instr.id !4446
  %idxprom9 = sext i32 %add to i64, !dbg !4441, !dp.md.instr.id !4447
  %arrayidx10 = getelementptr inbounds i32, i32* %48, i64 %idxprom9, !dbg !4441, !dp.md.instr.id !4448
  %51 = ptrtoint i32* %arrayidx10 to i64
  call void @__dp_read(i32 1194, i64 %51, i8* getelementptr inbounds ([15 x i8], [15 x i8]* @.str.145, i32 0, i32 0))
  %52 = load i32, i32* %arrayidx10, align 4, !dbg !4441, !dp.md.instr.id !4449
  %cmp11 = icmp slt i32 %46, %52, !dbg !4450, !dp.md.instr.id !4451
  call void @__dp_report_bb(i32 129)
  %53 = load i32, i32* %__dp_bb, align 4
  call void @__dp_report_bb_pair(i32 %53, i32 132)
  br i1 %cmp11, label %for.body, label %for.end, !dbg !4452, !dp.md.instr.id !4453

for.body:                                         ; preds = %for.cond
  call void @__dp_loop_incr(i32 10)
  %54 = ptrtoint i32** %nlist.addr to i64
  %55 = load i32*, i32** %nlist.addr, align 8, !dbg !4454, !dp.md.instr.id !4456
  %56 = ptrtoint i32* %i to i64
  %57 = load i32, i32* %i, align 4, !dbg !4457, !dp.md.instr.id !4458
  %idxprom12 = sext i32 %57 to i64, !dbg !4454, !dp.md.instr.id !4459
  %arrayidx13 = getelementptr inbounds i32, i32* %55, i64 %idxprom12, !dbg !4454, !dp.md.instr.id !4460
  %58 = ptrtoint i32* %arrayidx13 to i64
  call void @__dp_read(i32 1201, i64 %58, i8* getelementptr inbounds ([16 x i8], [16 x i8]* @.str.146, i32 0, i32 0))
  %59 = load i32, i32* %arrayidx13, align 4, !dbg !4454, !dp.md.instr.id !4461
  %60 = ptrtoint i32* %id.addr to i64
  %61 = load i32, i32* %id.addr, align 4, !dbg !4462, !dp.md.instr.id !4463
  %62 = ptrtoint i32** %nidx.addr to i64
  %63 = load i32*, i32** %nidx.addr, align 8, !dbg !4464, !dp.md.instr.id !4465
  %64 = ptrtoint i32** %nlist.addr to i64
  %65 = load i32*, i32** %nlist.addr, align 8, !dbg !4466, !dp.md.instr.id !4467
  %66 = ptrtoint i32** %nstat.addr to i64
  %67 = load i32*, i32** %nstat.addr, align 8, !dbg !4468, !dp.md.instr.id !4469
  %68 = ptrtoint i32* %nodes.addr to i64
  %69 = load i32, i32* %nodes.addr, align 4, !dbg !4470, !dp.md.instr.id !4471
  call void @__dp_call(i32 32822), !dbg !4472
  call void @_ZL6verifyiiPKiS0_Pii(i32 %59, i32 %61, i32* %63, i32* %65, i32* %67, i32 %69), !dbg !4472, !dp.md.instr.id !4473
  call void @__dp_report_bb(i32 131)
  %70 = load i32, i32* %__dp_bb, align 4
  call void @__dp_report_bb_pair(i32 %70, i32 134)
  br label %for.inc, !dbg !4474, !dp.md.instr.id !4475

for.inc:                                          ; preds = %for.body
  %71 = ptrtoint i32* %i to i64
  %72 = load i32, i32* %i, align 4, !dbg !4476, !dp.md.instr.id !4477
  %inc = add nsw i32 %72, 1, !dbg !4476, !dp.md.instr.id !4478
  %73 = ptrtoint i32* %i to i64
  store i32 %inc, i32* %i, align 4, !dbg !4476, !dp.md.instr.id !4479
  call void @__dp_report_bb(i32 130)
  %74 = load i32, i32* %__dp_bb, align 4
  call void @__dp_report_bb_pair(i32 %74, i32 133)
  store i32 1, i32* %__dp_bb, align 4
  br label %for.cond, !dbg !4480, !llvm.loop !4481, !dp.md.instr.id !4483

for.end:                                          ; preds = %for.cond
  call void @__dp_loop_exit(i32 32824, i32 9), !dp.md.instr.id !4484
  br label %if.end14, !dbg !4485, !dp.md.instr.id !4486

if.end14:                                         ; preds = %for.end, %entry
  call void @__dp_func_exit(i32 32825, i32 0), !dbg !4487
  ret void, !dbg !4487, !dp.md.instr.id !4488
}

; Function Attrs: noinline nounwind optnone uwtable
define linkonce_odr void @_ZNSt3setIiSt4lessIiESaIiEED2Ev(%"class.std::set"* %this) unnamed_addr #5 comdat align 2 !dbg !4489 {
entry:
  %this.addr = alloca %"class.std::set"*, align 8
  store %"class.std::set"* %this, %"class.std::set"** %this.addr, align 8
  call void @llvm.dbg.declare(metadata %"class.std::set"** %this.addr, metadata !4490, metadata !DIExpression()), !dbg !4491
  %this1 = load %"class.std::set"*, %"class.std::set"** %this.addr, align 8
  %_M_t = getelementptr inbounds %"class.std::set", %"class.std::set"* %this1, i32 0, i32 0, !dbg !4492
  call void @_ZNSt8_Rb_treeIiiSt9_IdentityIiESt4lessIiESaIiEED2Ev(%"class.std::_Rb_tree"* %_M_t) #12, !dbg !4492
  ret void, !dbg !4494
}

; Function Attrs: nobuiltin nounwind
declare void @_ZdaPv(i8*) #10

; Function Attrs: noinline optnone uwtable
define linkonce_odr void @_ZSt4sortIPdEvT_S1_(double* %__first, double* %__last) #0 comdat !dbg !4495 {
entry:
  %__first.addr = alloca double*, align 8
  %__last.addr = alloca double*, align 8
  %agg.tmp = alloca %"struct.__gnu_cxx::__ops::_Iter_less_iter", align 1
  %undef.agg.tmp = alloca %"struct.__gnu_cxx::__ops::_Iter_less_iter", align 1
  store double* %__first, double** %__first.addr, align 8
  call void @llvm.dbg.declare(metadata double** %__first.addr, metadata !4499, metadata !DIExpression()), !dbg !4500
  store double* %__last, double** %__last.addr, align 8
  call void @llvm.dbg.declare(metadata double** %__last.addr, metadata !4501, metadata !DIExpression()), !dbg !4502
  %0 = load double*, double** %__first.addr, align 8, !dbg !4503
  %1 = load double*, double** %__last.addr, align 8, !dbg !4504
  call void @_ZN9__gnu_cxx5__ops16__iter_less_iterEv(), !dbg !4505
  call void @_ZSt6__sortIPdN9__gnu_cxx5__ops15_Iter_less_iterEEvT_S4_T0_(double* %0, double* %1), !dbg !4506
  ret void, !dbg !4507
}

; Function Attrs: noinline optnone uwtable
define linkonce_odr void @_ZSt6__sortIPdN9__gnu_cxx5__ops15_Iter_less_iterEEvT_S4_T0_(double* %__first, double* %__last) #0 comdat !dbg !4508 {
entry:
  %__comp = alloca %"struct.__gnu_cxx::__ops::_Iter_less_iter", align 1
  %__first.addr = alloca double*, align 8
  %__last.addr = alloca double*, align 8
  %agg.tmp = alloca %"struct.__gnu_cxx::__ops::_Iter_less_iter", align 1
  %agg.tmp1 = alloca %"struct.__gnu_cxx::__ops::_Iter_less_iter", align 1
  store double* %__first, double** %__first.addr, align 8
  call void @llvm.dbg.declare(metadata double** %__first.addr, metadata !4511, metadata !DIExpression()), !dbg !4512
  store double* %__last, double** %__last.addr, align 8
  call void @llvm.dbg.declare(metadata double** %__last.addr, metadata !4513, metadata !DIExpression()), !dbg !4514
  call void @llvm.dbg.declare(metadata %"struct.__gnu_cxx::__ops::_Iter_less_iter"* %__comp, metadata !4515, metadata !DIExpression()), !dbg !4516
  %0 = load double*, double** %__first.addr, align 8, !dbg !4517
  %1 = load double*, double** %__last.addr, align 8, !dbg !4519
  %cmp = icmp ne double* %0, %1, !dbg !4520
  br i1 %cmp, label %if.then, label %if.end, !dbg !4521

if.then:                                          ; preds = %entry
  %2 = load double*, double** %__first.addr, align 8, !dbg !4522
  %3 = load double*, double** %__last.addr, align 8, !dbg !4524
  %4 = load double*, double** %__last.addr, align 8, !dbg !4525
  %5 = load double*, double** %__first.addr, align 8, !dbg !4526
  %sub.ptr.lhs.cast = ptrtoint double* %4 to i64, !dbg !4527
  %sub.ptr.rhs.cast = ptrtoint double* %5 to i64, !dbg !4527
  %sub.ptr.sub = sub i64 %sub.ptr.lhs.cast, %sub.ptr.rhs.cast, !dbg !4527
  %sub.ptr.div = sdiv exact i64 %sub.ptr.sub, 8, !dbg !4527
  %call = call i64 @_ZSt4__lgl(i64 %sub.ptr.div), !dbg !4528
  %mul = mul nsw i64 %call, 2, !dbg !4529
  call void @_ZSt16__introsort_loopIPdlN9__gnu_cxx5__ops15_Iter_less_iterEEvT_S4_T0_T1_(double* %2, double* %3, i64 %mul), !dbg !4530
  %6 = load double*, double** %__first.addr, align 8, !dbg !4531
  %7 = load double*, double** %__last.addr, align 8, !dbg !4532
  call void @_ZSt22__final_insertion_sortIPdN9__gnu_cxx5__ops15_Iter_less_iterEEvT_S4_T0_(double* %6, double* %7), !dbg !4533
  br label %if.end, !dbg !4534

if.end:                                           ; preds = %if.then, %entry
  ret void, !dbg !4535
}

; Function Attrs: noinline nounwind optnone uwtable
define linkonce_odr void @_ZN9__gnu_cxx5__ops16__iter_less_iterEv() #5 comdat !dbg !4536 {
entry:
  ret void, !dbg !4539
}

; Function Attrs: noinline optnone uwtable
define linkonce_odr void @_ZSt16__introsort_loopIPdlN9__gnu_cxx5__ops15_Iter_less_iterEEvT_S4_T0_T1_(double* %__first, double* %__last, i64 %__depth_limit) #0 comdat !dbg !4540 {
entry:
  %__comp = alloca %"struct.__gnu_cxx::__ops::_Iter_less_iter", align 1
  %__first.addr = alloca double*, align 8
  %__last.addr = alloca double*, align 8
  %__depth_limit.addr = alloca i64, align 8
  %agg.tmp = alloca %"struct.__gnu_cxx::__ops::_Iter_less_iter", align 1
  %__cut = alloca double*, align 8
  %agg.tmp2 = alloca %"struct.__gnu_cxx::__ops::_Iter_less_iter", align 1
  %agg.tmp3 = alloca %"struct.__gnu_cxx::__ops::_Iter_less_iter", align 1
  store double* %__first, double** %__first.addr, align 8
  call void @llvm.dbg.declare(metadata double** %__first.addr, metadata !4545, metadata !DIExpression()), !dbg !4546
  store double* %__last, double** %__last.addr, align 8
  call void @llvm.dbg.declare(metadata double** %__last.addr, metadata !4547, metadata !DIExpression()), !dbg !4548
  store i64 %__depth_limit, i64* %__depth_limit.addr, align 8
  call void @llvm.dbg.declare(metadata i64* %__depth_limit.addr, metadata !4549, metadata !DIExpression()), !dbg !4550
  call void @llvm.dbg.declare(metadata %"struct.__gnu_cxx::__ops::_Iter_less_iter"* %__comp, metadata !4551, metadata !DIExpression()), !dbg !4552
  br label %while.cond, !dbg !4553

while.cond:                                       ; preds = %if.end, %entry
  %0 = load double*, double** %__last.addr, align 8, !dbg !4554
  %1 = load double*, double** %__first.addr, align 8, !dbg !4555
  %sub.ptr.lhs.cast = ptrtoint double* %0 to i64, !dbg !4556
  %sub.ptr.rhs.cast = ptrtoint double* %1 to i64, !dbg !4556
  %sub.ptr.sub = sub i64 %sub.ptr.lhs.cast, %sub.ptr.rhs.cast, !dbg !4556
  %sub.ptr.div = sdiv exact i64 %sub.ptr.sub, 8, !dbg !4556
  %cmp = icmp sgt i64 %sub.ptr.div, 16, !dbg !4557
  br i1 %cmp, label %while.body, label %while.end, !dbg !4553

while.body:                                       ; preds = %while.cond
  %2 = load i64, i64* %__depth_limit.addr, align 8, !dbg !4558
  %cmp1 = icmp eq i64 %2, 0, !dbg !4561
  br i1 %cmp1, label %if.then, label %if.end, !dbg !4562

if.then:                                          ; preds = %while.body
  %3 = load double*, double** %__first.addr, align 8, !dbg !4563
  %4 = load double*, double** %__last.addr, align 8, !dbg !4565
  %5 = load double*, double** %__last.addr, align 8, !dbg !4566
  call void @_ZSt14__partial_sortIPdN9__gnu_cxx5__ops15_Iter_less_iterEEvT_S4_S4_T0_(double* %3, double* %4, double* %5), !dbg !4567
  br label %while.end, !dbg !4568

if.end:                                           ; preds = %while.body
  %6 = load i64, i64* %__depth_limit.addr, align 8, !dbg !4569
  %dec = add nsw i64 %6, -1, !dbg !4569
  store i64 %dec, i64* %__depth_limit.addr, align 8, !dbg !4569
  call void @llvm.dbg.declare(metadata double** %__cut, metadata !4570, metadata !DIExpression()), !dbg !4571
  %7 = load double*, double** %__first.addr, align 8, !dbg !4572
  %8 = load double*, double** %__last.addr, align 8, !dbg !4573
  %call = call double* @_ZSt27__unguarded_partition_pivotIPdN9__gnu_cxx5__ops15_Iter_less_iterEET_S4_S4_T0_(double* %7, double* %8), !dbg !4574
  store double* %call, double** %__cut, align 8, !dbg !4571
  %9 = load double*, double** %__cut, align 8, !dbg !4575
  %10 = load double*, double** %__last.addr, align 8, !dbg !4576
  %11 = load i64, i64* %__depth_limit.addr, align 8, !dbg !4577
  call void @_ZSt16__introsort_loopIPdlN9__gnu_cxx5__ops15_Iter_less_iterEEvT_S4_T0_T1_(double* %9, double* %10, i64 %11), !dbg !4578
  %12 = load double*, double** %__cut, align 8, !dbg !4579
  store double* %12, double** %__last.addr, align 8, !dbg !4580
  br label %while.cond, !dbg !4553, !llvm.loop !4581

while.end:                                        ; preds = %if.then, %while.cond
  ret void, !dbg !4583
}

; Function Attrs: noinline nounwind optnone uwtable
define linkonce_odr i64 @_ZSt4__lgl(i64 %__n) #5 comdat !dbg !4584 {
entry:
  %__n.addr = alloca i64, align 8
  store i64 %__n, i64* %__n.addr, align 8
  call void @llvm.dbg.declare(metadata i64* %__n.addr, metadata !4586, metadata !DIExpression()), !dbg !4587
  %0 = load i64, i64* %__n.addr, align 8, !dbg !4588
  %1 = call i64 @llvm.ctlz.i64(i64 %0, i1 true), !dbg !4589
  %cast = trunc i64 %1 to i32, !dbg !4589
  %sub = sub nsw i32 63, %cast, !dbg !4590
  %conv = sext i32 %sub to i64, !dbg !4591
  ret i64 %conv, !dbg !4592
}

; Function Attrs: noinline optnone uwtable
define linkonce_odr void @_ZSt22__final_insertion_sortIPdN9__gnu_cxx5__ops15_Iter_less_iterEEvT_S4_T0_(double* %__first, double* %__last) #0 comdat !dbg !4593 {
entry:
  %__comp = alloca %"struct.__gnu_cxx::__ops::_Iter_less_iter", align 1
  %__first.addr = alloca double*, align 8
  %__last.addr = alloca double*, align 8
  %agg.tmp = alloca %"struct.__gnu_cxx::__ops::_Iter_less_iter", align 1
  %agg.tmp2 = alloca %"struct.__gnu_cxx::__ops::_Iter_less_iter", align 1
  %agg.tmp3 = alloca %"struct.__gnu_cxx::__ops::_Iter_less_iter", align 1
  store double* %__first, double** %__first.addr, align 8
  call void @llvm.dbg.declare(metadata double** %__first.addr, metadata !4594, metadata !DIExpression()), !dbg !4595
  store double* %__last, double** %__last.addr, align 8
  call void @llvm.dbg.declare(metadata double** %__last.addr, metadata !4596, metadata !DIExpression()), !dbg !4597
  call void @llvm.dbg.declare(metadata %"struct.__gnu_cxx::__ops::_Iter_less_iter"* %__comp, metadata !4598, metadata !DIExpression()), !dbg !4599
  %0 = load double*, double** %__last.addr, align 8, !dbg !4600
  %1 = load double*, double** %__first.addr, align 8, !dbg !4602
  %sub.ptr.lhs.cast = ptrtoint double* %0 to i64, !dbg !4603
  %sub.ptr.rhs.cast = ptrtoint double* %1 to i64, !dbg !4603
  %sub.ptr.sub = sub i64 %sub.ptr.lhs.cast, %sub.ptr.rhs.cast, !dbg !4603
  %sub.ptr.div = sdiv exact i64 %sub.ptr.sub, 8, !dbg !4603
  %cmp = icmp sgt i64 %sub.ptr.div, 16, !dbg !4604
  br i1 %cmp, label %if.then, label %if.else, !dbg !4605

if.then:                                          ; preds = %entry
  %2 = load double*, double** %__first.addr, align 8, !dbg !4606
  %3 = load double*, double** %__first.addr, align 8, !dbg !4608
  %add.ptr = getelementptr inbounds double, double* %3, i64 16, !dbg !4609
  call void @_ZSt16__insertion_sortIPdN9__gnu_cxx5__ops15_Iter_less_iterEEvT_S4_T0_(double* %2, double* %add.ptr), !dbg !4610
  %4 = load double*, double** %__first.addr, align 8, !dbg !4611
  %add.ptr1 = getelementptr inbounds double, double* %4, i64 16, !dbg !4612
  %5 = load double*, double** %__last.addr, align 8, !dbg !4613
  call void @_ZSt26__unguarded_insertion_sortIPdN9__gnu_cxx5__ops15_Iter_less_iterEEvT_S4_T0_(double* %add.ptr1, double* %5), !dbg !4614
  br label %if.end, !dbg !4615

if.else:                                          ; preds = %entry
  %6 = load double*, double** %__first.addr, align 8, !dbg !4616
  %7 = load double*, double** %__last.addr, align 8, !dbg !4617
  call void @_ZSt16__insertion_sortIPdN9__gnu_cxx5__ops15_Iter_less_iterEEvT_S4_T0_(double* %6, double* %7), !dbg !4618
  br label %if.end

if.end:                                           ; preds = %if.else, %if.then
  ret void, !dbg !4619
}

; Function Attrs: noinline optnone uwtable
define linkonce_odr void @_ZSt14__partial_sortIPdN9__gnu_cxx5__ops15_Iter_less_iterEEvT_S4_S4_T0_(double* %__first, double* %__middle, double* %__last) #0 comdat !dbg !4620 {
entry:
  %__comp = alloca %"struct.__gnu_cxx::__ops::_Iter_less_iter", align 1
  %__first.addr = alloca double*, align 8
  %__middle.addr = alloca double*, align 8
  %__last.addr = alloca double*, align 8
  %agg.tmp = alloca %"struct.__gnu_cxx::__ops::_Iter_less_iter", align 1
  store double* %__first, double** %__first.addr, align 8
  call void @llvm.dbg.declare(metadata double** %__first.addr, metadata !4623, metadata !DIExpression()), !dbg !4624
  store double* %__middle, double** %__middle.addr, align 8
  call void @llvm.dbg.declare(metadata double** %__middle.addr, metadata !4625, metadata !DIExpression()), !dbg !4626
  store double* %__last, double** %__last.addr, align 8
  call void @llvm.dbg.declare(metadata double** %__last.addr, metadata !4627, metadata !DIExpression()), !dbg !4628
  call void @llvm.dbg.declare(metadata %"struct.__gnu_cxx::__ops::_Iter_less_iter"* %__comp, metadata !4629, metadata !DIExpression()), !dbg !4630
  %0 = load double*, double** %__first.addr, align 8, !dbg !4631
  %1 = load double*, double** %__middle.addr, align 8, !dbg !4632
  %2 = load double*, double** %__last.addr, align 8, !dbg !4633
  call void @_ZSt13__heap_selectIPdN9__gnu_cxx5__ops15_Iter_less_iterEEvT_S4_S4_T0_(double* %0, double* %1, double* %2), !dbg !4634
  %3 = load double*, double** %__first.addr, align 8, !dbg !4635
  %4 = load double*, double** %__middle.addr, align 8, !dbg !4636
  call void @_ZSt11__sort_heapIPdN9__gnu_cxx5__ops15_Iter_less_iterEEvT_S4_RT0_(double* %3, double* %4, %"struct.__gnu_cxx::__ops::_Iter_less_iter"* nonnull align 1 dereferenceable(1) %__comp), !dbg !4637
  ret void, !dbg !4638
}

; Function Attrs: noinline optnone uwtable
define linkonce_odr double* @_ZSt27__unguarded_partition_pivotIPdN9__gnu_cxx5__ops15_Iter_less_iterEET_S4_S4_T0_(double* %__first, double* %__last) #0 comdat !dbg !4639 {
entry:
  %__comp = alloca %"struct.__gnu_cxx::__ops::_Iter_less_iter", align 1
  %__first.addr = alloca double*, align 8
  %__last.addr = alloca double*, align 8
  %__mid = alloca double*, align 8
  %agg.tmp = alloca %"struct.__gnu_cxx::__ops::_Iter_less_iter", align 1
  %agg.tmp4 = alloca %"struct.__gnu_cxx::__ops::_Iter_less_iter", align 1
  store double* %__first, double** %__first.addr, align 8
  call void @llvm.dbg.declare(metadata double** %__first.addr, metadata !4642, metadata !DIExpression()), !dbg !4643
  store double* %__last, double** %__last.addr, align 8
  call void @llvm.dbg.declare(metadata double** %__last.addr, metadata !4644, metadata !DIExpression()), !dbg !4645
  call void @llvm.dbg.declare(metadata %"struct.__gnu_cxx::__ops::_Iter_less_iter"* %__comp, metadata !4646, metadata !DIExpression()), !dbg !4647
  call void @llvm.dbg.declare(metadata double** %__mid, metadata !4648, metadata !DIExpression()), !dbg !4649
  %0 = load double*, double** %__first.addr, align 8, !dbg !4650
  %1 = load double*, double** %__last.addr, align 8, !dbg !4651
  %2 = load double*, double** %__first.addr, align 8, !dbg !4652
  %sub.ptr.lhs.cast = ptrtoint double* %1 to i64, !dbg !4653
  %sub.ptr.rhs.cast = ptrtoint double* %2 to i64, !dbg !4653
  %sub.ptr.sub = sub i64 %sub.ptr.lhs.cast, %sub.ptr.rhs.cast, !dbg !4653
  %sub.ptr.div = sdiv exact i64 %sub.ptr.sub, 8, !dbg !4653
  %div = sdiv i64 %sub.ptr.div, 2, !dbg !4654
  %add.ptr = getelementptr inbounds double, double* %0, i64 %div, !dbg !4655
  store double* %add.ptr, double** %__mid, align 8, !dbg !4649
  %3 = load double*, double** %__first.addr, align 8, !dbg !4656
  %4 = load double*, double** %__first.addr, align 8, !dbg !4657
  %add.ptr1 = getelementptr inbounds double, double* %4, i64 1, !dbg !4658
  %5 = load double*, double** %__mid, align 8, !dbg !4659
  %6 = load double*, double** %__last.addr, align 8, !dbg !4660
  %add.ptr2 = getelementptr inbounds double, double* %6, i64 -1, !dbg !4661
  call void @_ZSt22__move_median_to_firstIPdN9__gnu_cxx5__ops15_Iter_less_iterEEvT_S4_S4_S4_T0_(double* %3, double* %add.ptr1, double* %5, double* %add.ptr2), !dbg !4662
  %7 = load double*, double** %__first.addr, align 8, !dbg !4663
  %add.ptr3 = getelementptr inbounds double, double* %7, i64 1, !dbg !4664
  %8 = load double*, double** %__last.addr, align 8, !dbg !4665
  %9 = load double*, double** %__first.addr, align 8, !dbg !4666
  %call = call double* @_ZSt21__unguarded_partitionIPdN9__gnu_cxx5__ops15_Iter_less_iterEET_S4_S4_S4_T0_(double* %add.ptr3, double* %8, double* %9), !dbg !4667
  ret double* %call, !dbg !4668
}

; Function Attrs: noinline optnone uwtable
define linkonce_odr void @_ZSt13__heap_selectIPdN9__gnu_cxx5__ops15_Iter_less_iterEEvT_S4_S4_T0_(double* %__first, double* %__middle, double* %__last) #0 comdat !dbg !4669 {
entry:
  %__comp = alloca %"struct.__gnu_cxx::__ops::_Iter_less_iter", align 1
  %__first.addr = alloca double*, align 8
  %__middle.addr = alloca double*, align 8
  %__last.addr = alloca double*, align 8
  %__i = alloca double*, align 8
  store double* %__first, double** %__first.addr, align 8
  call void @llvm.dbg.declare(metadata double** %__first.addr, metadata !4670, metadata !DIExpression()), !dbg !4671
  store double* %__middle, double** %__middle.addr, align 8
  call void @llvm.dbg.declare(metadata double** %__middle.addr, metadata !4672, metadata !DIExpression()), !dbg !4673
  store double* %__last, double** %__last.addr, align 8
  call void @llvm.dbg.declare(metadata double** %__last.addr, metadata !4674, metadata !DIExpression()), !dbg !4675
  call void @llvm.dbg.declare(metadata %"struct.__gnu_cxx::__ops::_Iter_less_iter"* %__comp, metadata !4676, metadata !DIExpression()), !dbg !4677
  %0 = load double*, double** %__first.addr, align 8, !dbg !4678
  %1 = load double*, double** %__middle.addr, align 8, !dbg !4679
  call void @_ZSt11__make_heapIPdN9__gnu_cxx5__ops15_Iter_less_iterEEvT_S4_RT0_(double* %0, double* %1, %"struct.__gnu_cxx::__ops::_Iter_less_iter"* nonnull align 1 dereferenceable(1) %__comp), !dbg !4680
  call void @llvm.dbg.declare(metadata double** %__i, metadata !4681, metadata !DIExpression()), !dbg !4683
  %2 = load double*, double** %__middle.addr, align 8, !dbg !4684
  store double* %2, double** %__i, align 8, !dbg !4683
  br label %for.cond, !dbg !4685

for.cond:                                         ; preds = %for.inc, %entry
  %3 = load double*, double** %__i, align 8, !dbg !4686
  %4 = load double*, double** %__last.addr, align 8, !dbg !4688
  %cmp = icmp ult double* %3, %4, !dbg !4689
  br i1 %cmp, label %for.body, label %for.end, !dbg !4690

for.body:                                         ; preds = %for.cond
  %5 = load double*, double** %__i, align 8, !dbg !4691
  %6 = load double*, double** %__first.addr, align 8, !dbg !4693
  %call = call zeroext i1 @_ZNK9__gnu_cxx5__ops15_Iter_less_iterclIPdS3_EEbT_T0_(%"struct.__gnu_cxx::__ops::_Iter_less_iter"* %__comp, double* %5, double* %6), !dbg !4694
  br i1 %call, label %if.then, label %if.end, !dbg !4695

if.then:                                          ; preds = %for.body
  %7 = load double*, double** %__first.addr, align 8, !dbg !4696
  %8 = load double*, double** %__middle.addr, align 8, !dbg !4697
  %9 = load double*, double** %__i, align 8, !dbg !4698
  call void @_ZSt10__pop_heapIPdN9__gnu_cxx5__ops15_Iter_less_iterEEvT_S4_S4_RT0_(double* %7, double* %8, double* %9, %"struct.__gnu_cxx::__ops::_Iter_less_iter"* nonnull align 1 dereferenceable(1) %__comp), !dbg !4699
  br label %if.end, !dbg !4699

if.end:                                           ; preds = %if.then, %for.body
  br label %for.inc, !dbg !4700

for.inc:                                          ; preds = %if.end
  %10 = load double*, double** %__i, align 8, !dbg !4701
  %incdec.ptr = getelementptr inbounds double, double* %10, i32 1, !dbg !4701
  store double* %incdec.ptr, double** %__i, align 8, !dbg !4701
  br label %for.cond, !dbg !4702, !llvm.loop !4703

for.end:                                          ; preds = %for.cond
  ret void, !dbg !4705
}

; Function Attrs: noinline optnone uwtable
define linkonce_odr void @_ZSt11__sort_heapIPdN9__gnu_cxx5__ops15_Iter_less_iterEEvT_S4_RT0_(double* %__first, double* %__last, %"struct.__gnu_cxx::__ops::_Iter_less_iter"* nonnull align 1 dereferenceable(1) %__comp) #0 comdat !dbg !4706 {
entry:
  %__first.addr = alloca double*, align 8
  %__last.addr = alloca double*, align 8
  %__comp.addr = alloca %"struct.__gnu_cxx::__ops::_Iter_less_iter"*, align 8
  store double* %__first, double** %__first.addr, align 8
  call void @llvm.dbg.declare(metadata double** %__first.addr, metadata !4709, metadata !DIExpression()), !dbg !4710
  store double* %__last, double** %__last.addr, align 8
  call void @llvm.dbg.declare(metadata double** %__last.addr, metadata !4711, metadata !DIExpression()), !dbg !4712
  store %"struct.__gnu_cxx::__ops::_Iter_less_iter"* %__comp, %"struct.__gnu_cxx::__ops::_Iter_less_iter"** %__comp.addr, align 8
  call void @llvm.dbg.declare(metadata %"struct.__gnu_cxx::__ops::_Iter_less_iter"** %__comp.addr, metadata !4713, metadata !DIExpression()), !dbg !4714
  br label %while.cond, !dbg !4715

while.cond:                                       ; preds = %while.body, %entry
  %0 = load double*, double** %__last.addr, align 8, !dbg !4716
  %1 = load double*, double** %__first.addr, align 8, !dbg !4717
  %sub.ptr.lhs.cast = ptrtoint double* %0 to i64, !dbg !4718
  %sub.ptr.rhs.cast = ptrtoint double* %1 to i64, !dbg !4718
  %sub.ptr.sub = sub i64 %sub.ptr.lhs.cast, %sub.ptr.rhs.cast, !dbg !4718
  %sub.ptr.div = sdiv exact i64 %sub.ptr.sub, 8, !dbg !4718
  %cmp = icmp sgt i64 %sub.ptr.div, 1, !dbg !4719
  br i1 %cmp, label %while.body, label %while.end, !dbg !4715

while.body:                                       ; preds = %while.cond
  %2 = load double*, double** %__last.addr, align 8, !dbg !4720
  %incdec.ptr = getelementptr inbounds double, double* %2, i32 -1, !dbg !4720
  store double* %incdec.ptr, double** %__last.addr, align 8, !dbg !4720
  %3 = load double*, double** %__first.addr, align 8, !dbg !4722
  %4 = load double*, double** %__last.addr, align 8, !dbg !4723
  %5 = load double*, double** %__last.addr, align 8, !dbg !4724
  %6 = load %"struct.__gnu_cxx::__ops::_Iter_less_iter"*, %"struct.__gnu_cxx::__ops::_Iter_less_iter"** %__comp.addr, align 8, !dbg !4725
  call void @_ZSt10__pop_heapIPdN9__gnu_cxx5__ops15_Iter_less_iterEEvT_S4_S4_RT0_(double* %3, double* %4, double* %5, %"struct.__gnu_cxx::__ops::_Iter_less_iter"* nonnull align 1 dereferenceable(1) %6), !dbg !4726
  br label %while.cond, !dbg !4715, !llvm.loop !4727

while.end:                                        ; preds = %while.cond
  ret void, !dbg !4729
}

; Function Attrs: noinline optnone uwtable
define linkonce_odr void @_ZSt11__make_heapIPdN9__gnu_cxx5__ops15_Iter_less_iterEEvT_S4_RT0_(double* %__first, double* %__last, %"struct.__gnu_cxx::__ops::_Iter_less_iter"* nonnull align 1 dereferenceable(1) %__comp) #0 comdat !dbg !4730 {
entry:
  %__first.addr = alloca double*, align 8
  %__last.addr = alloca double*, align 8
  %__comp.addr = alloca %"struct.__gnu_cxx::__ops::_Iter_less_iter"*, align 8
  %__len = alloca i64, align 8
  %__parent = alloca i64, align 8
  %__value = alloca double, align 8
  %agg.tmp = alloca %"struct.__gnu_cxx::__ops::_Iter_less_iter", align 1
  store double* %__first, double** %__first.addr, align 8
  call void @llvm.dbg.declare(metadata double** %__first.addr, metadata !4731, metadata !DIExpression()), !dbg !4732
  store double* %__last, double** %__last.addr, align 8
  call void @llvm.dbg.declare(metadata double** %__last.addr, metadata !4733, metadata !DIExpression()), !dbg !4734
  store %"struct.__gnu_cxx::__ops::_Iter_less_iter"* %__comp, %"struct.__gnu_cxx::__ops::_Iter_less_iter"** %__comp.addr, align 8
  call void @llvm.dbg.declare(metadata %"struct.__gnu_cxx::__ops::_Iter_less_iter"** %__comp.addr, metadata !4735, metadata !DIExpression()), !dbg !4736
  %0 = load double*, double** %__last.addr, align 8, !dbg !4737
  %1 = load double*, double** %__first.addr, align 8, !dbg !4739
  %sub.ptr.lhs.cast = ptrtoint double* %0 to i64, !dbg !4740
  %sub.ptr.rhs.cast = ptrtoint double* %1 to i64, !dbg !4740
  %sub.ptr.sub = sub i64 %sub.ptr.lhs.cast, %sub.ptr.rhs.cast, !dbg !4740
  %sub.ptr.div = sdiv exact i64 %sub.ptr.sub, 8, !dbg !4740
  %cmp = icmp slt i64 %sub.ptr.div, 2, !dbg !4741
  br i1 %cmp, label %if.then, label %if.end, !dbg !4742

if.then:                                          ; preds = %entry
  br label %return, !dbg !4743

if.end:                                           ; preds = %entry
  call void @llvm.dbg.declare(metadata i64* %__len, metadata !4744, metadata !DIExpression()), !dbg !4747
  %2 = load double*, double** %__last.addr, align 8, !dbg !4748
  %3 = load double*, double** %__first.addr, align 8, !dbg !4749
  %sub.ptr.lhs.cast1 = ptrtoint double* %2 to i64, !dbg !4750
  %sub.ptr.rhs.cast2 = ptrtoint double* %3 to i64, !dbg !4750
  %sub.ptr.sub3 = sub i64 %sub.ptr.lhs.cast1, %sub.ptr.rhs.cast2, !dbg !4750
  %sub.ptr.div4 = sdiv exact i64 %sub.ptr.sub3, 8, !dbg !4750
  store i64 %sub.ptr.div4, i64* %__len, align 8, !dbg !4747
  call void @llvm.dbg.declare(metadata i64* %__parent, metadata !4751, metadata !DIExpression()), !dbg !4752
  %4 = load i64, i64* %__len, align 8, !dbg !4753
  %sub = sub nsw i64 %4, 2, !dbg !4754
  %div = sdiv i64 %sub, 2, !dbg !4755
  store i64 %div, i64* %__parent, align 8, !dbg !4752
  br label %while.body, !dbg !4756

while.body:                                       ; preds = %if.end, %if.end8
  call void @llvm.dbg.declare(metadata double* %__value, metadata !4757, metadata !DIExpression()), !dbg !4761
  %5 = load double*, double** %__first.addr, align 8, !dbg !4762
  %6 = load i64, i64* %__parent, align 8, !dbg !4762
  %add.ptr = getelementptr inbounds double, double* %5, i64 %6, !dbg !4762
  %call = call nonnull align 8 dereferenceable(8) double* @_ZSt4moveIRdEONSt16remove_referenceIT_E4typeEOS2_(double* nonnull align 8 dereferenceable(8) %add.ptr) #12, !dbg !4762
  %7 = load double, double* %call, align 8, !dbg !4762
  store double %7, double* %__value, align 8, !dbg !4761
  %8 = load double*, double** %__first.addr, align 8, !dbg !4763
  %9 = load i64, i64* %__parent, align 8, !dbg !4764
  %10 = load i64, i64* %__len, align 8, !dbg !4765
  %call5 = call nonnull align 8 dereferenceable(8) double* @_ZSt4moveIRdEONSt16remove_referenceIT_E4typeEOS2_(double* nonnull align 8 dereferenceable(8) %__value) #12, !dbg !4766
  %11 = load double, double* %call5, align 8, !dbg !4766
  %12 = load %"struct.__gnu_cxx::__ops::_Iter_less_iter"*, %"struct.__gnu_cxx::__ops::_Iter_less_iter"** %__comp.addr, align 8, !dbg !4767
  call void @_ZSt13__adjust_heapIPdldN9__gnu_cxx5__ops15_Iter_less_iterEEvT_T0_S5_T1_T2_(double* %8, i64 %9, i64 %10, double %11), !dbg !4768
  %13 = load i64, i64* %__parent, align 8, !dbg !4769
  %cmp6 = icmp eq i64 %13, 0, !dbg !4771
  br i1 %cmp6, label %if.then7, label %if.end8, !dbg !4772

if.then7:                                         ; preds = %while.body
  br label %return, !dbg !4773

if.end8:                                          ; preds = %while.body
  %14 = load i64, i64* %__parent, align 8, !dbg !4774
  %dec = add nsw i64 %14, -1, !dbg !4774
  store i64 %dec, i64* %__parent, align 8, !dbg !4774
  br label %while.body, !dbg !4756, !llvm.loop !4775

return:                                           ; preds = %if.then7, %if.then
  ret void, !dbg !4777
}

; Function Attrs: noinline nounwind optnone uwtable
define linkonce_odr zeroext i1 @_ZNK9__gnu_cxx5__ops15_Iter_less_iterclIPdS3_EEbT_T0_(%"struct.__gnu_cxx::__ops::_Iter_less_iter"* %this, double* %__it1, double* %__it2) #5 comdat align 2 !dbg !4778 {
entry:
  %this.addr = alloca %"struct.__gnu_cxx::__ops::_Iter_less_iter"*, align 8
  %__it1.addr = alloca double*, align 8
  %__it2.addr = alloca double*, align 8
  store %"struct.__gnu_cxx::__ops::_Iter_less_iter"* %this, %"struct.__gnu_cxx::__ops::_Iter_less_iter"** %this.addr, align 8
  call void @llvm.dbg.declare(metadata %"struct.__gnu_cxx::__ops::_Iter_less_iter"** %this.addr, metadata !4787, metadata !DIExpression()), !dbg !4789
  store double* %__it1, double** %__it1.addr, align 8
  call void @llvm.dbg.declare(metadata double** %__it1.addr, metadata !4790, metadata !DIExpression()), !dbg !4791
  store double* %__it2, double** %__it2.addr, align 8
  call void @llvm.dbg.declare(metadata double** %__it2.addr, metadata !4792, metadata !DIExpression()), !dbg !4793
  %this1 = load %"struct.__gnu_cxx::__ops::_Iter_less_iter"*, %"struct.__gnu_cxx::__ops::_Iter_less_iter"** %this.addr, align 8
  %0 = load double*, double** %__it1.addr, align 8, !dbg !4794
  %1 = load double, double* %0, align 8, !dbg !4795
  %2 = load double*, double** %__it2.addr, align 8, !dbg !4796
  %3 = load double, double* %2, align 8, !dbg !4797
  %cmp = fcmp olt double %1, %3, !dbg !4798
  ret i1 %cmp, !dbg !4799
}

; Function Attrs: noinline optnone uwtable
define linkonce_odr void @_ZSt10__pop_heapIPdN9__gnu_cxx5__ops15_Iter_less_iterEEvT_S4_S4_RT0_(double* %__first, double* %__last, double* %__result, %"struct.__gnu_cxx::__ops::_Iter_less_iter"* nonnull align 1 dereferenceable(1) %__comp) #0 comdat !dbg !34 {
entry:
  %__first.addr = alloca double*, align 8
  %__last.addr = alloca double*, align 8
  %__result.addr = alloca double*, align 8
  %__comp.addr = alloca %"struct.__gnu_cxx::__ops::_Iter_less_iter"*, align 8
  %__value = alloca double, align 8
  %agg.tmp = alloca %"struct.__gnu_cxx::__ops::_Iter_less_iter", align 1
  store double* %__first, double** %__first.addr, align 8
  call void @llvm.dbg.declare(metadata double** %__first.addr, metadata !4800, metadata !DIExpression()), !dbg !4801
  store double* %__last, double** %__last.addr, align 8
  call void @llvm.dbg.declare(metadata double** %__last.addr, metadata !4802, metadata !DIExpression()), !dbg !4803
  store double* %__result, double** %__result.addr, align 8
  call void @llvm.dbg.declare(metadata double** %__result.addr, metadata !4804, metadata !DIExpression()), !dbg !4805
  store %"struct.__gnu_cxx::__ops::_Iter_less_iter"* %__comp, %"struct.__gnu_cxx::__ops::_Iter_less_iter"** %__comp.addr, align 8
  call void @llvm.dbg.declare(metadata %"struct.__gnu_cxx::__ops::_Iter_less_iter"** %__comp.addr, metadata !4806, metadata !DIExpression()), !dbg !4807
  call void @llvm.dbg.declare(metadata double* %__value, metadata !4808, metadata !DIExpression()), !dbg !4810
  %0 = load double*, double** %__result.addr, align 8, !dbg !4811
  %call = call nonnull align 8 dereferenceable(8) double* @_ZSt4moveIRdEONSt16remove_referenceIT_E4typeEOS2_(double* nonnull align 8 dereferenceable(8) %0) #12, !dbg !4811
  %1 = load double, double* %call, align 8, !dbg !4811
  store double %1, double* %__value, align 8, !dbg !4810
  %2 = load double*, double** %__first.addr, align 8, !dbg !4812
  %call1 = call nonnull align 8 dereferenceable(8) double* @_ZSt4moveIRdEONSt16remove_referenceIT_E4typeEOS2_(double* nonnull align 8 dereferenceable(8) %2) #12, !dbg !4812
  %3 = load double, double* %call1, align 8, !dbg !4812
  %4 = load double*, double** %__result.addr, align 8, !dbg !4813
  store double %3, double* %4, align 8, !dbg !4814
  %5 = load double*, double** %__first.addr, align 8, !dbg !4815
  %6 = load double*, double** %__last.addr, align 8, !dbg !4816
  %7 = load double*, double** %__first.addr, align 8, !dbg !4817
  %sub.ptr.lhs.cast = ptrtoint double* %6 to i64, !dbg !4818
  %sub.ptr.rhs.cast = ptrtoint double* %7 to i64, !dbg !4818
  %sub.ptr.sub = sub i64 %sub.ptr.lhs.cast, %sub.ptr.rhs.cast, !dbg !4818
  %sub.ptr.div = sdiv exact i64 %sub.ptr.sub, 8, !dbg !4818
  %call2 = call nonnull align 8 dereferenceable(8) double* @_ZSt4moveIRdEONSt16remove_referenceIT_E4typeEOS2_(double* nonnull align 8 dereferenceable(8) %__value) #12, !dbg !4819
  %8 = load double, double* %call2, align 8, !dbg !4819
  %9 = load %"struct.__gnu_cxx::__ops::_Iter_less_iter"*, %"struct.__gnu_cxx::__ops::_Iter_less_iter"** %__comp.addr, align 8, !dbg !4820
  call void @_ZSt13__adjust_heapIPdldN9__gnu_cxx5__ops15_Iter_less_iterEEvT_T0_S5_T1_T2_(double* %5, i64 0, i64 %sub.ptr.div, double %8), !dbg !4821
  ret void, !dbg !4822
}

; Function Attrs: noinline nounwind optnone uwtable
define linkonce_odr nonnull align 8 dereferenceable(8) double* @_ZSt4moveIRdEONSt16remove_referenceIT_E4typeEOS2_(double* nonnull align 8 dereferenceable(8) %__t) #5 comdat !dbg !4823 {
entry:
  %__t.addr = alloca double*, align 8
  store double* %__t, double** %__t.addr, align 8
  call void @llvm.dbg.declare(metadata double** %__t.addr, metadata !4833, metadata !DIExpression()), !dbg !4834
  %0 = load double*, double** %__t.addr, align 8, !dbg !4835
  ret double* %0, !dbg !4836
}

; Function Attrs: noinline optnone uwtable
define linkonce_odr void @_ZSt13__adjust_heapIPdldN9__gnu_cxx5__ops15_Iter_less_iterEEvT_T0_S5_T1_T2_(double* %__first, i64 %__holeIndex, i64 %__len, double %__value) #0 comdat !dbg !4837 {
entry:
  %__comp = alloca %"struct.__gnu_cxx::__ops::_Iter_less_iter", align 1
  %__first.addr = alloca double*, align 8
  %__holeIndex.addr = alloca i64, align 8
  %__len.addr = alloca i64, align 8
  %__value.addr = alloca double, align 8
  %__topIndex = alloca i64, align 8
  %__secondChild = alloca i64, align 8
  %__cmp = alloca %"struct.__gnu_cxx::__ops::_Iter_less_val", align 1
  %agg.tmp = alloca %"struct.__gnu_cxx::__ops::_Iter_less_iter", align 1
  store double* %__first, double** %__first.addr, align 8
  call void @llvm.dbg.declare(metadata double** %__first.addr, metadata !4843, metadata !DIExpression()), !dbg !4844
  store i64 %__holeIndex, i64* %__holeIndex.addr, align 8
  call void @llvm.dbg.declare(metadata i64* %__holeIndex.addr, metadata !4845, metadata !DIExpression()), !dbg !4846
  store i64 %__len, i64* %__len.addr, align 8
  call void @llvm.dbg.declare(metadata i64* %__len.addr, metadata !4847, metadata !DIExpression()), !dbg !4848
  store double %__value, double* %__value.addr, align 8
  call void @llvm.dbg.declare(metadata double* %__value.addr, metadata !4849, metadata !DIExpression()), !dbg !4850
  call void @llvm.dbg.declare(metadata %"struct.__gnu_cxx::__ops::_Iter_less_iter"* %__comp, metadata !4851, metadata !DIExpression()), !dbg !4852
  call void @llvm.dbg.declare(metadata i64* %__topIndex, metadata !4853, metadata !DIExpression()), !dbg !4855
  %0 = load i64, i64* %__holeIndex.addr, align 8, !dbg !4856
  store i64 %0, i64* %__topIndex, align 8, !dbg !4855
  call void @llvm.dbg.declare(metadata i64* %__secondChild, metadata !4857, metadata !DIExpression()), !dbg !4858
  %1 = load i64, i64* %__holeIndex.addr, align 8, !dbg !4859
  store i64 %1, i64* %__secondChild, align 8, !dbg !4858
  br label %while.cond, !dbg !4860

while.cond:                                       ; preds = %if.end, %entry
  %2 = load i64, i64* %__secondChild, align 8, !dbg !4861
  %3 = load i64, i64* %__len.addr, align 8, !dbg !4862
  %sub = sub nsw i64 %3, 1, !dbg !4863
  %div = sdiv i64 %sub, 2, !dbg !4864
  %cmp = icmp slt i64 %2, %div, !dbg !4865
  br i1 %cmp, label %while.body, label %while.end, !dbg !4860

while.body:                                       ; preds = %while.cond
  %4 = load i64, i64* %__secondChild, align 8, !dbg !4866
  %add = add nsw i64 %4, 1, !dbg !4868
  %mul = mul nsw i64 2, %add, !dbg !4869
  store i64 %mul, i64* %__secondChild, align 8, !dbg !4870
  %5 = load double*, double** %__first.addr, align 8, !dbg !4871
  %6 = load i64, i64* %__secondChild, align 8, !dbg !4873
  %add.ptr = getelementptr inbounds double, double* %5, i64 %6, !dbg !4874
  %7 = load double*, double** %__first.addr, align 8, !dbg !4875
  %8 = load i64, i64* %__secondChild, align 8, !dbg !4876
  %sub1 = sub nsw i64 %8, 1, !dbg !4877
  %add.ptr2 = getelementptr inbounds double, double* %7, i64 %sub1, !dbg !4878
  %call = call zeroext i1 @_ZNK9__gnu_cxx5__ops15_Iter_less_iterclIPdS3_EEbT_T0_(%"struct.__gnu_cxx::__ops::_Iter_less_iter"* %__comp, double* %add.ptr, double* %add.ptr2), !dbg !4879
  br i1 %call, label %if.then, label %if.end, !dbg !4880

if.then:                                          ; preds = %while.body
  %9 = load i64, i64* %__secondChild, align 8, !dbg !4881
  %dec = add nsw i64 %9, -1, !dbg !4881
  store i64 %dec, i64* %__secondChild, align 8, !dbg !4881
  br label %if.end, !dbg !4882

if.end:                                           ; preds = %if.then, %while.body
  %10 = load double*, double** %__first.addr, align 8, !dbg !4883
  %11 = load i64, i64* %__secondChild, align 8, !dbg !4883
  %add.ptr3 = getelementptr inbounds double, double* %10, i64 %11, !dbg !4883
  %call4 = call nonnull align 8 dereferenceable(8) double* @_ZSt4moveIRdEONSt16remove_referenceIT_E4typeEOS2_(double* nonnull align 8 dereferenceable(8) %add.ptr3) #12, !dbg !4883
  %12 = load double, double* %call4, align 8, !dbg !4883
  %13 = load double*, double** %__first.addr, align 8, !dbg !4884
  %14 = load i64, i64* %__holeIndex.addr, align 8, !dbg !4885
  %add.ptr5 = getelementptr inbounds double, double* %13, i64 %14, !dbg !4886
  store double %12, double* %add.ptr5, align 8, !dbg !4887
  %15 = load i64, i64* %__secondChild, align 8, !dbg !4888
  store i64 %15, i64* %__holeIndex.addr, align 8, !dbg !4889
  br label %while.cond, !dbg !4860, !llvm.loop !4890

while.end:                                        ; preds = %while.cond
  %16 = load i64, i64* %__len.addr, align 8, !dbg !4892
  %and = and i64 %16, 1, !dbg !4894
  %cmp6 = icmp eq i64 %and, 0, !dbg !4895
  br i1 %cmp6, label %land.lhs.true, label %if.end18, !dbg !4896

land.lhs.true:                                    ; preds = %while.end
  %17 = load i64, i64* %__secondChild, align 8, !dbg !4897
  %18 = load i64, i64* %__len.addr, align 8, !dbg !4898
  %sub7 = sub nsw i64 %18, 2, !dbg !4899
  %div8 = sdiv i64 %sub7, 2, !dbg !4900
  %cmp9 = icmp eq i64 %17, %div8, !dbg !4901
  br i1 %cmp9, label %if.then10, label %if.end18, !dbg !4902

if.then10:                                        ; preds = %land.lhs.true
  %19 = load i64, i64* %__secondChild, align 8, !dbg !4903
  %add11 = add nsw i64 %19, 1, !dbg !4905
  %mul12 = mul nsw i64 2, %add11, !dbg !4906
  store i64 %mul12, i64* %__secondChild, align 8, !dbg !4907
  %20 = load double*, double** %__first.addr, align 8, !dbg !4908
  %21 = load i64, i64* %__secondChild, align 8, !dbg !4908
  %sub13 = sub nsw i64 %21, 1, !dbg !4908
  %add.ptr14 = getelementptr inbounds double, double* %20, i64 %sub13, !dbg !4908
  %call15 = call nonnull align 8 dereferenceable(8) double* @_ZSt4moveIRdEONSt16remove_referenceIT_E4typeEOS2_(double* nonnull align 8 dereferenceable(8) %add.ptr14) #12, !dbg !4908
  %22 = load double, double* %call15, align 8, !dbg !4908
  %23 = load double*, double** %__first.addr, align 8, !dbg !4909
  %24 = load i64, i64* %__holeIndex.addr, align 8, !dbg !4910
  %add.ptr16 = getelementptr inbounds double, double* %23, i64 %24, !dbg !4911
  store double %22, double* %add.ptr16, align 8, !dbg !4912
  %25 = load i64, i64* %__secondChild, align 8, !dbg !4913
  %sub17 = sub nsw i64 %25, 1, !dbg !4914
  store i64 %sub17, i64* %__holeIndex.addr, align 8, !dbg !4915
  br label %if.end18, !dbg !4916

if.end18:                                         ; preds = %if.then10, %land.lhs.true, %while.end
  call void @llvm.dbg.declare(metadata %"struct.__gnu_cxx::__ops::_Iter_less_val"* %__cmp, metadata !4917, metadata !DIExpression()), !dbg !4927
  %call19 = call nonnull align 1 dereferenceable(1) %"struct.__gnu_cxx::__ops::_Iter_less_iter"* @_ZSt4moveIRN9__gnu_cxx5__ops15_Iter_less_iterEEONSt16remove_referenceIT_E4typeEOS5_(%"struct.__gnu_cxx::__ops::_Iter_less_iter"* nonnull align 1 dereferenceable(1) %__comp) #12, !dbg !4928
  call void @_ZN9__gnu_cxx5__ops14_Iter_less_valC2ENS0_15_Iter_less_iterE(%"struct.__gnu_cxx::__ops::_Iter_less_val"* %__cmp), !dbg !4927
  %26 = load double*, double** %__first.addr, align 8, !dbg !4929
  %27 = load i64, i64* %__holeIndex.addr, align 8, !dbg !4930
  %28 = load i64, i64* %__topIndex, align 8, !dbg !4931
  %call20 = call nonnull align 8 dereferenceable(8) double* @_ZSt4moveIRdEONSt16remove_referenceIT_E4typeEOS2_(double* nonnull align 8 dereferenceable(8) %__value.addr) #12, !dbg !4932
  %29 = load double, double* %call20, align 8, !dbg !4932
  call void @_ZSt11__push_heapIPdldN9__gnu_cxx5__ops14_Iter_less_valEEvT_T0_S5_T1_RT2_(double* %26, i64 %27, i64 %28, double %29, %"struct.__gnu_cxx::__ops::_Iter_less_val"* nonnull align 1 dereferenceable(1) %__cmp), !dbg !4933
  ret void, !dbg !4934
}

; Function Attrs: noinline nounwind optnone uwtable
define linkonce_odr nonnull align 1 dereferenceable(1) %"struct.__gnu_cxx::__ops::_Iter_less_iter"* @_ZSt4moveIRN9__gnu_cxx5__ops15_Iter_less_iterEEONSt16remove_referenceIT_E4typeEOS5_(%"struct.__gnu_cxx::__ops::_Iter_less_iter"* nonnull align 1 dereferenceable(1) %__t) #5 comdat !dbg !4935 {
entry:
  %__t.addr = alloca %"struct.__gnu_cxx::__ops::_Iter_less_iter"*, align 8
  store %"struct.__gnu_cxx::__ops::_Iter_less_iter"* %__t, %"struct.__gnu_cxx::__ops::_Iter_less_iter"** %__t.addr, align 8
  call void @llvm.dbg.declare(metadata %"struct.__gnu_cxx::__ops::_Iter_less_iter"** %__t.addr, metadata !4943, metadata !DIExpression()), !dbg !4944
  %0 = load %"struct.__gnu_cxx::__ops::_Iter_less_iter"*, %"struct.__gnu_cxx::__ops::_Iter_less_iter"** %__t.addr, align 8, !dbg !4945
