; ModuleID = 'codes/cpp/sssp-cpp/SSSP_CPP_E_Topo_IntType_ReadModifyWrite_Block_NonDeterm_NoBoundsBug_Atomic_NoRangeBug.cpp'
source_filename = "codes/cpp/sssp-cpp/SSSP_CPP_E_Topo_IntType_ReadModifyWrite_Block_NonDeterm_NoBoundsBug_Atomic_NoRangeBug.cpp"
target datalayout = "e-m:e-p270:32:32-p271:32:32-p272:64:64-i64:64-f80:128-n8:16:32:64-S128"
target triple = "x86_64-unknown-linux-gnu"

%struct._IO_FILE = type { i32, i8*, i8*, i8*, i8*, i8*, i8*, i8*, i8*, i8*, i8*, i8*, %struct._IO_marker*, %struct._IO_FILE*, i32, i32, i64, i16, i8, [1 x i8], i8*, i64, %struct._IO_codecvt*, %struct._IO_wide_data*, %struct._IO_FILE*, i8*, i64, i32, [20 x i8] }
%struct._IO_marker = type opaque
%struct._IO_codecvt = type opaque
%struct._IO_wide_data = type opaque
%struct.ECLgraph = type { i32, i32, i32*, i32*, i32* }
%struct.timeval = type { i64, i64 }
%"class.std::thread" = type { %"class.std::thread::id" }
%"class.std::thread::id" = type { i64 }
%"class.std::reference_wrapper" = type { i32* }
%"class.std::priority_queue" = type <{ %"class.std::vector", %"struct.std::less", [7 x i8] }>
%"class.std::vector" = type { %"struct.std::_Vector_base" }
%"struct.std::_Vector_base" = type { %"struct.std::_Vector_base<std::pair<int, int>, std::allocator<std::pair<int, int>>>::_Vector_impl" }
%"struct.std::_Vector_base<std::pair<int, int>, std::allocator<std::pair<int, int>>>::_Vector_impl" = type { %"struct.std::_Vector_base<std::pair<int, int>, std::allocator<std::pair<int, int>>>::_Vector_impl_data" }
%"struct.std::_Vector_base<std::pair<int, int>, std::allocator<std::pair<int, int>>>::_Vector_impl_data" = type { %"struct.std::pair"*, %"struct.std::pair"*, %"struct.std::pair"* }
%"struct.std::pair" = type { i32, i32 }
%"struct.std::less" = type { i8 }
%"struct.__gnu_cxx::__ops::_Iter_less_iter" = type { i8 }
%"struct.__gnu_cxx::__ops::_Iter_less_val" = type { i8 }
%"struct.__gnu_cxx::__ops::_Val_less_iter" = type { i8 }
%"class.__gnu_cxx::__normal_iterator" = type { %"struct.std::pair"* }
%"class.std::allocator" = type { i8 }
%"class.std::__new_allocator" = type { i8 }
%"struct.__gnu_cxx::__ops::_Iter_comp_val" = type { %"struct.std::less" }
%"struct.std::integral_constant" = type { i8 }
%"class.std::__pair_base" = type { i8 }
%"class.__gnu_cxx::__normal_iterator.0" = type { %"struct.std::pair"* }
%"struct.__gnu_cxx::__ops::_Iter_comp_iter" = type { %"struct.std::less" }
%"class.std::unique_ptr" = type { %"struct.std::__uniq_ptr_data" }
%"struct.std::__uniq_ptr_data" = type { %"class.std::__uniq_ptr_impl" }
%"class.std::__uniq_ptr_impl" = type { %"class.std::tuple" }
%"class.std::tuple" = type { %"struct.std::_Tuple_impl" }
%"struct.std::_Tuple_impl" = type { %"struct.std::_Head_base.2" }
%"struct.std::_Head_base.2" = type { %"struct.std::thread::_State"* }
%"struct.std::thread::_State" = type { i32 (...)** }
%"struct.std::thread::_State_impl" = type { %"struct.std::thread::_State", %"struct.std::thread::_Invoker" }
%"struct.std::thread::_Invoker" = type { %"class.std::tuple.3" }
%"class.std::tuple.3" = type { %"struct.std::_Tuple_impl.4" }
%"struct.std::_Tuple_impl.4" = type { %"struct.std::_Tuple_impl.5", %"struct.std::_Head_base.17" }
%"struct.std::_Tuple_impl.5" = type { %"struct.std::_Tuple_impl.6", %"struct.std::_Head_base.16" }
%"struct.std::_Tuple_impl.6" = type { %"struct.std::_Tuple_impl.7", %"struct.std::_Head_base.15" }
%"struct.std::_Tuple_impl.7" = type { %"struct.std::_Tuple_impl.8", %"struct.std::_Head_base.14" }
%"struct.std::_Tuple_impl.8" = type { %"struct.std::_Tuple_impl.9", %"struct.std::_Head_base.13" }
%"struct.std::_Tuple_impl.9" = type { %"struct.std::_Tuple_impl.10", %"struct.std::_Head_base.12" }
%"struct.std::_Tuple_impl.10" = type { %"struct.std::_Head_base.11" }
%"struct.std::_Head_base.11" = type { i32 }
%"struct.std::_Head_base.12" = type { i32 }
%"struct.std::_Head_base.13" = type { %"class.std::reference_wrapper" }
%"struct.std::_Head_base.14" = type { i32* }
%"struct.std::_Head_base.15" = type { i32* }
%"struct.std::_Head_base.16" = type { %struct.ECLgraph }
%"struct.std::_Head_base.17" = type { void (%struct.ECLgraph*, i32*, i32*, i32*, i32, i32)* }
%"struct.std::__atomic_base" = type { i32 }
%"struct.std::atomic" = type { %"struct.std::__atomic_base" }
%"struct.std::_Reference_wrapper_base_memfun" = type { i8 }
%"struct.std::default_delete" = type { i8 }
%"struct.std::_Index_tuple" = type { i8 }
%"struct.std::__invoke_other" = type { i8 }
%"struct.std::_Tuple_impl.1" = type { i8 }
%"struct.std::_Head_base" = type { i8 }

$_ZSt4sortIPdEvT_S1_ = comdat any

$_ZSt6__sortIPdN9__gnu_cxx5__ops15_Iter_less_iterEEvT_S4_T0_ = comdat any

$_ZN9__gnu_cxx5__ops16__iter_less_iterEv = comdat any

$_ZSt16__introsort_loopIPdlN9__gnu_cxx5__ops15_Iter_less_iterEEvT_S4_T0_T1_ = comdat any

$_ZSt4__lgl = comdat any

$_ZSt22__final_insertion_sortIPdN9__gnu_cxx5__ops15_Iter_less_iterEEvT_S4_T0_ = comdat any

$_ZSt14__partial_sortIPdN9__gnu_cxx5__ops15_Iter_less_iterEEvT_S4_S4_T0_ = comdat any

$_ZSt27__unguarded_partition_pivotIPdN9__gnu_cxx5__ops15_Iter_less_iterEET_S4_S4_T0_ = comdat any

$_ZSt13__heap_selectIPdN9__gnu_cxx5__ops15_Iter_less_iterEEvT_S4_S4_T0_ = comdat any

$_ZSt11__sort_heapIPdN9__gnu_cxx5__ops15_Iter_less_iterEEvT_S4_RT0_ = comdat any

$_ZSt11__make_heapIPdN9__gnu_cxx5__ops15_Iter_less_iterEEvT_S4_RT0_ = comdat any

$_ZNK9__gnu_cxx5__ops15_Iter_less_iterclIPdS3_EEbT_T0_ = comdat any

$_ZSt10__pop_heapIPdN9__gnu_cxx5__ops15_Iter_less_iterEEvT_S4_S4_RT0_ = comdat any

$_ZSt4moveIRdEONSt16remove_referenceIT_E4typeEOS2_ = comdat any

$_ZSt13__adjust_heapIPdldN9__gnu_cxx5__ops15_Iter_less_iterEEvT_T0_S5_T1_T2_ = comdat any

$_ZSt4moveIRN9__gnu_cxx5__ops15_Iter_less_iterEEONSt16remove_referenceIT_E4typeEOS5_ = comdat any

$_ZN9__gnu_cxx5__ops14_Iter_less_valC2ENS0_15_Iter_less_iterE = comdat any

$_ZSt11__push_heapIPdldN9__gnu_cxx5__ops14_Iter_less_valEEvT_T0_S5_T1_RT2_ = comdat any

$_ZNK9__gnu_cxx5__ops14_Iter_less_valclIPddEEbT_RT0_ = comdat any

$_ZSt22__move_median_to_firstIPdN9__gnu_cxx5__ops15_Iter_less_iterEEvT_S4_S4_S4_T0_ = comdat any

$_ZSt21__unguarded_partitionIPdN9__gnu_cxx5__ops15_Iter_less_iterEET_S4_S4_S4_T0_ = comdat any

$_ZSt9iter_swapIPdS0_EvT_T0_ = comdat any

$_ZSt4swapIdENSt9enable_ifIXsr6__and_ISt6__not_ISt15__is_tuple_likeIT_EESt21is_move_constructibleIS3_ESt18is_move_assignableIS3_EEE5valueEvE4typeERS3_SC_ = comdat any

$_ZSt16__insertion_sortIPdN9__gnu_cxx5__ops15_Iter_less_iterEEvT_S4_T0_ = comdat any

$_ZSt26__unguarded_insertion_sortIPdN9__gnu_cxx5__ops15_Iter_less_iterEEvT_S4_T0_ = comdat any

$_ZSt13move_backwardIPdS0_ET0_T_S2_S1_ = comdat any

$_ZSt25__unguarded_linear_insertIPdN9__gnu_cxx5__ops14_Val_less_iterEEvT_T0_ = comdat any

$_ZN9__gnu_cxx5__ops15__val_comp_iterENS0_15_Iter_less_iterE = comdat any

$_ZSt22__copy_move_backward_aILb1EPdS0_ET1_T0_S2_S1_ = comdat any

$_ZSt12__miter_baseIPdET_S1_ = comdat any

$_ZSt12__niter_wrapIPdET_RKS1_S1_ = comdat any

$_ZSt23__copy_move_backward_a1ILb1EPdS0_ET1_T0_S2_S1_ = comdat any

$_ZSt12__niter_baseIPdET_S1_ = comdat any

$_ZSt23__copy_move_backward_a2ILb1EPdS0_ET1_T0_S2_S1_ = comdat any

$_ZNSt20__copy_move_backwardILb1ELb1ESt26random_access_iterator_tagE13__copy_move_bIdEEPT_PKS3_S6_S4_ = comdat any

$_ZNK9__gnu_cxx5__ops14_Val_less_iterclIdPdEEbRT_T0_ = comdat any

$_ZNSt14priority_queueISt4pairIiiESt6vectorIS1_SaIS1_EESt4lessIS1_EEC2IS4_vEEv = comdat any

$_ZNSt14priority_queueISt4pairIiiESt6vectorIS1_SaIS1_EESt4lessIS1_EE4pushEOS1_ = comdat any

$_ZSt9make_pairIiRKiESt4pairINSt25__strip_reference_wrapperINSt5decayIT_E4typeEE6__typeENS3_INS4_IT0_E4typeEE6__typeEEOS5_OSA_ = comdat any

$_ZNKSt14priority_queueISt4pairIiiESt6vectorIS1_SaIS1_EESt4lessIS1_EE4sizeEv = comdat any

$_ZNKSt14priority_queueISt4pairIiiESt6vectorIS1_SaIS1_EESt4lessIS1_EE3topEv = comdat any

$_ZNSt14priority_queueISt4pairIiiESt6vectorIS1_SaIS1_EESt4lessIS1_EE3popEv = comdat any

$_ZNSt14priority_queueISt4pairIiiESt6vectorIS1_SaIS1_EESt4lessIS1_EED2Ev = comdat any

$_ZNSt6vectorISt4pairIiiESaIS1_EEC2Ev = comdat any

$_ZNSt12_Vector_baseISt4pairIiiESaIS1_EEC2Ev = comdat any

$_ZNSt12_Vector_baseISt4pairIiiESaIS1_EE12_Vector_implC2Ev = comdat any

$_ZNSaISt4pairIiiEEC2Ev = comdat any

$_ZNSt12_Vector_baseISt4pairIiiESaIS1_EE17_Vector_impl_dataC2Ev = comdat any

$_ZNSt15__new_allocatorISt4pairIiiEEC2Ev = comdat any

$_ZNSt6vectorISt4pairIiiESaIS1_EE9push_backEOS1_ = comdat any

$_ZSt4moveIRSt4pairIiiEEONSt16remove_referenceIT_E4typeEOS4_ = comdat any

$_ZSt9push_heapIN9__gnu_cxx17__normal_iteratorIPSt4pairIiiESt6vectorIS3_SaIS3_EEEESt4lessIS3_EEvT_SB_T0_ = comdat any

$_ZNSt6vectorISt4pairIiiESaIS1_EE5beginEv = comdat any

$_ZNSt6vectorISt4pairIiiESaIS1_EE3endEv = comdat any

$_ZNSt6vectorISt4pairIiiESaIS1_EE12emplace_backIJS1_EEEvDpOT_ = comdat any

$_ZNSt16allocator_traitsISaISt4pairIiiEEE9constructIS1_JS1_EEEvRS2_PT_DpOT0_ = comdat any

$_ZSt7forwardISt4pairIiiEEOT_RNSt16remove_referenceIS2_E4typeE = comdat any

$_ZNSt6vectorISt4pairIiiESaIS1_EE17_M_realloc_insertIJS1_EEEvN9__gnu_cxx17__normal_iteratorIPS1_S3_EEDpOT_ = comdat any

$_ZNSt15__new_allocatorISt4pairIiiEE9constructIS1_JS1_EEEvPT_DpOT0_ = comdat any

$_ZNKSt6vectorISt4pairIiiESaIS1_EE12_M_check_lenEmPKc = comdat any

$_ZN9__gnu_cxxmiIPSt4pairIiiESt6vectorIS2_SaIS2_EEEENS_17__normal_iteratorIT_T0_E15difference_typeERKSA_SD_ = comdat any

$_ZNSt12_Vector_baseISt4pairIiiESaIS1_EE11_M_allocateEm = comdat any

$_ZNSt6vectorISt4pairIiiESaIS1_EE11_S_relocateEPS1_S4_S4_RS2_ = comdat any

$_ZNK9__gnu_cxx17__normal_iteratorIPSt4pairIiiESt6vectorIS2_SaIS2_EEE4baseEv = comdat any

$_ZNSt12_Vector_baseISt4pairIiiESaIS1_EE19_M_get_Tp_allocatorEv = comdat any

$_ZNSt12_Vector_baseISt4pairIiiESaIS1_EE13_M_deallocateEPS1_m = comdat any

$_ZNKSt6vectorISt4pairIiiESaIS1_EE8max_sizeEv = comdat any

$_ZNKSt6vectorISt4pairIiiESaIS1_EE4sizeEv = comdat any

$_ZSt3maxImERKT_S2_S2_ = comdat any

$_ZNSt6vectorISt4pairIiiESaIS1_EE11_S_max_sizeERKS2_ = comdat any

$_ZNKSt12_Vector_baseISt4pairIiiESaIS1_EE19_M_get_Tp_allocatorEv = comdat any

$_ZNSt16allocator_traitsISaISt4pairIiiEEE8max_sizeERKS2_ = comdat any

$_ZSt3minImERKT_S2_S2_ = comdat any

$__clang_call_terminate = comdat any

$_ZNKSt15__new_allocatorISt4pairIiiEE8max_sizeEv = comdat any

$_ZNKSt15__new_allocatorISt4pairIiiEE11_M_max_sizeEv = comdat any

$_ZNSt16allocator_traitsISaISt4pairIiiEEE8allocateERS2_m = comdat any

$_ZNSt15__new_allocatorISt4pairIiiEE8allocateEmPKv = comdat any

$_ZNSt6vectorISt4pairIiiESaIS1_EE14_S_do_relocateEPS1_S4_S4_RS2_St17integral_constantIbLb1EE = comdat any

$_ZSt12__relocate_aIPSt4pairIiiES2_SaIS1_EET0_T_S5_S4_RT1_ = comdat any

$_ZSt14__relocate_a_1IPSt4pairIiiES2_SaIS1_EET0_T_S5_S4_RT1_ = comdat any

$_ZSt12__niter_baseIPSt4pairIiiEET_S3_ = comdat any

$_ZSt19__relocate_object_aISt4pairIiiES1_SaIS1_EEvPT_PT0_RT1_ = comdat any

$_ZSt11__addressofISt4pairIiiEEPT_RS2_ = comdat any

$_ZNSt16allocator_traitsISaISt4pairIiiEEE7destroyIS1_EEvRS2_PT_ = comdat any

$_ZNSt15__new_allocatorISt4pairIiiEE7destroyIS1_EEvPT_ = comdat any

$_ZNSt16allocator_traitsISaISt4pairIiiEEE10deallocateERS2_PS1_m = comdat any

$_ZNSt15__new_allocatorISt4pairIiiEE10deallocateEPS1_m = comdat any

$_ZSt4moveIRSt4lessISt4pairIiiEEEONSt16remove_referenceIT_E4typeEOS6_ = comdat any

$_ZN9__gnu_cxx5__ops14_Iter_comp_valISt4lessISt4pairIiiEEEC2ES5_ = comdat any

$_ZNK9__gnu_cxx17__normal_iteratorIPSt4pairIiiESt6vectorIS2_SaIS2_EEEmiEl = comdat any

$_ZNK9__gnu_cxx17__normal_iteratorIPSt4pairIiiESt6vectorIS2_SaIS2_EEEdeEv = comdat any

$_ZSt11__push_heapIN9__gnu_cxx17__normal_iteratorIPSt4pairIiiESt6vectorIS3_SaIS3_EEEElS3_NS0_5__ops14_Iter_comp_valISt4lessIS3_EEEEvT_T0_SF_T1_RT2_ = comdat any

$_ZN9__gnu_cxx17__normal_iteratorIPSt4pairIiiESt6vectorIS2_SaIS2_EEEC2ERKS3_ = comdat any

$_ZN9__gnu_cxx5__ops14_Iter_comp_valISt4lessISt4pairIiiEEEclINS_17__normal_iteratorIPS4_St6vectorIS4_SaIS4_EEEES4_EEbT_RT0_ = comdat any

$_ZNK9__gnu_cxx17__normal_iteratorIPSt4pairIiiESt6vectorIS2_SaIS2_EEEplEl = comdat any

$_ZNSt4pairIiiEaSEOS0_ = comdat any

$_ZNKSt4lessISt4pairIiiEEclERKS1_S4_ = comdat any

$_ZStltIiiEbRKSt4pairIT_T0_ES5_ = comdat any

$_ZSt7forwardIiEOT_RNSt16remove_referenceIS0_E4typeE = comdat any

$_ZSt7forwardIRKiEOT_RNSt16remove_referenceIS2_E4typeE = comdat any

$_ZNSt4pairIiiEC2IiRKiLb1EEEOT_OT0_ = comdat any

$_ZNKSt6vectorISt4pairIiiESaIS1_EE5frontEv = comdat any

$_ZNKSt6vectorISt4pairIiiESaIS1_EE5beginEv = comdat any

$_ZNK9__gnu_cxx17__normal_iteratorIPKSt4pairIiiESt6vectorIS2_SaIS2_EEEdeEv = comdat any

$_ZN9__gnu_cxx17__normal_iteratorIPKSt4pairIiiESt6vectorIS2_SaIS2_EEEC2ERKS4_ = comdat any

$_ZSt8pop_heapIN9__gnu_cxx17__normal_iteratorIPSt4pairIiiESt6vectorIS3_SaIS3_EEEESt4lessIS3_EEvT_SB_T0_ = comdat any

$_ZNSt6vectorISt4pairIiiESaIS1_EE8pop_backEv = comdat any

$_ZN9__gnu_cxx5__ops15_Iter_comp_iterISt4lessISt4pairIiiEEEC2ES5_ = comdat any

$_ZN9__gnu_cxx17__normal_iteratorIPSt4pairIiiESt6vectorIS2_SaIS2_EEEmmEv = comdat any

$_ZSt10__pop_heapIN9__gnu_cxx17__normal_iteratorIPSt4pairIiiESt6vectorIS3_SaIS3_EEEENS0_5__ops15_Iter_comp_iterISt4lessIS3_EEEEvT_SE_SE_RT0_ = comdat any

$_ZSt13__adjust_heapIN9__gnu_cxx17__normal_iteratorIPSt4pairIiiESt6vectorIS3_SaIS3_EEEElS3_NS0_5__ops15_Iter_comp_iterISt4lessIS3_EEEEvT_T0_SF_T1_T2_ = comdat any

$_ZN9__gnu_cxx5__ops15_Iter_comp_iterISt4lessISt4pairIiiEEEclINS_17__normal_iteratorIPS4_St6vectorIS4_SaIS4_EEEESD_EEbT_T0_ = comdat any

$_ZSt4moveIRN9__gnu_cxx5__ops15_Iter_comp_iterISt4lessISt4pairIiiEEEEEONSt16remove_referenceIT_E4typeEOSA_ = comdat any

$_ZN9__gnu_cxx5__ops14_Iter_comp_valISt4lessISt4pairIiiEEEC2EONS0_15_Iter_comp_iterIS5_EE = comdat any

$_ZNSt6vectorISt4pairIiiESaIS1_EED2Ev = comdat any

$_ZSt8_DestroyIPSt4pairIiiES1_EvT_S3_RSaIT0_E = comdat any

$_ZNSt12_Vector_baseISt4pairIiiESaIS1_EED2Ev = comdat any

$_ZSt8_DestroyIPSt4pairIiiEEvT_S3_ = comdat any

$_ZNSt12_Destroy_auxILb1EE9__destroyIPSt4pairIiiEEEvT_S5_ = comdat any

$_ZNSt12_Vector_baseISt4pairIiiESaIS1_EE12_Vector_implD2Ev = comdat any

$_ZNSaISt4pairIiiEED2Ev = comdat any

$_ZNSt15__new_allocatorISt4pairIiiEED2Ev = comdat any

$_ZNSt6threadC2Ev = comdat any

$_ZSt3refIiESt17reference_wrapperIT_ERS1_ = comdat any

$_ZNSt6threadC2IRFv8ECLgraphPKiPiRiiiEJRKS1_RKS3_RS4_St17reference_wrapperIiES5_RS2_EvEEOT_DpOT0_ = comdat any

$_ZNSt6threadaSEOS_ = comdat any

$_ZNSt6threadD2Ev = comdat any

$_ZNSt6thread2idC2Ev = comdat any

$_ZStanSt12memory_orderSt23__memory_order_modifier = comdat any

$_ZSt23__cmpexch_failure_orderSt12memory_order = comdat any

$_ZStorSt12memory_orderSt23__memory_order_modifier = comdat any

$_ZSt24__cmpexch_failure_order2St12memory_order = comdat any

$_ZNSt17reference_wrapperIiEC2IRivPiEEOT_ = comdat any

$_ZNSt17reference_wrapperIiE6_S_funERi = comdat any

$_ZSt7forwardIRiEOT_RNSt16remove_referenceIS1_E4typeE = comdat any

$_ZSt11__addressofIiEPT_RS0_ = comdat any

$_ZSt7forwardIRFv8ECLgraphPKiPiRiiiEEOT_RNSt16remove_referenceIS7_E4typeE = comdat any

$_ZSt7forwardIRK8ECLgraphEOT_RNSt16remove_referenceIS3_E4typeE = comdat any

$_ZSt7forwardIRKPKiEOT_RNSt16remove_referenceIS4_E4typeE = comdat any

$_ZSt7forwardIRPiEOT_RNSt16remove_referenceIS2_E4typeE = comdat any

$_ZSt7forwardISt17reference_wrapperIiEEOT_RNSt16remove_referenceIS2_E4typeE = comdat any

$_ZNSt6thread11_State_implINS_8_InvokerISt5tupleIJPFv8ECLgraphPKiPiRiiiES3_S5_S6_St17reference_wrapperIiEiiEEEEEC2IJRS8_RKS3_RKS5_RS6_SB_S7_RS4_EEEDpOT_ = comdat any

$_ZNSt10unique_ptrINSt6thread6_StateESt14default_deleteIS1_EEC2IS3_vEEPS1_ = comdat any

$_ZNSt10unique_ptrINSt6thread6_StateESt14default_deleteIS1_EED2Ev = comdat any

$_ZNSt6thread6_StateC2Ev = comdat any

$_ZNSt6thread8_InvokerISt5tupleIJPFv8ECLgraphPKiPiRiiiES2_S4_S5_St17reference_wrapperIiEiiEEEC2IJRS7_RKS2_RKS4_RS5_SA_S6_RS3_EEEDpOT_ = comdat any

$_ZNSt6thread11_State_implINS_8_InvokerISt5tupleIJPFv8ECLgraphPKiPiRiiiES3_S5_S6_St17reference_wrapperIiEiiEEEEED2Ev = comdat any

$_ZNSt6thread11_State_implINS_8_InvokerISt5tupleIJPFv8ECLgraphPKiPiRiiiES3_S5_S6_St17reference_wrapperIiEiiEEEEED0Ev = comdat any

$_ZNSt6thread11_State_implINS_8_InvokerISt5tupleIJPFv8ECLgraphPKiPiRiiiES3_S5_S6_St17reference_wrapperIiEiiEEEEE6_M_runEv = comdat any

$_ZNSt5tupleIJPFv8ECLgraphPKiPiRiiiES0_S2_S3_St17reference_wrapperIiEiiEEC2IJRS5_RKS0_RKS2_RS3_S8_S4_RS1_ELb1ELb1EEEDpOT_ = comdat any

$_ZNSt11_Tuple_implILm0EJPFv8ECLgraphPKiPiRiiiES0_S2_S3_St17reference_wrapperIiEiiEEC2IRS5_JRKS0_RKS2_RS3_S8_S4_RS1_EvEEOT_DpOT0_ = comdat any

$_ZNSt11_Tuple_implILm1EJ8ECLgraphPKiPiSt17reference_wrapperIiEiiEEC2IRKS0_JRKS2_RS3_S5_RiRS1_EvEEOT_DpOT0_ = comdat any

$_ZNSt10_Head_baseILm0EPFv8ECLgraphPKiPiRiiiELb0EEC2ERKS6_ = comdat any

$_ZNSt11_Tuple_implILm2EJPKiPiSt17reference_wrapperIiEiiEEC2IRKS1_JRS2_S4_RiRS0_EvEEOT_DpOT0_ = comdat any

$_ZNSt10_Head_baseILm1E8ECLgraphLb0EEC2ERKS0_ = comdat any

$_ZNSt11_Tuple_implILm3EJPiSt17reference_wrapperIiEiiEEC2IRS0_JS2_RiRKiEvEEOT_DpOT0_ = comdat any

$_ZNSt10_Head_baseILm2EPKiLb0EEC2ERKS1_ = comdat any

$_ZNSt11_Tuple_implILm4EJSt17reference_wrapperIiEiiEEC2IS1_JRiRKiEvEEOT_DpOT0_ = comdat any

$_ZNSt10_Head_baseILm3EPiLb0EEC2IRS0_EEOT_ = comdat any

$_ZNSt11_Tuple_implILm5EJiiEEC2IRiJRKiEvEEOT_DpOT0_ = comdat any

$_ZNSt10_Head_baseILm4ESt17reference_wrapperIiELb0EEC2IS1_EEOT_ = comdat any

$_ZNSt11_Tuple_implILm6EJiEEC2ERKi = comdat any

$_ZNSt10_Head_baseILm5EiLb0EEC2IRiEEOT_ = comdat any

$_ZNSt10_Head_baseILm6EiLb0EEC2ERKi = comdat any

$_ZNSt6thread8_InvokerISt5tupleIJPFv8ECLgraphPKiPiRiiiES2_S4_S5_St17reference_wrapperIiEiiEEEclEv = comdat any

$_ZNSt6thread8_InvokerISt5tupleIJPFv8ECLgraphPKiPiRiiiES2_S4_S5_St17reference_wrapperIiEiiEEE9_M_invokeIJLm0ELm1ELm2ELm3ELm4ELm5ELm6EEEEvSt12_Index_tupleIJXspT_EEE = comdat any

$_ZSt8__invokeIPFv8ECLgraphPKiPiRiiiEJS0_S2_S3_St17reference_wrapperIiEiiEENSt15__invoke_resultIT_JDpT0_EE4typeEOSA_DpOSB_ = comdat any

$_ZSt3getILm0EJPFv8ECLgraphPKiPiRiiiES0_S2_S3_St17reference_wrapperIiEiiEEONSt13tuple_elementIXT_ESt5tupleIJDpT0_EEE4typeEOSD_ = comdat any

$_ZSt4moveIRSt5tupleIJPFv8ECLgraphPKiPiRiiiES1_S3_S4_St17reference_wrapperIiEiiEEEONSt16remove_referenceIT_E4typeEOSD_ = comdat any

$_ZSt3getILm1EJPFv8ECLgraphPKiPiRiiiES0_S2_S3_St17reference_wrapperIiEiiEEONSt13tuple_elementIXT_ESt5tupleIJDpT0_EEE4typeEOSD_ = comdat any

$_ZSt3getILm2EJPFv8ECLgraphPKiPiRiiiES0_S2_S3_St17reference_wrapperIiEiiEEONSt13tuple_elementIXT_ESt5tupleIJDpT0_EEE4typeEOSD_ = comdat any

$_ZSt3getILm3EJPFv8ECLgraphPKiPiRiiiES0_S2_S3_St17reference_wrapperIiEiiEEONSt13tuple_elementIXT_ESt5tupleIJDpT0_EEE4typeEOSD_ = comdat any

$_ZSt3getILm4EJPFv8ECLgraphPKiPiRiiiES0_S2_S3_St17reference_wrapperIiEiiEEONSt13tuple_elementIXT_ESt5tupleIJDpT0_EEE4typeEOSD_ = comdat any

$_ZSt3getILm5EJPFv8ECLgraphPKiPiRiiiES0_S2_S3_St17reference_wrapperIiEiiEEONSt13tuple_elementIXT_ESt5tupleIJDpT0_EEE4typeEOSD_ = comdat any

$_ZSt3getILm6EJPFv8ECLgraphPKiPiRiiiES0_S2_S3_St17reference_wrapperIiEiiEEONSt13tuple_elementIXT_ESt5tupleIJDpT0_EEE4typeEOSD_ = comdat any

$_ZSt13__invoke_implIvPFv8ECLgraphPKiPiRiiiEJS0_S2_S3_St17reference_wrapperIiEiiEET_St14__invoke_otherOT0_DpOT1_ = comdat any

$_ZSt7forwardIPFv8ECLgraphPKiPiRiiiEEOT_RNSt16remove_referenceIS7_E4typeE = comdat any

$_ZSt7forwardI8ECLgraphEOT_RNSt16remove_referenceIS1_E4typeE = comdat any

$_ZSt7forwardIPKiEOT_RNSt16remove_referenceIS2_E4typeE = comdat any

$_ZSt7forwardIPiEOT_RNSt16remove_referenceIS1_E4typeE = comdat any

$_ZNKSt17reference_wrapperIiEcvRiEv = comdat any

$_ZNKSt17reference_wrapperIiE3getEv = comdat any

$_ZSt12__get_helperILm0EPFv8ECLgraphPKiPiRiiiEJS0_S2_S3_St17reference_wrapperIiEiiEERT0_RSt11_Tuple_implIXT_EJS9_DpT1_EE = comdat any

$_ZNSt11_Tuple_implILm0EJPFv8ECLgraphPKiPiRiiiES0_S2_S3_St17reference_wrapperIiEiiEE7_M_headERS9_ = comdat any

$_ZNSt10_Head_baseILm0EPFv8ECLgraphPKiPiRiiiELb0EE7_M_headERS7_ = comdat any

$_ZSt12__get_helperILm1E8ECLgraphJPKiPiSt17reference_wrapperIiEiiEERT0_RSt11_Tuple_implIXT_EJS6_DpT1_EE = comdat any

$_ZNSt11_Tuple_implILm1EJ8ECLgraphPKiPiSt17reference_wrapperIiEiiEE7_M_headERS6_ = comdat any

$_ZNSt10_Head_baseILm1E8ECLgraphLb0EE7_M_headERS1_ = comdat any

$_ZSt12__get_helperILm2EPKiJPiSt17reference_wrapperIiEiiEERT0_RSt11_Tuple_implIXT_EJS5_DpT1_EE = comdat any

$_ZNSt11_Tuple_implILm2EJPKiPiSt17reference_wrapperIiEiiEE7_M_headERS5_ = comdat any

$_ZNSt10_Head_baseILm2EPKiLb0EE7_M_headERS2_ = comdat any

$_ZSt12__get_helperILm3EPiJSt17reference_wrapperIiEiiEERT0_RSt11_Tuple_implIXT_EJS3_DpT1_EE = comdat any

$_ZNSt11_Tuple_implILm3EJPiSt17reference_wrapperIiEiiEE7_M_headERS3_ = comdat any

$_ZNSt10_Head_baseILm3EPiLb0EE7_M_headERS1_ = comdat any

$_ZSt12__get_helperILm4ESt17reference_wrapperIiEJiiEERT0_RSt11_Tuple_implIXT_EJS2_DpT1_EE = comdat any

$_ZNSt11_Tuple_implILm4EJSt17reference_wrapperIiEiiEE7_M_headERS2_ = comdat any

$_ZNSt10_Head_baseILm4ESt17reference_wrapperIiELb0EE7_M_headERS2_ = comdat any

$_ZSt12__get_helperILm5EiJiEERT0_RSt11_Tuple_implIXT_EJS0_DpT1_EE = comdat any

$_ZNSt11_Tuple_implILm5EJiiEE7_M_headERS0_ = comdat any

$_ZNSt10_Head_baseILm5EiLb0EE7_M_headERS0_ = comdat any

$_ZSt12__get_helperILm6EiJEERT0_RSt11_Tuple_implIXT_EJS0_DpT1_EE = comdat any

$_ZNSt11_Tuple_implILm6EJiEE7_M_headERS0_ = comdat any

$_ZNSt10_Head_baseILm6EiLb0EE7_M_headERS0_ = comdat any

$_ZNSt15__uniq_ptr_dataINSt6thread6_StateESt14default_deleteIS1_ELb1ELb1EECI2St15__uniq_ptr_implIS1_S3_EEPS1_ = comdat any

$_ZNSt15__uniq_ptr_implINSt6thread6_StateESt14default_deleteIS1_EEC2EPS1_ = comdat any

$_ZNSt5tupleIJPNSt6thread6_StateESt14default_deleteIS1_EEEC2ILb1ELb1EEEv = comdat any

$_ZNSt15__uniq_ptr_implINSt6thread6_StateESt14default_deleteIS1_EE6_M_ptrEv = comdat any

$_ZNSt11_Tuple_implILm0EJPNSt6thread6_StateESt14default_deleteIS1_EEEC2Ev = comdat any

$_ZNSt11_Tuple_implILm1EJSt14default_deleteINSt6thread6_StateEEEEC2Ev = comdat any

$_ZNSt10_Head_baseILm0EPNSt6thread6_StateELb0EEC2Ev = comdat any

$_ZNSt10_Head_baseILm1ESt14default_deleteINSt6thread6_StateEELb1EEC2Ev = comdat any

$_ZSt3getILm0EJPNSt6thread6_StateESt14default_deleteIS1_EEERNSt13tuple_elementIXT_ESt5tupleIJDpT0_EEE4typeERS9_ = comdat any

$_ZSt12__get_helperILm0EPNSt6thread6_StateEJSt14default_deleteIS1_EEERT0_RSt11_Tuple_implIXT_EJS5_DpT1_EE = comdat any

$_ZNSt11_Tuple_implILm0EJPNSt6thread6_StateESt14default_deleteIS1_EEE7_M_headERS5_ = comdat any

$_ZNSt10_Head_baseILm0EPNSt6thread6_StateELb0EE7_M_headERS3_ = comdat any

$_ZNSt10unique_ptrINSt6thread6_StateESt14default_deleteIS1_EE11get_deleterEv = comdat any

$_ZNKSt14default_deleteINSt6thread6_StateEEclEPS1_ = comdat any

$_ZSt4moveIRPNSt6thread6_StateEEONSt16remove_referenceIT_E4typeEOS5_ = comdat any

$_ZNSt15__uniq_ptr_implINSt6thread6_StateESt14default_deleteIS1_EE10_M_deleterEv = comdat any

$_ZSt3getILm1EJPNSt6thread6_StateESt14default_deleteIS1_EEERNSt13tuple_elementIXT_ESt5tupleIJDpT0_EEE4typeERS9_ = comdat any

$_ZSt12__get_helperILm1ESt14default_deleteINSt6thread6_StateEEJEERT0_RSt11_Tuple_implIXT_EJS4_DpT1_EE = comdat any

$_ZNSt11_Tuple_implILm1EJSt14default_deleteINSt6thread6_StateEEEE7_M_headERS4_ = comdat any

$_ZNSt10_Head_baseILm1ESt14default_deleteINSt6thread6_StateEELb1EE7_M_headERS4_ = comdat any

$_ZNKSt6thread8joinableEv = comdat any

$_ZNSt6thread4swapERS_ = comdat any

$_ZSteqNSt6thread2idES0_ = comdat any

$_ZSt4swapINSt6thread2idEENSt9enable_ifIXsr6__and_ISt6__not_ISt15__is_tuple_likeIT_EESt21is_move_constructibleIS5_ESt18is_move_assignableIS5_EEE5valueEvE4typeERS5_SE_ = comdat any

$_ZSt4moveIRNSt6thread2idEEONSt16remove_referenceIT_E4typeEOS4_ = comdat any

$_ZTVNSt6thread11_State_implINS_8_InvokerISt5tupleIJPFv8ECLgraphPKiPiRiiiES3_S5_S6_St17reference_wrapperIiEiiEEEEEE = comdat any

$_ZTSNSt6thread11_State_implINS_8_InvokerISt5tupleIJPFv8ECLgraphPKiPiRiiiES3_S5_S6_St17reference_wrapperIiEiiEEEEEE = comdat any

$_ZTINSt6thread11_State_implINS_8_InvokerISt5tupleIJPFv8ECLgraphPKiPiRiiiES3_S5_S6_St17reference_wrapperIiEiiEEEEEE = comdat any

@.str = private unnamed_addr constant [3 x i8] c"rb\00", align 1
@stderr = external global %struct._IO_FILE*, align 8
@.str.1 = private unnamed_addr constant [32 x i8] c"ERROR: could not open file %s\0A\0A\00", align 1
@.str.2 = private unnamed_addr constant [30 x i8] c"ERROR: failed to read nodes\0A\0A\00", align 1
@.str.3 = private unnamed_addr constant [30 x i8] c"ERROR: failed to read edges\0A\0A\00", align 1
@.str.4 = private unnamed_addr constant [36 x i8] c"input graph: %d nodes and %d edges\0A\00", align 1
@.str.5 = private unnamed_addr constant [36 x i8] c"ERROR: node or edge count too low\0A\0A\00", align 1
@.str.6 = private unnamed_addr constant [34 x i8] c"ERROR: memory allocation failed\0A\0A\00", align 1
@.str.7 = private unnamed_addr constant [44 x i8] c"ERROR: failed to read neighbor index list\0A\0A\00", align 1
@.str.8 = private unnamed_addr constant [38 x i8] c"ERROR: failed to read neighbor list\0A\0A\00", align 1
@.str.9 = private unnamed_addr constant [37 x i8] c"ERROR: failed to read edge weights\0A\0A\00", align 1
@.str.10 = private unnamed_addr constant [3 x i8] c"wb\00", align 1
@.str.11 = private unnamed_addr constant [31 x i8] c"ERROR: failed to write nodes\0A\0A\00", align 1
@.str.12 = private unnamed_addr constant [31 x i8] c"ERROR: failed to write edges\0A\0A\00", align 1
@.str.13 = private unnamed_addr constant [45 x i8] c"ERROR: failed to write neighbor index list\0A\0A\00", align 1
@.str.14 = private unnamed_addr constant [39 x i8] c"ERROR: failed to write neighbor list\0A\0A\00", align 1
@.str.15 = private unnamed_addr constant [38 x i8] c"ERROR: failed to write edge weights\0A\0A\00", align 1
@.str.16 = private unnamed_addr constant [31 x i8] c"sssp topology-driven CPP (%s)\0A\00", align 1
@.str.17 = private unnamed_addr constant [70 x i8] c"/home/lukas/git/Parallelization-Artifact-SC23/include/sssp_edge_cpp.h\00", align 1
@.str.18 = private unnamed_addr constant [76 x i8] c"USAGE: %s input_file_name source_node_number verify thread_count(optional)\0A\00", align 1
@.str.19 = private unnamed_addr constant [21 x i8] c"Generating weights.\0A\00", align 1
@.str.20 = private unnamed_addr constant [11 x i8] c"input: %s\0A\00", align 1
@.str.21 = private unnamed_addr constant [11 x i8] c"nodes: %d\0A\00", align 1
@.str.22 = private unnamed_addr constant [11 x i8] c"edges: %d\0A\00", align 1
@.str.23 = private unnamed_addr constant [52 x i8] c"ERROR: source_node_number must be between 0 and %d\0A\00", align 1
@.str.24 = private unnamed_addr constant [12 x i8] c"source: %d\0A\00", align 1
@.str.25 = private unnamed_addr constant [51 x i8] c"has to be 0 (turn off) or 1 (turn on) verification\00", align 1
@.str.26 = private unnamed_addr constant [13 x i8] c"Threads: %d\0A\00", align 1
@.str.27 = private unnamed_addr constant [16 x i8] c"runtime: %.6fs\0A\00", align 1
@.str.28 = private unnamed_addr constant [30 x i8] c"Throughput: %.6f gigaedges/s\0A\00", align 1
@.str.29 = private unnamed_addr constant [35 x i8] c"vertex %d has maximum distance %d\0A\00", align 1
@.str.30 = private unnamed_addr constant [60 x i8] c"ERROR: verification failed for node %d: %d   instead of %d\0A\00", align 1
@.str.31 = private unnamed_addr constant [22 x i8] c"verification passed\0A\0A\00", align 1
@.str.32 = private unnamed_addr constant [24 x i8] c"turn off verification\0A\0A\00", align 1
@.str.33 = private unnamed_addr constant [26 x i8] c"vector::_M_realloc_insert\00", align 1
@.str.34 = private unnamed_addr constant [16 x i8] c"iterations: %d\0A\00", align 1
@_ZTVNSt6thread11_State_implINS_8_InvokerISt5tupleIJPFv8ECLgraphPKiPiRiiiES3_S5_S6_St17reference_wrapperIiEiiEEEEEE = linkonce_odr unnamed_addr constant { [5 x i8*] } { [5 x i8*] [i8* null, i8* bitcast ({ i8*, i8*, i8* }* @_ZTINSt6thread11_State_implINS_8_InvokerISt5tupleIJPFv8ECLgraphPKiPiRiiiES3_S5_S6_St17reference_wrapperIiEiiEEEEEE to i8*), i8* bitcast (void (%"struct.std::thread::_State_impl"*)* @_ZNSt6thread11_State_implINS_8_InvokerISt5tupleIJPFv8ECLgraphPKiPiRiiiES3_S5_S6_St17reference_wrapperIiEiiEEEEED2Ev to i8*), i8* bitcast (void (%"struct.std::thread::_State_impl"*)* @_ZNSt6thread11_State_implINS_8_InvokerISt5tupleIJPFv8ECLgraphPKiPiRiiiES3_S5_S6_St17reference_wrapperIiEiiEEEEED0Ev to i8*), i8* bitcast (void (%"struct.std::thread::_State_impl"*)* @_ZNSt6thread11_State_implINS_8_InvokerISt5tupleIJPFv8ECLgraphPKiPiRiiiES3_S5_S6_St17reference_wrapperIiEiiEEEEE6_M_runEv to i8*)] }, comdat, align 8
@_ZTVN10__cxxabiv120__si_class_type_infoE = external global i8*
@_ZTSNSt6thread11_State_implINS_8_InvokerISt5tupleIJPFv8ECLgraphPKiPiRiiiES3_S5_S6_St17reference_wrapperIiEiiEEEEEE = linkonce_odr constant [111 x i8] c"NSt6thread11_State_implINS_8_InvokerISt5tupleIJPFv8ECLgraphPKiPiRiiiES3_S5_S6_St17reference_wrapperIiEiiEEEEEE\00", comdat, align 1
@_ZTINSt6thread6_StateE = external constant i8*
@_ZTINSt6thread11_State_implINS_8_InvokerISt5tupleIJPFv8ECLgraphPKiPiRiiiES3_S5_S6_St17reference_wrapperIiEiiEEEEEE = linkonce_odr constant { i8*, i8*, i8* } { i8* bitcast (i8** getelementptr inbounds (i8*, i8** @_ZTVN10__cxxabiv120__si_class_type_infoE, i64 2) to i8*), i8* getelementptr inbounds ([111 x i8], [111 x i8]* @_ZTSNSt6thread11_State_implINS_8_InvokerISt5tupleIJPFv8ECLgraphPKiPiRiiiES3_S5_S6_St17reference_wrapperIiEiiEEEEEE, i32 0, i32 0), i8* bitcast (i8** @_ZTINSt6thread6_StateE to i8*) }, comdat, align 8
@_ZTVNSt6thread6_StateE = external unnamed_addr constant { [5 x i8*] }, align 8
@.str.35 = private unnamed_addr constant [12 x i8] c"1:346;1:349\00", align 1
@.str.36 = private unnamed_addr constant [12 x i8] c"1:346;1:350\00", align 1
@.str.37 = private unnamed_addr constant [12 x i8] c"1:346;1:351\00", align 1
@.str.38 = private unnamed_addr constant [12 x i8] c"1:347;1:349\00", align 1
@.str.39 = private unnamed_addr constant [12 x i8] c"1:347;1:350\00", align 1
@.str.40 = private unnamed_addr constant [12 x i8] c"1:347;1:351\00", align 1
@.str.41 = private unnamed_addr constant [12 x i8] c"1:348;1:349\00", align 1
@.str.42 = private unnamed_addr constant [12 x i8] c"1:348;1:350\00", align 1
@.str.43 = private unnamed_addr constant [12 x i8] c"1:348;1:351\00", align 1
@.str.44 = private unnamed_addr constant [12 x i8] c"1:350;1:352\00", align 1
@.str.45 = private unnamed_addr constant [12 x i8] c"1:350;1:353\00", align 1
@.str.46 = private unnamed_addr constant [12 x i8] c"1:350;1:354\00", align 1
@.str.47 = private unnamed_addr constant [12 x i8] c"1:351;1:352\00", align 1
@.str.48 = private unnamed_addr constant [12 x i8] c"1:351;1:353\00", align 1
@.str.49 = private unnamed_addr constant [12 x i8] c"1:351;1:354\00", align 1
@.str.50 = private unnamed_addr constant [12 x i8] c"1:353;1:355\00", align 1
@.str.51 = private unnamed_addr constant [12 x i8] c"1:353;1:356\00", align 1
@.str.52 = private unnamed_addr constant [12 x i8] c"1:353;1:357\00", align 1
@.str.53 = private unnamed_addr constant [12 x i8] c"1:354;1:355\00", align 1
@.str.54 = private unnamed_addr constant [12 x i8] c"1:354;1:356\00", align 1
@.str.55 = private unnamed_addr constant [12 x i8] c"1:354;1:357\00", align 1
@.str.56 = private unnamed_addr constant [12 x i8] c"1:356;1:358\00", align 1
@.str.57 = private unnamed_addr constant [12 x i8] c"1:356;1:359\00", align 1
@.str.58 = private unnamed_addr constant [12 x i8] c"1:357;1:358\00", align 1
@.str.59 = private unnamed_addr constant [12 x i8] c"1:357;1:359\00", align 1
@.str.60 = private unnamed_addr constant [12 x i8] c"1:359;1:358\00", align 1
@.str.61 = private unnamed_addr constant [12 x i8] c"1:359;1:360\00", align 1
@.str.62 = private unnamed_addr constant [12 x i8] c"1:359;1:361\00", align 1
@.str.63 = private unnamed_addr constant [12 x i8] c"1:359;1:362\00", align 1
@.str.64 = private unnamed_addr constant [12 x i8] c"1:359;1:363\00", align 1
@.str.65 = private unnamed_addr constant [12 x i8] c"1:360;1:364\00", align 1
@.str.66 = private unnamed_addr constant [12 x i8] c"1:360;1:365\00", align 1
@.str.67 = private unnamed_addr constant [12 x i8] c"1:361;1:364\00", align 1
@.str.68 = private unnamed_addr constant [12 x i8] c"1:361;1:365\00", align 1
@.str.69 = private unnamed_addr constant [12 x i8] c"1:362;1:364\00", align 1
@.str.70 = private unnamed_addr constant [12 x i8] c"1:362;1:365\00", align 1
@.str.71 = private unnamed_addr constant [12 x i8] c"1:363;1:364\00", align 1
@.str.72 = private unnamed_addr constant [12 x i8] c"1:363;1:365\00", align 1
@.str.73 = private unnamed_addr constant [12 x i8] c"1:365;1:364\00", align 1
@.str.74 = private unnamed_addr constant [12 x i8] c"1:365;1:366\00", align 1
@.str.75 = private unnamed_addr constant [12 x i8] c"1:366;1:364\00", align 1
@.str.76 = private unnamed_addr constant [12 x i8] c"1:366;1:367\00", align 1
@.str.77 = private unnamed_addr constant [12 x i8] c"1:366;1:368\00", align 1
@.str.78 = private unnamed_addr constant [12 x i8] c"1:367;1:369\00", align 1
@.str.79 = private unnamed_addr constant [12 x i8] c"1:367;1:370\00", align 1
@.str.80 = private unnamed_addr constant [12 x i8] c"1:367;1:371\00", align 1
@.str.81 = private unnamed_addr constant [12 x i8] c"1:368;1:369\00", align 1
@.str.82 = private unnamed_addr constant [12 x i8] c"1:368;1:370\00", align 1
@.str.83 = private unnamed_addr constant [12 x i8] c"1:368;1:371\00", align 1
@.str.84 = private unnamed_addr constant [12 x i8] c"1:370;1:372\00", align 1
@.str.85 = private unnamed_addr constant [12 x i8] c"1:370;1:373\00", align 1
@.str.86 = private unnamed_addr constant [12 x i8] c"1:370;1:374\00", align 1
@.str.87 = private unnamed_addr constant [12 x i8] c"1:371;1:372\00", align 1
@.str.88 = private unnamed_addr constant [12 x i8] c"1:371;1:373\00", align 1
@.str.89 = private unnamed_addr constant [12 x i8] c"1:371;1:374\00", align 1
@.str.90 = private unnamed_addr constant [12 x i8] c"1:373;1:375\00", align 1
@.str.91 = private unnamed_addr constant [12 x i8] c"1:373;1:377\00", align 1
@.str.92 = private unnamed_addr constant [12 x i8] c"1:374;1:375\00", align 1
@.str.93 = private unnamed_addr constant [12 x i8] c"1:374;1:377\00", align 1
@.str.94 = private unnamed_addr constant [12 x i8] c"1:377;1:378\00", align 1
@.str.95 = private unnamed_addr constant [12 x i8] c"1:377;1:379\00", align 1
@.str.96 = private unnamed_addr constant [6 x i8] c"fname\00", align 1
@.str.97 = private unnamed_addr constant [4 x i8] c"cnt\00", align 1
@.str.98 = private unnamed_addr constant [2 x i8] c"f\00", align 1
@.str.99 = private unnamed_addr constant [7 x i8] c"stderr\00", align 1
@.str.100 = private unnamed_addr constant [21 x i8] c"GEPRESULT_agg.result\00", align 1
@.str.101 = private unnamed_addr constant [12 x i8] c"1:381;1:383\00", align 1
@.str.102 = private unnamed_addr constant [12 x i8] c"1:381;1:384\00", align 1
@.str.103 = private unnamed_addr constant [12 x i8] c"1:382;1:383\00", align 1
@.str.104 = private unnamed_addr constant [12 x i8] c"1:382;1:384\00", align 1
@.str.105 = private unnamed_addr constant [12 x i8] c"1:384;1:383\00", align 1
@.str.106 = private unnamed_addr constant [12 x i8] c"1:384;1:385\00", align 1
@.str.107 = private unnamed_addr constant [12 x i8] c"1:384;1:386\00", align 1
@.str.108 = private unnamed_addr constant [12 x i8] c"1:385;1:387\00", align 1
@.str.109 = private unnamed_addr constant [12 x i8] c"1:385;1:388\00", align 1
@.str.110 = private unnamed_addr constant [12 x i8] c"1:385;1:389\00", align 1
@.str.111 = private unnamed_addr constant [12 x i8] c"1:386;1:387\00", align 1
@.str.112 = private unnamed_addr constant [12 x i8] c"1:386;1:388\00", align 1
@.str.113 = private unnamed_addr constant [12 x i8] c"1:386;1:389\00", align 1
@.str.114 = private unnamed_addr constant [12 x i8] c"1:388;1:390\00", align 1
@.str.115 = private unnamed_addr constant [12 x i8] c"1:388;1:391\00", align 1
@.str.116 = private unnamed_addr constant [12 x i8] c"1:388;1:392\00", align 1
@.str.117 = private unnamed_addr constant [12 x i8] c"1:389;1:390\00", align 1
@.str.118 = private unnamed_addr constant [12 x i8] c"1:389;1:391\00", align 1
@.str.119 = private unnamed_addr constant [12 x i8] c"1:389;1:392\00", align 1
@.str.120 = private unnamed_addr constant [12 x i8] c"1:391;1:393\00", align 1
@.str.121 = private unnamed_addr constant [12 x i8] c"1:391;1:394\00", align 1
@.str.122 = private unnamed_addr constant [12 x i8] c"1:391;1:395\00", align 1
@.str.123 = private unnamed_addr constant [12 x i8] c"1:392;1:393\00", align 1
@.str.124 = private unnamed_addr constant [12 x i8] c"1:392;1:394\00", align 1
@.str.125 = private unnamed_addr constant [12 x i8] c"1:392;1:395\00", align 1
@.str.126 = private unnamed_addr constant [12 x i8] c"1:394;1:396\00", align 1
@.str.127 = private unnamed_addr constant [12 x i8] c"1:394;1:397\00", align 1
@.str.128 = private unnamed_addr constant [12 x i8] c"1:394;1:398\00", align 1
@.str.129 = private unnamed_addr constant [12 x i8] c"1:395;1:396\00", align 1
@.str.130 = private unnamed_addr constant [12 x i8] c"1:395;1:397\00", align 1
@.str.131 = private unnamed_addr constant [12 x i8] c"1:395;1:398\00", align 1
@.str.132 = private unnamed_addr constant [12 x i8] c"1:397;1:399\00", align 1
@.str.133 = private unnamed_addr constant [12 x i8] c"1:397;1:400\00", align 1
@.str.134 = private unnamed_addr constant [12 x i8] c"1:398;1:399\00", align 1
@.str.135 = private unnamed_addr constant [12 x i8] c"1:398;1:400\00", align 1
@.str.136 = private unnamed_addr constant [12 x i8] c"1:400;1:401\00", align 1
@.str.137 = private unnamed_addr constant [12 x i8] c"1:400;1:402\00", align 1
@.str.138 = private unnamed_addr constant [12 x i8] c"1:400;1:405\00", align 1
@.str.139 = private unnamed_addr constant [12 x i8] c"1:401;1:403\00", align 1
@.str.140 = private unnamed_addr constant [12 x i8] c"1:401;1:404\00", align 1
@.str.141 = private unnamed_addr constant [12 x i8] c"1:402;1:403\00", align 1
@.str.142 = private unnamed_addr constant [12 x i8] c"1:402;1:404\00", align 1
@.str.143 = private unnamed_addr constant [1 x i8] zeroinitializer, align 1
@.str.144 = private unnamed_addr constant [12 x i8] c"GEPRESULT_g\00", align 1
@.str.145 = private unnamed_addr constant [12 x i8] c"1:407;1:409\00", align 1
@.str.146 = private unnamed_addr constant [12 x i8] c"1:407;1:410\00", align 1
@.str.147 = private unnamed_addr constant [12 x i8] c"1:408;1:409\00", align 1
@.str.148 = private unnamed_addr constant [12 x i8] c"1:408;1:410\00", align 1
@.str.149 = private unnamed_addr constant [12 x i8] c"1:410;1:411\00", align 1
@.str.150 = private unnamed_addr constant [12 x i8] c"1:410;1:412\00", align 1
@.str.151 = private unnamed_addr constant [12 x i8] c"1:412;1:413\00", align 1
@.str.152 = private unnamed_addr constant [12 x i8] c"1:412;1:414\00", align 1
@.str.153 = private unnamed_addr constant [12 x i8] c"1:412;1:415\00", align 1
@.str.154 = private unnamed_addr constant [12 x i8] c"1:412;1:416\00", align 1
@.str.155 = private unnamed_addr constant [2 x i8] c"g\00", align 1
@.str.156 = private unnamed_addr constant [12 x i8] c"2:418;2:421\00", align 1
@.str.157 = private unnamed_addr constant [12 x i8] c"2:418;2:423\00", align 1
@.str.158 = private unnamed_addr constant [12 x i8] c"2:418;2:424\00", align 1
@.str.159 = private unnamed_addr constant [12 x i8] c"2:419;2:421\00", align 1
@.str.160 = private unnamed_addr constant [12 x i8] c"2:419;2:423\00", align 1
@.str.161 = private unnamed_addr constant [12 x i8] c"2:419;2:424\00", align 1
@.str.162 = private unnamed_addr constant [12 x i8] c"2:420;2:421\00", align 1
@.str.163 = private unnamed_addr constant [12 x i8] c"2:420;2:423\00", align 1
@.str.164 = private unnamed_addr constant [12 x i8] c"2:420;2:424\00", align 1
@.str.165 = private unnamed_addr constant [12 x i8] c"2:421;2:422\00", align 1
@.str.166 = private unnamed_addr constant [12 x i8] c"2:421;2:423\00", align 1
@.str.167 = private unnamed_addr constant [12 x i8] c"2:421;2:424\00", align 1
@.str.168 = private unnamed_addr constant [12 x i8] c"2:423;2:426\00", align 1
@.str.169 = private unnamed_addr constant [12 x i8] c"2:423;2:427\00", align 1
@.str.170 = private unnamed_addr constant [12 x i8] c"2:423;2:442\00", align 1
@.str.171 = private unnamed_addr constant [12 x i8] c"2:423;2:443\00", align 1
@.str.172 = private unnamed_addr constant [12 x i8] c"2:424;2:426\00", align 1
@.str.173 = private unnamed_addr constant [12 x i8] c"2:424;2:427\00", align 1
@.str.174 = private unnamed_addr constant [12 x i8] c"2:424;2:442\00", align 1
@.str.175 = private unnamed_addr constant [12 x i8] c"2:424;2:443\00", align 1
@.str.176 = private unnamed_addr constant [12 x i8] c"2:429;2:430\00", align 1
@.str.177 = private unnamed_addr constant [12 x i8] c"2:429;2:441\00", align 1
@.str.178 = private unnamed_addr constant [12 x i8] c"2:432;2:433\00", align 1
@.str.179 = private unnamed_addr constant [12 x i8] c"2:432;2:434\00", align 1
@.str.180 = private unnamed_addr constant [12 x i8] c"2:432;2:435\00", align 1
@.str.181 = private unnamed_addr constant [12 x i8] c"2:432;2:439\00", align 1
@.str.182 = private unnamed_addr constant [12 x i8] c"2:433;2:436\00", align 1
@.str.183 = private unnamed_addr constant [12 x i8] c"2:433;2:437\00", align 1
@.str.184 = private unnamed_addr constant [12 x i8] c"2:434;2:436\00", align 1
@.str.185 = private unnamed_addr constant [12 x i8] c"2:434;2:437\00", align 1
@.str.186 = private unnamed_addr constant [12 x i8] c"2:435;2:436\00", align 1
@.str.187 = private unnamed_addr constant [12 x i8] c"2:435;2:437\00", align 1
@.str.188 = private unnamed_addr constant [12 x i8] c"2:442;2:444\00", align 1
@.str.189 = private unnamed_addr constant [12 x i8] c"2:442;2:445\00", align 1
@.str.190 = private unnamed_addr constant [12 x i8] c"2:443;2:444\00", align 1
@.str.191 = private unnamed_addr constant [12 x i8] c"2:443;2:445\00", align 1
@.str.192 = private unnamed_addr constant [12 x i8] c"2:445;2:444\00", align 1
@.str.193 = private unnamed_addr constant [12 x i8] c"2:445;2:446\00", align 1
@.str.194 = private unnamed_addr constant [12 x i8] c"2:445;2:447\00", align 1
@.str.195 = private unnamed_addr constant [12 x i8] c"2:446;2:448\00", align 1
@.str.196 = private unnamed_addr constant [12 x i8] c"2:446;2:450\00", align 1
@.str.197 = private unnamed_addr constant [12 x i8] c"2:446;2:451\00", align 1
@.str.198 = private unnamed_addr constant [12 x i8] c"2:447;2:448\00", align 1
@.str.199 = private unnamed_addr constant [12 x i8] c"2:447;2:450\00", align 1
@.str.200 = private unnamed_addr constant [12 x i8] c"2:447;2:451\00", align 1
@.str.201 = private unnamed_addr constant [12 x i8] c"2:448;2:449\00", align 1
@.str.202 = private unnamed_addr constant [12 x i8] c"2:448;2:450\00", align 1
@.str.203 = private unnamed_addr constant [12 x i8] c"2:448;2:451\00", align 1
@.str.204 = private unnamed_addr constant [12 x i8] c"2:450;2:452\00", align 1
@.str.205 = private unnamed_addr constant [12 x i8] c"2:450;2:453\00", align 1
@.str.206 = private unnamed_addr constant [12 x i8] c"2:450;2:456\00", align 1
@.str.207 = private unnamed_addr constant [12 x i8] c"2:450;2:457\00", align 1
@.str.208 = private unnamed_addr constant [12 x i8] c"2:451;2:452\00", align 1
@.str.209 = private unnamed_addr constant [12 x i8] c"2:451;2:453\00", align 1
@.str.210 = private unnamed_addr constant [12 x i8] c"2:451;2:456\00", align 1
@.str.211 = private unnamed_addr constant [12 x i8] c"2:451;2:457\00", align 1
@.str.212 = private unnamed_addr constant [12 x i8] c"2:452;2:454\00", align 1
@.str.213 = private unnamed_addr constant [12 x i8] c"2:452;2:455\00", align 1
@.str.214 = private unnamed_addr constant [12 x i8] c"2:453;2:454\00", align 1
@.str.215 = private unnamed_addr constant [12 x i8] c"2:453;2:455\00", align 1
@.str.216 = private unnamed_addr constant [12 x i8] c"2:459;2:460\00", align 1
@.str.217 = private unnamed_addr constant [12 x i8] c"2:459;2:467\00", align 1
@.str.218 = private unnamed_addr constant [12 x i8] c"2:459;2:468\00", align 1
@.str.219 = private unnamed_addr constant [12 x i8] c"2:462;2:463\00", align 1
@.str.220 = private unnamed_addr constant [12 x i8] c"2:462;2:465\00", align 1
@.str.221 = private unnamed_addr constant [12 x i8] c"2:470;2:471\00", align 1
@.str.222 = private unnamed_addr constant [12 x i8] c"2:470;2:474\00", align 1
@.str.223 = private unnamed_addr constant [12 x i8] c"2:470;2:475\00", align 1
@.str.224 = private unnamed_addr constant [12 x i8] c"2:470;2:476\00", align 1
@.str.225 = private unnamed_addr constant [12 x i8] c"2:479;2:480\00", align 1
@.str.226 = private unnamed_addr constant [12 x i8] c"2:479;2:484\00", align 1
@.str.227 = private unnamed_addr constant [12 x i8] c"2:479;2:485\00", align 1
@.str.228 = private unnamed_addr constant [12 x i8] c"2:480;2:481\00", align 1
@.str.229 = private unnamed_addr constant [12 x i8] c"2:480;2:482\00", align 1
@.str.230 = private unnamed_addr constant [12 x i8] c"2:484;2:486\00", align 1
@.str.231 = private unnamed_addr constant [12 x i8] c"2:484;2:487\00", align 1
@.str.232 = private unnamed_addr constant [12 x i8] c"2:484;2:488\00", align 1
@.str.233 = private unnamed_addr constant [12 x i8] c"2:484;2:503\00", align 1
@.str.234 = private unnamed_addr constant [12 x i8] c"2:485;2:486\00", align 1
@.str.235 = private unnamed_addr constant [12 x i8] c"2:485;2:487\00", align 1
@.str.236 = private unnamed_addr constant [12 x i8] c"2:485;2:488\00", align 1
@.str.237 = private unnamed_addr constant [12 x i8] c"2:485;2:503\00", align 1
@.str.238 = private unnamed_addr constant [12 x i8] c"2:491;2:492\00", align 1
@.str.239 = private unnamed_addr constant [12 x i8] c"2:491;2:496\00", align 1
@.str.240 = private unnamed_addr constant [12 x i8] c"2:492;2:493\00", align 1
@.str.241 = private unnamed_addr constant [12 x i8] c"2:492;2:494\00", align 1
@.str.242 = private unnamed_addr constant [12 x i8] c"2:496;2:497\00", align 1
@.str.243 = private unnamed_addr constant [12 x i8] c"2:496;2:502\00", align 1
@.str.244 = private unnamed_addr constant [12 x i8] c"2:498;2:499\00", align 1
@.str.245 = private unnamed_addr constant [12 x i8] c"2:498;2:501\00", align 1
@.str.246 = private unnamed_addr constant [5 x i8] c".str\00", align 1
@.str.247 = private unnamed_addr constant [7 x i8] c".str.1\00", align 1
@.str.248 = private unnamed_addr constant [7 x i8] c".str.2\00", align 1
@.str.249 = private unnamed_addr constant [7 x i8] c".str.3\00", align 1
@.str.250 = private unnamed_addr constant [7 x i8] c".str.4\00", align 1
@.str.251 = private unnamed_addr constant [7 x i8] c".str.5\00", align 1
@.str.252 = private unnamed_addr constant [7 x i8] c".str.6\00", align 1
@.str.253 = private unnamed_addr constant [7 x i8] c".str.7\00", align 1
@.str.254 = private unnamed_addr constant [7 x i8] c".str.8\00", align 1
@.str.255 = private unnamed_addr constant [7 x i8] c".str.9\00", align 1
@.str.256 = private unnamed_addr constant [8 x i8] c".str.10\00", align 1
@.str.257 = private unnamed_addr constant [8 x i8] c".str.11\00", align 1
@.str.258 = private unnamed_addr constant [8 x i8] c".str.12\00", align 1
@.str.259 = private unnamed_addr constant [8 x i8] c".str.13\00", align 1
@.str.260 = private unnamed_addr constant [8 x i8] c".str.14\00", align 1
@.str.261 = private unnamed_addr constant [8 x i8] c".str.15\00", align 1
@.str.262 = private unnamed_addr constant [8 x i8] c".str.16\00", align 1
@.str.263 = private unnamed_addr constant [8 x i8] c".str.17\00", align 1
@.str.264 = private unnamed_addr constant [8 x i8] c".str.18\00", align 1
@.str.265 = private unnamed_addr constant [8 x i8] c".str.19\00", align 1
@.str.266 = private unnamed_addr constant [8 x i8] c".str.20\00", align 1
@.str.267 = private unnamed_addr constant [8 x i8] c".str.21\00", align 1
@.str.268 = private unnamed_addr constant [8 x i8] c".str.22\00", align 1
@.str.269 = private unnamed_addr constant [8 x i8] c".str.23\00", align 1
@.str.270 = private unnamed_addr constant [8 x i8] c".str.24\00", align 1
@.str.271 = private unnamed_addr constant [8 x i8] c".str.25\00", align 1
@.str.272 = private unnamed_addr constant [8 x i8] c".str.26\00", align 1
@.str.273 = private unnamed_addr constant [8 x i8] c".str.27\00", align 1
@.str.274 = private unnamed_addr constant [8 x i8] c".str.28\00", align 1
@.str.275 = private unnamed_addr constant [8 x i8] c".str.29\00", align 1
@.str.276 = private unnamed_addr constant [8 x i8] c".str.30\00", align 1
@.str.277 = private unnamed_addr constant [8 x i8] c".str.31\00", align 1
@.str.278 = private unnamed_addr constant [8 x i8] c".str.32\00", align 1
@.str.279 = private unnamed_addr constant [8 x i8] c".str.33\00", align 1
@.str.280 = private unnamed_addr constant [8 x i8] c".str.34\00", align 1
@.str.281 = private unnamed_addr constant [115 x i8] c"_ZTVNSt6thread11_State_implINS_8_InvokerISt5tupleIJPFv8ECLgraphPKiPiRiiiES3_S5_S6_St17reference_wrapperIiEiiEEEEEE\00", align 1
@.str.282 = private unnamed_addr constant [41 x i8] c"_ZTVN10__cxxabiv120__si_class_type_infoE\00", align 1
@.str.283 = private unnamed_addr constant [115 x i8] c"_ZTSNSt6thread11_State_implINS_8_InvokerISt5tupleIJPFv8ECLgraphPKiPiRiiiES3_S5_S6_St17reference_wrapperIiEiiEEEEEE\00", align 1
@.str.284 = private unnamed_addr constant [23 x i8] c"_ZTINSt6thread6_StateE\00", align 1
@.str.285 = private unnamed_addr constant [115 x i8] c"_ZTINSt6thread11_State_implINS_8_InvokerISt5tupleIJPFv8ECLgraphPKiPiRiiiES3_S5_S6_St17reference_wrapperIiEiiEEEEEE\00", align 1
@.str.286 = private unnamed_addr constant [23 x i8] c"_ZTVNSt6thread6_StateE\00", align 1
@.str.287 = private unnamed_addr constant [8 x i8] c".str.35\00", align 1
@.str.288 = private unnamed_addr constant [8 x i8] c".str.36\00", align 1
@.str.289 = private unnamed_addr constant [8 x i8] c".str.37\00", align 1
@.str.290 = private unnamed_addr constant [8 x i8] c".str.38\00", align 1
@.str.291 = private unnamed_addr constant [8 x i8] c".str.39\00", align 1
@.str.292 = private unnamed_addr constant [8 x i8] c".str.40\00", align 1
@.str.293 = private unnamed_addr constant [8 x i8] c".str.41\00", align 1
@.str.294 = private unnamed_addr constant [8 x i8] c".str.42\00", align 1
@.str.295 = private unnamed_addr constant [8 x i8] c".str.43\00", align 1
@.str.296 = private unnamed_addr constant [8 x i8] c".str.44\00", align 1
@.str.297 = private unnamed_addr constant [8 x i8] c".str.45\00", align 1
@.str.298 = private unnamed_addr constant [8 x i8] c".str.46\00", align 1
@.str.299 = private unnamed_addr constant [8 x i8] c".str.47\00", align 1
@.str.300 = private unnamed_addr constant [8 x i8] c".str.48\00", align 1
@.str.301 = private unnamed_addr constant [8 x i8] c".str.49\00", align 1
@.str.302 = private unnamed_addr constant [8 x i8] c".str.50\00", align 1
@.str.303 = private unnamed_addr constant [8 x i8] c".str.51\00", align 1
@.str.304 = private unnamed_addr constant [8 x i8] c".str.52\00", align 1
@.str.305 = private unnamed_addr constant [8 x i8] c".str.53\00", align 1
@.str.306 = private unnamed_addr constant [8 x i8] c".str.54\00", align 1
@.str.307 = private unnamed_addr constant [8 x i8] c".str.55\00", align 1
@.str.308 = private unnamed_addr constant [8 x i8] c".str.56\00", align 1
@.str.309 = private unnamed_addr constant [8 x i8] c".str.57\00", align 1
@.str.310 = private unnamed_addr constant [8 x i8] c".str.58\00", align 1
@.str.311 = private unnamed_addr constant [8 x i8] c".str.59\00", align 1
@.str.312 = private unnamed_addr constant [8 x i8] c".str.60\00", align 1
@.str.313 = private unnamed_addr constant [8 x i8] c".str.61\00", align 1
@.str.314 = private unnamed_addr constant [8 x i8] c".str.62\00", align 1
@.str.315 = private unnamed_addr constant [8 x i8] c".str.63\00", align 1
@.str.316 = private unnamed_addr constant [8 x i8] c".str.64\00", align 1
@.str.317 = private unnamed_addr constant [8 x i8] c".str.65\00", align 1
@.str.318 = private unnamed_addr constant [8 x i8] c".str.66\00", align 1
@.str.319 = private unnamed_addr constant [8 x i8] c".str.67\00", align 1
@.str.320 = private unnamed_addr constant [8 x i8] c".str.68\00", align 1
@.str.321 = private unnamed_addr constant [8 x i8] c".str.69\00", align 1
@.str.322 = private unnamed_addr constant [8 x i8] c".str.70\00", align 1
@.str.323 = private unnamed_addr constant [8 x i8] c".str.71\00", align 1
@.str.324 = private unnamed_addr constant [8 x i8] c".str.72\00", align 1
@.str.325 = private unnamed_addr constant [8 x i8] c".str.73\00", align 1
@.str.326 = private unnamed_addr constant [8 x i8] c".str.74\00", align 1
@.str.327 = private unnamed_addr constant [8 x i8] c".str.75\00", align 1
@.str.328 = private unnamed_addr constant [8 x i8] c".str.76\00", align 1
@.str.329 = private unnamed_addr constant [8 x i8] c".str.77\00", align 1
@.str.330 = private unnamed_addr constant [8 x i8] c".str.78\00", align 1
@.str.331 = private unnamed_addr constant [8 x i8] c".str.79\00", align 1
@.str.332 = private unnamed_addr constant [8 x i8] c".str.80\00", align 1
@.str.333 = private unnamed_addr constant [8 x i8] c".str.81\00", align 1
@.str.334 = private unnamed_addr constant [8 x i8] c".str.82\00", align 1
@.str.335 = private unnamed_addr constant [8 x i8] c".str.83\00", align 1
@.str.336 = private unnamed_addr constant [8 x i8] c".str.84\00", align 1
@.str.337 = private unnamed_addr constant [8 x i8] c".str.85\00", align 1
@.str.338 = private unnamed_addr constant [8 x i8] c".str.86\00", align 1
@.str.339 = private unnamed_addr constant [8 x i8] c".str.87\00", align 1
@.str.340 = private unnamed_addr constant [8 x i8] c".str.88\00", align 1
@.str.341 = private unnamed_addr constant [8 x i8] c".str.89\00", align 1
@.str.342 = private unnamed_addr constant [8 x i8] c".str.90\00", align 1
@.str.343 = private unnamed_addr constant [8 x i8] c".str.91\00", align 1
@.str.344 = private unnamed_addr constant [8 x i8] c".str.92\00", align 1
@.str.345 = private unnamed_addr constant [8 x i8] c".str.93\00", align 1
@.str.346 = private unnamed_addr constant [8 x i8] c".str.94\00", align 1
@.str.347 = private unnamed_addr constant [8 x i8] c".str.95\00", align 1
@.str.348 = private unnamed_addr constant [8 x i8] c".str.96\00", align 1
@.str.349 = private unnamed_addr constant [8 x i8] c".str.97\00", align 1
@.str.350 = private unnamed_addr constant [8 x i8] c".str.98\00", align 1
@.str.351 = private unnamed_addr constant [8 x i8] c".str.99\00", align 1
@.str.352 = private unnamed_addr constant [9 x i8] c".str.100\00", align 1
@.str.353 = private unnamed_addr constant [9 x i8] c".str.101\00", align 1
@.str.354 = private unnamed_addr constant [9 x i8] c".str.102\00", align 1
@.str.355 = private unnamed_addr constant [9 x i8] c".str.103\00", align 1
@.str.356 = private unnamed_addr constant [9 x i8] c".str.104\00", align 1
@.str.357 = private unnamed_addr constant [9 x i8] c".str.105\00", align 1
@.str.358 = private unnamed_addr constant [9 x i8] c".str.106\00", align 1
@.str.359 = private unnamed_addr constant [9 x i8] c".str.107\00", align 1
@.str.360 = private unnamed_addr constant [9 x i8] c".str.108\00", align 1
@.str.361 = private unnamed_addr constant [9 x i8] c".str.109\00", align 1
@.str.362 = private unnamed_addr constant [9 x i8] c".str.110\00", align 1
@.str.363 = private unnamed_addr constant [9 x i8] c".str.111\00", align 1
@.str.364 = private unnamed_addr constant [9 x i8] c".str.112\00", align 1
@.str.365 = private unnamed_addr constant [9 x i8] c".str.113\00", align 1
@.str.366 = private unnamed_addr constant [9 x i8] c".str.114\00", align 1
@.str.367 = private unnamed_addr constant [9 x i8] c".str.115\00", align 1
@.str.368 = private unnamed_addr constant [9 x i8] c".str.116\00", align 1
@.str.369 = private unnamed_addr constant [9 x i8] c".str.117\00", align 1
@.str.370 = private unnamed_addr constant [9 x i8] c".str.118\00", align 1
@.str.371 = private unnamed_addr constant [9 x i8] c".str.119\00", align 1
@.str.372 = private unnamed_addr constant [9 x i8] c".str.120\00", align 1
@.str.373 = private unnamed_addr constant [9 x i8] c".str.121\00", align 1
@.str.374 = private unnamed_addr constant [9 x i8] c".str.122\00", align 1
@.str.375 = private unnamed_addr constant [9 x i8] c".str.123\00", align 1
@.str.376 = private unnamed_addr constant [9 x i8] c".str.124\00", align 1
@.str.377 = private unnamed_addr constant [9 x i8] c".str.125\00", align 1
@.str.378 = private unnamed_addr constant [9 x i8] c".str.126\00", align 1
@.str.379 = private unnamed_addr constant [9 x i8] c".str.127\00", align 1
@.str.380 = private unnamed_addr constant [9 x i8] c".str.128\00", align 1
@.str.381 = private unnamed_addr constant [9 x i8] c".str.129\00", align 1
@.str.382 = private unnamed_addr constant [9 x i8] c".str.130\00", align 1
@.str.383 = private unnamed_addr constant [9 x i8] c".str.131\00", align 1
@.str.384 = private unnamed_addr constant [9 x i8] c".str.132\00", align 1
@.str.385 = private unnamed_addr constant [9 x i8] c".str.133\00", align 1
@.str.386 = private unnamed_addr constant [9 x i8] c".str.134\00", align 1
@.str.387 = private unnamed_addr constant [9 x i8] c".str.135\00", align 1
@.str.388 = private unnamed_addr constant [9 x i8] c".str.136\00", align 1
@.str.389 = private unnamed_addr constant [9 x i8] c".str.137\00", align 1
@.str.390 = private unnamed_addr constant [9 x i8] c".str.138\00", align 1
@.str.391 = private unnamed_addr constant [9 x i8] c".str.139\00", align 1
@.str.392 = private unnamed_addr constant [9 x i8] c".str.140\00", align 1
@.str.393 = private unnamed_addr constant [9 x i8] c".str.141\00", align 1
@.str.394 = private unnamed_addr constant [9 x i8] c".str.142\00", align 1
@.str.395 = private unnamed_addr constant [9 x i8] c".str.143\00", align 1
@.str.396 = private unnamed_addr constant [9 x i8] c".str.144\00", align 1
@.str.397 = private unnamed_addr constant [9 x i8] c".str.145\00", align 1
@.str.398 = private unnamed_addr constant [9 x i8] c".str.146\00", align 1
@.str.399 = private unnamed_addr constant [9 x i8] c".str.147\00", align 1
@.str.400 = private unnamed_addr constant [9 x i8] c".str.148\00", align 1
@.str.401 = private unnamed_addr constant [9 x i8] c".str.149\00", align 1
@.str.402 = private unnamed_addr constant [9 x i8] c".str.150\00", align 1
@.str.403 = private unnamed_addr constant [9 x i8] c".str.151\00", align 1
@.str.404 = private unnamed_addr constant [9 x i8] c".str.152\00", align 1
@.str.405 = private unnamed_addr constant [9 x i8] c".str.153\00", align 1
@.str.406 = private unnamed_addr constant [9 x i8] c".str.154\00", align 1
@.str.407 = private unnamed_addr constant [9 x i8] c".str.155\00", align 1
@.str.408 = private unnamed_addr constant [9 x i8] c".str.156\00", align 1
@.str.409 = private unnamed_addr constant [9 x i8] c".str.157\00", align 1
@.str.410 = private unnamed_addr constant [9 x i8] c".str.158\00", align 1
@.str.411 = private unnamed_addr constant [9 x i8] c".str.159\00", align 1
@.str.412 = private unnamed_addr constant [9 x i8] c".str.160\00", align 1
@.str.413 = private unnamed_addr constant [9 x i8] c".str.161\00", align 1
@.str.414 = private unnamed_addr constant [9 x i8] c".str.162\00", align 1
@.str.415 = private unnamed_addr constant [9 x i8] c".str.163\00", align 1
@.str.416 = private unnamed_addr constant [9 x i8] c".str.164\00", align 1
@.str.417 = private unnamed_addr constant [9 x i8] c".str.165\00", align 1
@.str.418 = private unnamed_addr constant [9 x i8] c".str.166\00", align 1
@.str.419 = private unnamed_addr constant [9 x i8] c".str.167\00", align 1
@.str.420 = private unnamed_addr constant [9 x i8] c".str.168\00", align 1
@.str.421 = private unnamed_addr constant [9 x i8] c".str.169\00", align 1
@.str.422 = private unnamed_addr constant [9 x i8] c".str.170\00", align 1
@.str.423 = private unnamed_addr constant [9 x i8] c".str.171\00", align 1
@.str.424 = private unnamed_addr constant [9 x i8] c".str.172\00", align 1
@.str.425 = private unnamed_addr constant [9 x i8] c".str.173\00", align 1
@.str.426 = private unnamed_addr constant [9 x i8] c".str.174\00", align 1
@.str.427 = private unnamed_addr constant [9 x i8] c".str.175\00", align 1
@.str.428 = private unnamed_addr constant [9 x i8] c".str.176\00", align 1
@.str.429 = private unnamed_addr constant [9 x i8] c".str.177\00", align 1
@.str.430 = private unnamed_addr constant [9 x i8] c".str.178\00", align 1
@.str.431 = private unnamed_addr constant [9 x i8] c".str.179\00", align 1
@.str.432 = private unnamed_addr constant [9 x i8] c".str.180\00", align 1
@.str.433 = private unnamed_addr constant [9 x i8] c".str.181\00", align 1
@.str.434 = private unnamed_addr constant [9 x i8] c".str.182\00", align 1
@.str.435 = private unnamed_addr constant [9 x i8] c".str.183\00", align 1
@.str.436 = private unnamed_addr constant [9 x i8] c".str.184\00", align 1
@.str.437 = private unnamed_addr constant [9 x i8] c".str.185\00", align 1
@.str.438 = private unnamed_addr constant [9 x i8] c".str.186\00", align 1
@.str.439 = private unnamed_addr constant [9 x i8] c".str.187\00", align 1
@.str.440 = private unnamed_addr constant [9 x i8] c".str.188\00", align 1
@.str.441 = private unnamed_addr constant [9 x i8] c".str.189\00", align 1
@.str.442 = private unnamed_addr constant [9 x i8] c".str.190\00", align 1
@.str.443 = private unnamed_addr constant [9 x i8] c".str.191\00", align 1
@.str.444 = private unnamed_addr constant [9 x i8] c".str.192\00", align 1
@.str.445 = private unnamed_addr constant [9 x i8] c".str.193\00", align 1
@.str.446 = private unnamed_addr constant [9 x i8] c".str.194\00", align 1
@.str.447 = private unnamed_addr constant [9 x i8] c".str.195\00", align 1
@.str.448 = private unnamed_addr constant [9 x i8] c".str.196\00", align 1
@.str.449 = private unnamed_addr constant [9 x i8] c".str.197\00", align 1
@.str.450 = private unnamed_addr constant [9 x i8] c".str.198\00", align 1
@.str.451 = private unnamed_addr constant [9 x i8] c".str.199\00", align 1
@.str.452 = private unnamed_addr constant [9 x i8] c".str.200\00", align 1
@.str.453 = private unnamed_addr constant [9 x i8] c".str.201\00", align 1
@.str.454 = private unnamed_addr constant [9 x i8] c".str.202\00", align 1
@.str.455 = private unnamed_addr constant [9 x i8] c".str.203\00", align 1
@.str.456 = private unnamed_addr constant [9 x i8] c".str.204\00", align 1
@.str.457 = private unnamed_addr constant [9 x i8] c".str.205\00", align 1
@.str.458 = private unnamed_addr constant [9 x i8] c".str.206\00", align 1
@.str.459 = private unnamed_addr constant [9 x i8] c".str.207\00", align 1
@.str.460 = private unnamed_addr constant [9 x i8] c".str.208\00", align 1
@.str.461 = private unnamed_addr constant [9 x i8] c".str.209\00", align 1
@.str.462 = private unnamed_addr constant [9 x i8] c".str.210\00", align 1
@.str.463 = private unnamed_addr constant [9 x i8] c".str.211\00", align 1
@.str.464 = private unnamed_addr constant [9 x i8] c".str.212\00", align 1
@.str.465 = private unnamed_addr constant [9 x i8] c".str.213\00", align 1
@.str.466 = private unnamed_addr constant [9 x i8] c".str.214\00", align 1
@.str.467 = private unnamed_addr constant [9 x i8] c".str.215\00", align 1
@.str.468 = private unnamed_addr constant [9 x i8] c".str.216\00", align 1
@.str.469 = private unnamed_addr constant [9 x i8] c".str.217\00", align 1
@.str.470 = private unnamed_addr constant [9 x i8] c".str.218\00", align 1
@.str.471 = private unnamed_addr constant [9 x i8] c".str.219\00", align 1
@.str.472 = private unnamed_addr constant [9 x i8] c".str.220\00", align 1
@.str.473 = private unnamed_addr constant [9 x i8] c".str.221\00", align 1
@.str.474 = private unnamed_addr constant [9 x i8] c".str.222\00", align 1
@.str.475 = private unnamed_addr constant [9 x i8] c".str.223\00", align 1
@.str.476 = private unnamed_addr constant [9 x i8] c".str.224\00", align 1
@.str.477 = private unnamed_addr constant [9 x i8] c".str.225\00", align 1
@.str.478 = private unnamed_addr constant [9 x i8] c".str.226\00", align 1
@.str.479 = private unnamed_addr constant [9 x i8] c".str.227\00", align 1
@.str.480 = private unnamed_addr constant [9 x i8] c".str.228\00", align 1
@.str.481 = private unnamed_addr constant [9 x i8] c".str.229\00", align 1
@.str.482 = private unnamed_addr constant [9 x i8] c".str.230\00", align 1
@.str.483 = private unnamed_addr constant [9 x i8] c".str.231\00", align 1
@.str.484 = private unnamed_addr constant [9 x i8] c".str.232\00", align 1
@.str.485 = private unnamed_addr constant [9 x i8] c".str.233\00", align 1
@.str.486 = private unnamed_addr constant [9 x i8] c".str.234\00", align 1
@.str.487 = private unnamed_addr constant [9 x i8] c".str.235\00", align 1
@.str.488 = private unnamed_addr constant [9 x i8] c".str.236\00", align 1
@.str.489 = private unnamed_addr constant [9 x i8] c".str.237\00", align 1
@.str.490 = private unnamed_addr constant [9 x i8] c".str.238\00", align 1
@.str.491 = private unnamed_addr constant [9 x i8] c".str.239\00", align 1
@.str.492 = private unnamed_addr constant [9 x i8] c".str.240\00", align 1
@.str.493 = private unnamed_addr constant [9 x i8] c".str.241\00", align 1
@.str.494 = private unnamed_addr constant [9 x i8] c".str.242\00", align 1
@.str.495 = private unnamed_addr constant [9 x i8] c".str.243\00", align 1
@.str.496 = private unnamed_addr constant [9 x i8] c".str.244\00", align 1
@.str.497 = private unnamed_addr constant [7 x i8] c"retval\00", align 1
@.str.498 = private unnamed_addr constant [5 x i8] c"argc\00", align 1
@.str.499 = private unnamed_addr constant [5 x i8] c"argv\00", align 1
@.str.500 = private unnamed_addr constant [2 x i8] c"i\00", align 1
@.str.501 = private unnamed_addr constant [2 x i8] c"j\00", align 1
@.str.502 = private unnamed_addr constant [4 x i8] c"nei\00", align 1
@.str.503 = private unnamed_addr constant [7 x i8] c"source\00", align 1
@.str.504 = private unnamed_addr constant [8 x i8] c"runveri\00", align 1
@.str.505 = private unnamed_addr constant [12 x i8] c"threadCount\00", align 1
@.str.506 = private unnamed_addr constant [9 x i8] c"countInt\00", align 1
@.str.507 = private unnamed_addr constant [3 x i8] c"sp\00", align 1
@.str.508 = private unnamed_addr constant [9 x i8] c"distance\00", align 1
@.str.509 = private unnamed_addr constant [5 x i8] c"runs\00", align 1
@.str.510 = private unnamed_addr constant [9 x i8] c"runtimes\00", align 1
@.str.511 = private unnamed_addr constant [4 x i8] c"med\00", align 1
@.str.512 = private unnamed_addr constant [8 x i8] c"maxnode\00", align 1
@.str.513 = private unnamed_addr constant [2 x i8] c"v\00", align 1
@.str.514 = private unnamed_addr constant [7 x i8] c"verify\00", align 1
@.str.515 = private unnamed_addr constant [15 x i8] c"GEPRESULT_argv\00", align 1
@.str.516 = private unnamed_addr constant [22 x i8] c"GEPRESULT_GEPRESULT_g\00", align 1
@.str.517 = private unnamed_addr constant [13 x i8] c"GEPRESULT_sp\00", align 1
@.str.518 = private unnamed_addr constant [19 x i8] c"GEPRESULT_runtimes\00", align 1
@.str.519 = private unnamed_addr constant [19 x i8] c"GEPRESULT_distance\00", align 1
@.str.520 = private unnamed_addr constant [17 x i8] c"GEPRESULT_verify\00", align 1
@.str.521 = private unnamed_addr constant [12 x i8] c"3:505;3:508\00", align 1
@.str.522 = private unnamed_addr constant [12 x i8] c"3:505;3:542\00", align 1
@.str.523 = private unnamed_addr constant [12 x i8] c"3:506;3:508\00", align 1
@.str.524 = private unnamed_addr constant [12 x i8] c"3:506;3:542\00", align 1
@.str.525 = private unnamed_addr constant [12 x i8] c"3:507;3:508\00", align 1
@.str.526 = private unnamed_addr constant [12 x i8] c"3:507;3:542\00", align 1
@.str.527 = private unnamed_addr constant [12 x i8] c"3:514;3:515\00", align 1
@.str.528 = private unnamed_addr constant [12 x i8] c"3:514;3:527\00", align 1
@.str.529 = private unnamed_addr constant [12 x i8] c"3:521;3:522\00", align 1
@.str.530 = private unnamed_addr constant [12 x i8] c"3:521;3:525\00", align 1
@.str.531 = private unnamed_addr constant [12 x i8] c"3:525;3:522\00", align 1
@.str.532 = private unnamed_addr constant [12 x i8] c"3:525;3:525\00", align 1
@.str.533 = private unnamed_addr constant [12 x i8] c"3:529;3:530\00", align 1
@.str.534 = private unnamed_addr constant [12 x i8] c"3:529;3:533\00", align 1
@.str.535 = private unnamed_addr constant [12 x i8] c"3:534;3:511\00", align 1
@.str.536 = private unnamed_addr constant [12 x i8] c"3:534;3:512\00", align 1
@.str.537 = private unnamed_addr constant [12 x i8] c"3:534;3:536\00", align 1
@.str.538 = private unnamed_addr constant [12 x i8] c"3:535;3:511\00", align 1
@.str.539 = private unnamed_addr constant [12 x i8] c"3:535;3:512\00", align 1
@.str.540 = private unnamed_addr constant [12 x i8] c"3:535;3:536\00", align 1
@.str.541 = private unnamed_addr constant [12 x i8] c"3:537;3:538\00", align 1
@.str.542 = private unnamed_addr constant [12 x i8] c"3:537;3:540\00", align 1
@.str.543 = private unnamed_addr constant [12 x i8] c"3:540;3:538\00", align 1
@.str.544 = private unnamed_addr constant [12 x i8] c"3:540;3:540\00", align 1
@.str.545 = private unnamed_addr constant [12 x i8] c"3:544;3:508\00", align 1
@.str.546 = private unnamed_addr constant [12 x i8] c"3:544;3:544\00", align 1
@.str.547 = private unnamed_addr constant [4 x i8] c"src\00", align 1
@.str.548 = private unnamed_addr constant [5 x i8] c"dist\00", align 1
@.str.549 = private unnamed_addr constant [12 x i8] c"saved_stack\00", align 1
@.str.550 = private unnamed_addr constant [12 x i8] c"__vla_expr0\00", align 1
@.str.551 = private unnamed_addr constant [9 x i8] c"exn.slot\00", align 1
@.str.552 = private unnamed_addr constant [16 x i8] c"ehselector.slot\00", align 1
@.str.553 = private unnamed_addr constant [6 x i8] c"start\00", align 1
@.str.554 = private unnamed_addr constant [4 x i8] c"end\00", align 1
@.str.555 = private unnamed_addr constant [8 x i8] c"goagain\00", align 1
@.str.556 = private unnamed_addr constant [5 x i8] c"iter\00", align 1
@.str.557 = private unnamed_addr constant [8 x i8] c"ref.tmp\00", align 1
@.str.558 = private unnamed_addr constant [9 x i8] c"ref.tmp1\00", align 1
@.str.559 = private unnamed_addr constant [8 x i8] c"runtime\00", align 1
@.str.560 = private unnamed_addr constant [14 x i8] c"threadHandles\00", align 1
@.str.561 = private unnamed_addr constant [19 x i8] c"GEPRESULT_ref.tmp1\00", align 1
@.str.562 = private unnamed_addr constant [14 x i8] c"GEPRESULT_end\00", align 1
@.str.563 = private unnamed_addr constant [16 x i8] c"GEPRESULT_start\00", align 1
@.str.564 = private unnamed_addr constant [12 x i8] c"2:547;2:552\00", align 1
@.str.565 = private unnamed_addr constant [12 x i8] c"2:547;2:554\00", align 1
@.str.566 = private unnamed_addr constant [12 x i8] c"2:548;2:552\00", align 1
@.str.567 = private unnamed_addr constant [12 x i8] c"2:548;2:554\00", align 1
@.str.568 = private unnamed_addr constant [12 x i8] c"2:549;2:552\00", align 1
@.str.569 = private unnamed_addr constant [12 x i8] c"2:549;2:554\00", align 1
@.str.570 = private unnamed_addr constant [12 x i8] c"2:550;2:552\00", align 1
@.str.571 = private unnamed_addr constant [12 x i8] c"2:550;2:554\00", align 1
@.str.572 = private unnamed_addr constant [6 x i8] c"array\00", align 1
@.str.573 = private unnamed_addr constant [2 x i8] c"n\00", align 1
@.str.574 = private unnamed_addr constant [7 x i8] c"median\00", align 1
@.str.575 = private unnamed_addr constant [16 x i8] c"GEPRESULT_array\00", align 1
@.str.576 = private unnamed_addr constant [12 x i8] c"2:560;2:561\00", align 1
@.str.577 = private unnamed_addr constant [12 x i8] c"2:560;2:563\00", align 1
@.str.578 = private unnamed_addr constant [12 x i8] c"2:569;2:570\00", align 1
@.str.579 = private unnamed_addr constant [12 x i8] c"2:569;2:587\00", align 1
@.str.580 = private unnamed_addr constant [12 x i8] c"2:575;2:576\00", align 1
@.str.581 = private unnamed_addr constant [12 x i8] c"2:575;2:577\00", align 1
@.str.582 = private unnamed_addr constant [12 x i8] c"2:575;2:586\00", align 1
@.str.583 = private unnamed_addr constant [12 x i8] c"2:576;2:578\00", align 1
@.str.584 = private unnamed_addr constant [12 x i8] c"2:576;2:581\00", align 1
@.str.585 = private unnamed_addr constant [12 x i8] c"2:577;2:578\00", align 1
@.str.586 = private unnamed_addr constant [12 x i8] c"2:577;2:581\00", align 1
@.str.587 = private unnamed_addr constant [3 x i8] c"pq\00", align 1
@.str.588 = private unnamed_addr constant [9 x i8] c"ref.tmp3\00", align 1
@.str.589 = private unnamed_addr constant [3 x i8] c"dv\00", align 1
@.str.590 = private unnamed_addr constant [2 x i8] c"d\00", align 1
@.str.591 = private unnamed_addr constant [10 x i8] c"ref.tmp32\00", align 1
@.str.592 = private unnamed_addr constant [10 x i8] c"ref.tmp33\00", align 1
@.str.593 = private unnamed_addr constant [15 x i8] c"GEPRESULT_dist\00", align 1
@.str.594 = private unnamed_addr constant [2 x i8] c"*\00", align 1
@.str.595 = private unnamed_addr constant [16 x i8] c"GEPRESULT_call9\00", align 1
@.str.596 = private unnamed_addr constant [12 x i8] c"3:594;3:595\00", align 1
@.str.597 = private unnamed_addr constant [12 x i8] c"3:594;3:596\00", align 1
@.str.598 = private unnamed_addr constant [12 x i8] c"3:594;3:598\00", align 1
@.str.599 = private unnamed_addr constant [5 x i8] c"size\00", align 1
@.str.600 = private unnamed_addr constant [5 x i8] c"temp\00", align 1
@.str.601 = private unnamed_addr constant [12 x i8] c"3:604;3:605\00", align 1
@.str.602 = private unnamed_addr constant [12 x i8] c"3:604;3:606\00", align 1
@.str.603 = private unnamed_addr constant [12 x i8] c"3:604;3:607\00", align 1
@.str.604 = private unnamed_addr constant [12 x i8] c"3:604;3:617\00", align 1
@.str.605 = private unnamed_addr constant [12 x i8] c"3:605;3:609\00", align 1
@.str.606 = private unnamed_addr constant [12 x i8] c"3:605;3:610\00", align 1
@.str.607 = private unnamed_addr constant [12 x i8] c"3:605;3:615\00", align 1
@.str.608 = private unnamed_addr constant [12 x i8] c"3:606;3:609\00", align 1
@.str.609 = private unnamed_addr constant [12 x i8] c"3:606;3:610\00", align 1
@.str.610 = private unnamed_addr constant [12 x i8] c"3:606;3:615\00", align 1
@.str.611 = private unnamed_addr constant [12 x i8] c"3:607;3:609\00", align 1
@.str.612 = private unnamed_addr constant [12 x i8] c"3:607;3:610\00", align 1
@.str.613 = private unnamed_addr constant [12 x i8] c"3:607;3:615\00", align 1
@.str.614 = private unnamed_addr constant [12 x i8] c"3:609;3:612\00", align 1
@.str.615 = private unnamed_addr constant [12 x i8] c"3:609;3:614\00", align 1
@.str.616 = private unnamed_addr constant [12 x i8] c"3:610;3:612\00", align 1
@.str.617 = private unnamed_addr constant [12 x i8] c"3:610;3:614\00", align 1
@.str.618 = private unnamed_addr constant [9 x i8] c"threadID\00", align 1
@.str.619 = private unnamed_addr constant [8 x i8] c"begEdge\00", align 1
@.str.620 = private unnamed_addr constant [8 x i8] c"endEdge\00", align 1
@.str.621 = private unnamed_addr constant [2 x i8] c"e\00", align 1
@.str.622 = private unnamed_addr constant [4 x i8] c"dst\00", align 1
@.str.623 = private unnamed_addr constant [2 x i8] c"s\00", align 1
@.str.624 = private unnamed_addr constant [9 x i8] c"new_dist\00", align 1
@.str.625 = private unnamed_addr constant [12 x i8] c"2:628;2:629\00", align 1
@.str.626 = private unnamed_addr constant [12 x i8] c"2:628;2:630\00", align 1
@.str.627 = private unnamed_addr constant [12 x i8] c"2:628;2:631\00", align 1
@.str.628 = private unnamed_addr constant [12 x i8] c"2:628;2:632\00", align 1
@.str.629 = private unnamed_addr constant [12 x i8] c"2:628;2:633\00", align 1
@.str.630 = private unnamed_addr constant [12 x i8] c"2:628;2:639\00", align 1
@.str.631 = private unnamed_addr constant [12 x i8] c"2:635;2:636\00", align 1
@.str.632 = private unnamed_addr constant [12 x i8] c"2:635;2:642\00", align 1
@.str.633 = private unnamed_addr constant [12 x i8] c"2:639;2:640\00", align 1
@.str.634 = private unnamed_addr constant [12 x i8] c"2:639;2:641\00", align 1
@.str.635 = private unnamed_addr constant [12 x i8] c"2:644;2:645\00", align 1
@.str.636 = private unnamed_addr constant [12 x i8] c"2:644;2:647\00", align 1
@.str.637 = private unnamed_addr constant [12 x i8] c"2:648;2:649\00", align 1
@.str.638 = private unnamed_addr constant [12 x i8] c"2:648;2:650\00", align 1
@.str.639 = private unnamed_addr constant [12 x i8] c"2:651;2:652\00", align 1
@.str.640 = private unnamed_addr constant [12 x i8] c"2:651;2:653\00", align 1
@.str.641 = private unnamed_addr constant [12 x i8] c"2:655;2:656\00", align 1
@.str.642 = private unnamed_addr constant [12 x i8] c"2:655;2:658\00", align 1
@.str.643 = private unnamed_addr constant [12 x i8] c"2:659;2:660\00", align 1
@.str.644 = private unnamed_addr constant [12 x i8] c"2:659;2:661\00", align 1
@.str.645 = private unnamed_addr constant [12 x i8] c"2:663;2:664\00", align 1
@.str.646 = private unnamed_addr constant [12 x i8] c"2:663;2:666\00", align 1
@.str.647 = private unnamed_addr constant [12 x i8] c"2:667;2:668\00", align 1
@.str.648 = private unnamed_addr constant [12 x i8] c"2:667;2:669\00", align 1
@.str.649 = private unnamed_addr constant [12 x i8] c"2:670;2:671\00", align 1
@.str.650 = private unnamed_addr constant [12 x i8] c"2:670;2:672\00", align 1
@.str.651 = private unnamed_addr constant [9 x i8] c"this.i.i\00", align 1
@.str.652 = private unnamed_addr constant [9 x i8] c"__i1.i.i\00", align 1
@.str.653 = private unnamed_addr constant [9 x i8] c"__i2.i.i\00", align 1
@.str.654 = private unnamed_addr constant [9 x i8] c"__m1.i.i\00", align 1
@.str.655 = private unnamed_addr constant [9 x i8] c"__m2.i.i\00", align 1
@.str.656 = private unnamed_addr constant [15 x i8] c".atomictmp.i.i\00", align 1
@.str.657 = private unnamed_addr constant [17 x i8] c"cmpxchg.bool.i.i\00", align 1
@.str.658 = private unnamed_addr constant [8 x i8] c"this.i2\00", align 1
@.str.659 = private unnamed_addr constant [7 x i8] c"__i1.i\00", align 1
@.str.660 = private unnamed_addr constant [7 x i8] c"__i2.i\00", align 1
@.str.661 = private unnamed_addr constant [7 x i8] c"__m.i3\00", align 1
@.str.662 = private unnamed_addr constant [7 x i8] c"this.i\00", align 1
@.str.663 = private unnamed_addr constant [6 x i8] c"__m.i\00", align 1
@.str.664 = private unnamed_addr constant [4 x i8] c"__b\00", align 1
@.str.665 = private unnamed_addr constant [14 x i8] c"atomic-temp.i\00", align 1
@.str.666 = private unnamed_addr constant [5 x i8] c"addr\00", align 1
@.str.667 = private unnamed_addr constant [4 x i8] c"val\00", align 1
@.str.668 = private unnamed_addr constant [5 x i8] c"oldv\00", align 1
@.str.669 = private unnamed_addr constant [18 x i8] c"GEPRESULT_this1.i\00", align 1
@.str.670 = private unnamed_addr constant [6 x i8] c"__i.i\00", align 1
@.str.671 = private unnamed_addr constant [13 x i8] c".atomictmp.i\00", align 1

; Function Attrs: noinline optnone uwtable
define void @_Z12readECLgraphPKc(%struct.ECLgraph* noalias sret align 8 %agg.result, i8* %fname) #0 !dbg !2177 {
entry:
  call void @__dp_func_entry(i32 16436, i32 0), !dp.md.instr.id !2181
  %fname.addr = alloca i8*, align 8, !dp.md.instr.id !2182
  %0 = ptrtoint i8** %fname.addr to i64, !dp.md.instr.id !2183
  %cnt = alloca i32, align 4, !dp.md.instr.id !2184
  %1 = ptrtoint i32* %cnt to i64, !dp.md.instr.id !2185
  %f = alloca %struct._IO_FILE*, align 8, !dp.md.instr.id !2186
  %2 = ptrtoint %struct._IO_FILE** %f to i64, !dp.md.instr.id !2187
  %3 = ptrtoint i8** %fname.addr to i64
  store i8* %fname, i8** %fname.addr, align 8, !dp.md.instr.id !2188
  call void @llvm.dbg.declare(metadata i8** %fname.addr, metadata !2189, metadata !DIExpression()), !dbg !2190, !dp.md.instr.id !2191
  call void @llvm.dbg.declare(metadata %struct.ECLgraph* %agg.result, metadata !2192, metadata !DIExpression()), !dbg !2193, !dp.md.instr.id !2194
  call void @llvm.dbg.declare(metadata i32* %cnt, metadata !2195, metadata !DIExpression()), !dbg !2196, !dp.md.instr.id !2197
  call void @llvm.dbg.declare(metadata %struct._IO_FILE** %f, metadata !2198, metadata !DIExpression()), !dbg !2199, !dp.md.instr.id !2200
  %4 = ptrtoint i8** %fname.addr to i64
  %5 = load i8*, i8** %fname.addr, align 8, !dbg !2201, !dp.md.instr.id !2202
  call void @__dp_call(i32 16441), !dbg !2203
  %call = call noalias %struct._IO_FILE* @fopen(i8* %5, i8* getelementptr inbounds ([3 x i8], [3 x i8]* @.str, i64 0, i64 0)), !dbg !2203, !dp.md.instr.id !2204
  %6 = ptrtoint %struct._IO_FILE** %f to i64
  store %struct._IO_FILE* %call, %struct._IO_FILE** %f, align 8, !dbg !2199, !dp.md.instr.id !2205
  %7 = ptrtoint %struct._IO_FILE** %f to i64
  %8 = load %struct._IO_FILE*, %struct._IO_FILE** %f, align 8, !dbg !2206, !dp.md.instr.id !2208
  %cmp = icmp eq %struct._IO_FILE* %8, null, !dbg !2209, !dp.md.instr.id !2210
  call void @__dp_incr_taken_branch_counter(i8* getelementptr inbounds ([12 x i8], [12 x i8]* @.str.35, i32 0, i32 0), i1 %cmp, i32 1), !dbg !2211, !dp.md.instr.id !2212
  call void @__dp_incr_taken_branch_counter(i8* getelementptr inbounds ([12 x i8], [12 x i8]* @.str.36, i32 0, i32 0), i1 %cmp, i32 0), !dbg !2211, !dp.md.instr.id !2213
  call void @__dp_incr_taken_branch_counter(i8* getelementptr inbounds ([12 x i8], [12 x i8]* @.str.37, i32 0, i32 0), i1 %cmp, i32 0), !dbg !2211, !dp.md.instr.id !2214
  call void @__dp_incr_taken_branch_counter(i8* getelementptr inbounds ([12 x i8], [12 x i8]* @.str.38, i32 0, i32 0), i1 %cmp, i32 1), !dbg !2211, !dp.md.instr.id !2215
  call void @__dp_incr_taken_branch_counter(i8* getelementptr inbounds ([12 x i8], [12 x i8]* @.str.39, i32 0, i32 0), i1 %cmp, i32 0), !dbg !2211, !dp.md.instr.id !2216
  call void @__dp_incr_taken_branch_counter(i8* getelementptr inbounds ([12 x i8], [12 x i8]* @.str.40, i32 0, i32 0), i1 %cmp, i32 0), !dbg !2211, !dp.md.instr.id !2217
  call void @__dp_incr_taken_branch_counter(i8* getelementptr inbounds ([12 x i8], [12 x i8]* @.str.41, i32 0, i32 0), i1 %cmp, i32 1), !dbg !2211, !dp.md.instr.id !2218
  call void @__dp_incr_taken_branch_counter(i8* getelementptr inbounds ([12 x i8], [12 x i8]* @.str.42, i32 0, i32 0), i1 %cmp, i32 0), !dbg !2211, !dp.md.instr.id !2219
  call void @__dp_incr_taken_branch_counter(i8* getelementptr inbounds ([12 x i8], [12 x i8]* @.str.43, i32 0, i32 0), i1 %cmp, i32 0), !dbg !2211, !dp.md.instr.id !2220
  call void @__dp_report_bb(i32 244)
  br i1 %cmp, label %if.then, label %if.end, !dbg !2211, !dp.md.instr.id !2221

if.then:                                          ; preds = %entry
  %9 = ptrtoint %struct._IO_FILE** @stderr to i64
  call void @__dp_read(i32 31, i64 %9, i8* getelementptr inbounds ([7 x i8], [7 x i8]* @.str.99, i32 0, i32 0))
  %10 = load %struct._IO_FILE*, %struct._IO_FILE** @stderr, align 8, !dbg !2222, !dp.md.instr.id !2224
  %11 = ptrtoint i8** %fname.addr to i64
  %12 = load i8*, i8** %fname.addr, align 8, !dbg !2225, !dp.md.instr.id !2226
  call void @__dp_call(i32 16441), !dbg !2227
  %call1 = call i32 (%struct._IO_FILE*, i8*, ...) @fprintf(%struct._IO_FILE* %10, i8* getelementptr inbounds ([32 x i8], [32 x i8]* @.str.1, i64 0, i64 0), i8* %12), !dbg !2227, !dp.md.instr.id !2228
  call void @__dp_finalize(i32 16441), !dbg !2229
  call void @exit(i32 -1) #15, !dbg !2229, !dp.md.instr.id !2230
  call void @__dp_report_bb(i32 245)
  unreachable, !dbg !2229, !dp.md.instr.id !2231

if.end:                                           ; preds = %entry
  %nodes = getelementptr inbounds %struct.ECLgraph, %struct.ECLgraph* %agg.result, i32 0, i32 0, !dbg !2232, !dp.md.instr.id !2233
  %13 = bitcast i32* %nodes to i8*, !dbg !2234, !dp.md.instr.id !2235
  %14 = ptrtoint %struct._IO_FILE** %f to i64
  %15 = load %struct._IO_FILE*, %struct._IO_FILE** %f, align 8, !dbg !2236, !dp.md.instr.id !2237
  call void @__dp_call(i32 16442), !dbg !2238
  %call2 = call i64 @fread(i8* %13, i64 4, i64 1, %struct._IO_FILE* %15), !dbg !2238, !dp.md.instr.id !2239
  %conv = trunc i64 %call2 to i32, !dbg !2238, !dp.md.instr.id !2240
  %16 = ptrtoint i32* %cnt to i64
  store i32 %conv, i32* %cnt, align 4, !dbg !2241, !dp.md.instr.id !2242
  %17 = ptrtoint i32* %cnt to i64
  %18 = load i32, i32* %cnt, align 4, !dbg !2243, !dp.md.instr.id !2245
  %cmp3 = icmp ne i32 %18, 1, !dbg !2246, !dp.md.instr.id !2247
  call void @__dp_incr_taken_branch_counter(i8* getelementptr inbounds ([12 x i8], [12 x i8]* @.str.44, i32 0, i32 0), i1 %cmp3, i32 1), !dbg !2248, !dp.md.instr.id !2249
  call void @__dp_incr_taken_branch_counter(i8* getelementptr inbounds ([12 x i8], [12 x i8]* @.str.45, i32 0, i32 0), i1 %cmp3, i32 0), !dbg !2248, !dp.md.instr.id !2250
  call void @__dp_incr_taken_branch_counter(i8* getelementptr inbounds ([12 x i8], [12 x i8]* @.str.46, i32 0, i32 0), i1 %cmp3, i32 0), !dbg !2248, !dp.md.instr.id !2251
  call void @__dp_incr_taken_branch_counter(i8* getelementptr inbounds ([12 x i8], [12 x i8]* @.str.47, i32 0, i32 0), i1 %cmp3, i32 1), !dbg !2248, !dp.md.instr.id !2252
  call void @__dp_incr_taken_branch_counter(i8* getelementptr inbounds ([12 x i8], [12 x i8]* @.str.48, i32 0, i32 0), i1 %cmp3, i32 0), !dbg !2248, !dp.md.instr.id !2253
  call void @__dp_incr_taken_branch_counter(i8* getelementptr inbounds ([12 x i8], [12 x i8]* @.str.49, i32 0, i32 0), i1 %cmp3, i32 0), !dbg !2248, !dp.md.instr.id !2254
  call void @__dp_report_bb(i32 246)
  br i1 %cmp3, label %if.then4, label %if.end6, !dbg !2248, !dp.md.instr.id !2255

if.then4:                                         ; preds = %if.end
  %19 = ptrtoint %struct._IO_FILE** @stderr to i64
  call void @__dp_read(i32 51, i64 %19, i8* getelementptr inbounds ([7 x i8], [7 x i8]* @.str.99, i32 0, i32 0))
  %20 = load %struct._IO_FILE*, %struct._IO_FILE** @stderr, align 8, !dbg !2256, !dp.md.instr.id !2258
  call void @__dp_call(i32 16442), !dbg !2259
  %call5 = call i32 (%struct._IO_FILE*, i8*, ...) @fprintf(%struct._IO_FILE* %20, i8* getelementptr inbounds ([30 x i8], [30 x i8]* @.str.2, i64 0, i64 0)), !dbg !2259, !dp.md.instr.id !2260
  call void @__dp_finalize(i32 16442), !dbg !2261
  call void @exit(i32 -1) #15, !dbg !2261, !dp.md.instr.id !2262
  unreachable, !dbg !2261, !dp.md.instr.id !2263

if.end6:                                          ; preds = %if.end
  %edges = getelementptr inbounds %struct.ECLgraph, %struct.ECLgraph* %agg.result, i32 0, i32 1, !dbg !2264, !dp.md.instr.id !2265
  %21 = bitcast i32* %edges to i8*, !dbg !2266, !dp.md.instr.id !2267
  %22 = ptrtoint %struct._IO_FILE** %f to i64
  %23 = load %struct._IO_FILE*, %struct._IO_FILE** %f, align 8, !dbg !2268, !dp.md.instr.id !2269
  call void @__dp_call(i32 16443), !dbg !2270
  %call7 = call i64 @fread(i8* %21, i64 4, i64 1, %struct._IO_FILE* %23), !dbg !2270, !dp.md.instr.id !2271
  %conv8 = trunc i64 %call7 to i32, !dbg !2270, !dp.md.instr.id !2272
  %24 = ptrtoint i32* %cnt to i64
  store i32 %conv8, i32* %cnt, align 4, !dbg !2273, !dp.md.instr.id !2274
  %25 = ptrtoint i32* %cnt to i64
  %26 = load i32, i32* %cnt, align 4, !dbg !2275, !dp.md.instr.id !2277
  %cmp9 = icmp ne i32 %26, 1, !dbg !2278, !dp.md.instr.id !2279
  call void @__dp_incr_taken_branch_counter(i8* getelementptr inbounds ([12 x i8], [12 x i8]* @.str.50, i32 0, i32 0), i1 %cmp9, i32 1), !dbg !2280, !dp.md.instr.id !2281
  call void @__dp_incr_taken_branch_counter(i8* getelementptr inbounds ([12 x i8], [12 x i8]* @.str.51, i32 0, i32 0), i1 %cmp9, i32 0), !dbg !2280, !dp.md.instr.id !2282
  call void @__dp_incr_taken_branch_counter(i8* getelementptr inbounds ([12 x i8], [12 x i8]* @.str.52, i32 0, i32 0), i1 %cmp9, i32 0), !dbg !2280, !dp.md.instr.id !2283
  call void @__dp_incr_taken_branch_counter(i8* getelementptr inbounds ([12 x i8], [12 x i8]* @.str.53, i32 0, i32 0), i1 %cmp9, i32 1), !dbg !2280, !dp.md.instr.id !2284
  call void @__dp_incr_taken_branch_counter(i8* getelementptr inbounds ([12 x i8], [12 x i8]* @.str.54, i32 0, i32 0), i1 %cmp9, i32 0), !dbg !2280, !dp.md.instr.id !2285
  call void @__dp_incr_taken_branch_counter(i8* getelementptr inbounds ([12 x i8], [12 x i8]* @.str.55, i32 0, i32 0), i1 %cmp9, i32 0), !dbg !2280, !dp.md.instr.id !2286
  call void @__dp_report_bb(i32 247)
  br i1 %cmp9, label %if.then10, label %if.end12, !dbg !2280, !dp.md.instr.id !2287

if.then10:                                        ; preds = %if.end6
  %27 = ptrtoint %struct._IO_FILE** @stderr to i64
  call void @__dp_read(i32 70, i64 %27, i8* getelementptr inbounds ([7 x i8], [7 x i8]* @.str.99, i32 0, i32 0))
  %28 = load %struct._IO_FILE*, %struct._IO_FILE** @stderr, align 8, !dbg !2288, !dp.md.instr.id !2290
  call void @__dp_call(i32 16443), !dbg !2291
  %call11 = call i32 (%struct._IO_FILE*, i8*, ...) @fprintf(%struct._IO_FILE* %28, i8* getelementptr inbounds ([30 x i8], [30 x i8]* @.str.3, i64 0, i64 0)), !dbg !2291, !dp.md.instr.id !2292
  call void @__dp_finalize(i32 16443), !dbg !2293
  call void @exit(i32 -1) #15, !dbg !2293, !dp.md.instr.id !2294
  unreachable, !dbg !2293, !dp.md.instr.id !2295

if.end12:                                         ; preds = %if.end6
  %nodes13 = getelementptr inbounds %struct.ECLgraph, %struct.ECLgraph* %agg.result, i32 0, i32 0, !dbg !2296, !dp.md.instr.id !2297
  %29 = ptrtoint i32* %nodes13 to i64
  call void @__dp_read(i32 75, i64 %29, i8* getelementptr inbounds ([21 x i8], [21 x i8]* @.str.100, i32 0, i32 0))
  %30 = load i32, i32* %nodes13, align 8, !dbg !2296, !dp.md.instr.id !2298
  %edges14 = getelementptr inbounds %struct.ECLgraph, %struct.ECLgraph* %agg.result, i32 0, i32 1, !dbg !2299, !dp.md.instr.id !2300
  %31 = ptrtoint i32* %edges14 to i64
  call void @__dp_read(i32 77, i64 %31, i8* getelementptr inbounds ([21 x i8], [21 x i8]* @.str.100, i32 0, i32 0))
  %32 = load i32, i32* %edges14, align 4, !dbg !2299, !dp.md.instr.id !2301
  call void @__dp_call(i32 16444), !dbg !2302
  %call15 = call i32 (i8*, ...) @printf(i8* getelementptr inbounds ([36 x i8], [36 x i8]* @.str.4, i64 0, i64 0), i32 %30, i32 %32), !dbg !2302, !dp.md.instr.id !2303
  %nodes16 = getelementptr inbounds %struct.ECLgraph, %struct.ECLgraph* %agg.result, i32 0, i32 0, !dbg !2304, !dp.md.instr.id !2306
  %33 = ptrtoint i32* %nodes16 to i64
  call void @__dp_read(i32 80, i64 %33, i8* getelementptr inbounds ([21 x i8], [21 x i8]* @.str.100, i32 0, i32 0))
  %34 = load i32, i32* %nodes16, align 8, !dbg !2304, !dp.md.instr.id !2307
  %cmp17 = icmp slt i32 %34, 1, !dbg !2308, !dp.md.instr.id !2309
  call void @__dp_incr_taken_branch_counter(i8* getelementptr inbounds ([12 x i8], [12 x i8]* @.str.56, i32 0, i32 0), i1 %cmp17, i32 1), !dbg !2310, !dp.md.instr.id !2311
  call void @__dp_incr_taken_branch_counter(i8* getelementptr inbounds ([12 x i8], [12 x i8]* @.str.57, i32 0, i32 0), i1 %cmp17, i32 0), !dbg !2310, !dp.md.instr.id !2312
  call void @__dp_incr_taken_branch_counter(i8* getelementptr inbounds ([12 x i8], [12 x i8]* @.str.58, i32 0, i32 0), i1 %cmp17, i32 1), !dbg !2310, !dp.md.instr.id !2313
  call void @__dp_incr_taken_branch_counter(i8* getelementptr inbounds ([12 x i8], [12 x i8]* @.str.59, i32 0, i32 0), i1 %cmp17, i32 0), !dbg !2310, !dp.md.instr.id !2314
  br i1 %cmp17, label %if.then20, label %lor.lhs.false, !dbg !2310, !dp.md.instr.id !2315

lor.lhs.false:                                    ; preds = %if.end12
  %edges18 = getelementptr inbounds %struct.ECLgraph, %struct.ECLgraph* %agg.result, i32 0, i32 1, !dbg !2316, !dp.md.instr.id !2317
  %35 = ptrtoint i32* %edges18 to i64
  call void @__dp_read(i32 88, i64 %35, i8* getelementptr inbounds ([21 x i8], [21 x i8]* @.str.100, i32 0, i32 0))
  %36 = load i32, i32* %edges18, align 4, !dbg !2316, !dp.md.instr.id !2318
  %cmp19 = icmp slt i32 %36, 0, !dbg !2319, !dp.md.instr.id !2320
  call void @__dp_incr_taken_branch_counter(i8* getelementptr inbounds ([12 x i8], [12 x i8]* @.str.60, i32 0, i32 0), i1 %cmp19, i32 1), !dbg !2321, !dp.md.instr.id !2322
  call void @__dp_incr_taken_branch_counter(i8* getelementptr inbounds ([12 x i8], [12 x i8]* @.str.61, i32 0, i32 0), i1 %cmp19, i32 0), !dbg !2321, !dp.md.instr.id !2323
  call void @__dp_incr_taken_branch_counter(i8* getelementptr inbounds ([12 x i8], [12 x i8]* @.str.62, i32 0, i32 0), i1 %cmp19, i32 0), !dbg !2321, !dp.md.instr.id !2324
  call void @__dp_incr_taken_branch_counter(i8* getelementptr inbounds ([12 x i8], [12 x i8]* @.str.63, i32 0, i32 0), i1 %cmp19, i32 0), !dbg !2321, !dp.md.instr.id !2325
  call void @__dp_incr_taken_branch_counter(i8* getelementptr inbounds ([12 x i8], [12 x i8]* @.str.64, i32 0, i32 0), i1 %cmp19, i32 0), !dbg !2321, !dp.md.instr.id !2326
  br i1 %cmp19, label %if.then20, label %if.end22, !dbg !2321, !dp.md.instr.id !2327

if.then20:                                        ; preds = %lor.lhs.false, %if.end12
  %37 = ptrtoint %struct._IO_FILE** @stderr to i64
  call void @__dp_read(i32 96, i64 %37, i8* getelementptr inbounds ([7 x i8], [7 x i8]* @.str.99, i32 0, i32 0))
  %38 = load %struct._IO_FILE*, %struct._IO_FILE** @stderr, align 8, !dbg !2328, !dp.md.instr.id !2330
  call void @__dp_call(i32 16445), !dbg !2331
  %call21 = call i32 (%struct._IO_FILE*, i8*, ...) @fprintf(%struct._IO_FILE* %38, i8* getelementptr inbounds ([36 x i8], [36 x i8]* @.str.5, i64 0, i64 0)), !dbg !2331, !dp.md.instr.id !2332
  call void @__dp_finalize(i32 16445), !dbg !2333
  call void @exit(i32 -1) #15, !dbg !2333, !dp.md.instr.id !2334
  unreachable, !dbg !2333, !dp.md.instr.id !2335

if.end22:                                         ; preds = %lor.lhs.false
  %nodes23 = getelementptr inbounds %struct.ECLgraph, %struct.ECLgraph* %agg.result, i32 0, i32 0, !dbg !2336, !dp.md.instr.id !2337
  %39 = ptrtoint i32* %nodes23 to i64
  call void @__dp_read(i32 101, i64 %39, i8* getelementptr inbounds ([21 x i8], [21 x i8]* @.str.100, i32 0, i32 0))
  %40 = load i32, i32* %nodes23, align 8, !dbg !2336, !dp.md.instr.id !2338
  %add = add nsw i32 %40, 1, !dbg !2339, !dp.md.instr.id !2340
  %conv24 = sext i32 %add to i64, !dbg !2341, !dp.md.instr.id !2342
  %mul = mul i64 %conv24, 4, !dbg !2343, !dp.md.instr.id !2344
  %call25 = call noalias i8* @malloc(i64 %mul) #14, !dbg !2345, !dp.md.instr.id !2346
  %41 = ptrtoint i8* %call25 to i64, !dp.md.instr.id !2347
  call void @__dp_new(i32 16447, i64 %41, i64 %41, i64 %mul), !dbg !2348, !dp.md.instr.id !2349
  %42 = bitcast i8* %call25 to i32*, !dbg !2348, !dp.md.instr.id !2350
  %nindex = getelementptr inbounds %struct.ECLgraph, %struct.ECLgraph* %agg.result, i32 0, i32 2, !dbg !2351, !dp.md.instr.id !2352
  %43 = ptrtoint i32** %nindex to i64
  call void @__dp_write(i32 110, i64 %43, i8* getelementptr inbounds ([21 x i8], [21 x i8]* @.str.100, i32 0, i32 0))
  store i32* %42, i32** %nindex, align 8, !dbg !2353, !dp.md.instr.id !2354
  %edges26 = getelementptr inbounds %struct.ECLgraph, %struct.ECLgraph* %agg.result, i32 0, i32 1, !dbg !2355, !dp.md.instr.id !2356
  %44 = ptrtoint i32* %edges26 to i64
  call void @__dp_read(i32 112, i64 %44, i8* getelementptr inbounds ([21 x i8], [21 x i8]* @.str.100, i32 0, i32 0))
  %45 = load i32, i32* %edges26, align 4, !dbg !2355, !dp.md.instr.id !2357
  %conv27 = sext i32 %45 to i64, !dbg !2358, !dp.md.instr.id !2359
  %mul28 = mul i64 %conv27, 4, !dbg !2360, !dp.md.instr.id !2361
  %call29 = call noalias i8* @malloc(i64 %mul28) #14, !dbg !2362, !dp.md.instr.id !2363
  %46 = ptrtoint i8* %call29 to i64, !dp.md.instr.id !2364
  call void @__dp_new(i32 16448, i64 %46, i64 %46, i64 %mul28), !dbg !2365, !dp.md.instr.id !2366
  %47 = bitcast i8* %call29 to i32*, !dbg !2365, !dp.md.instr.id !2367
  %nlist = getelementptr inbounds %struct.ECLgraph, %struct.ECLgraph* %agg.result, i32 0, i32 3, !dbg !2368, !dp.md.instr.id !2369
  %48 = ptrtoint i32** %nlist to i64
  call void @__dp_write(i32 120, i64 %48, i8* getelementptr inbounds ([21 x i8], [21 x i8]* @.str.100, i32 0, i32 0))
  store i32* %47, i32** %nlist, align 8, !dbg !2370, !dp.md.instr.id !2371
  %edges30 = getelementptr inbounds %struct.ECLgraph, %struct.ECLgraph* %agg.result, i32 0, i32 1, !dbg !2372, !dp.md.instr.id !2373
  %49 = ptrtoint i32* %edges30 to i64
  call void @__dp_read(i32 122, i64 %49, i8* getelementptr inbounds ([21 x i8], [21 x i8]* @.str.100, i32 0, i32 0))
  %50 = load i32, i32* %edges30, align 4, !dbg !2372, !dp.md.instr.id !2374
  %conv31 = sext i32 %50 to i64, !dbg !2375, !dp.md.instr.id !2376
  %mul32 = mul i64 %conv31, 4, !dbg !2377, !dp.md.instr.id !2378
  %call33 = call noalias i8* @malloc(i64 %mul32) #14, !dbg !2379, !dp.md.instr.id !2380
  %51 = ptrtoint i8* %call33 to i64, !dp.md.instr.id !2381
  call void @__dp_new(i32 16449, i64 %51, i64 %51, i64 %mul32), !dbg !2382, !dp.md.instr.id !2383
  %52 = bitcast i8* %call33 to i32*, !dbg !2382, !dp.md.instr.id !2384
  %eweight = getelementptr inbounds %struct.ECLgraph, %struct.ECLgraph* %agg.result, i32 0, i32 4, !dbg !2385, !dp.md.instr.id !2386
  %53 = ptrtoint i32** %eweight to i64
  call void @__dp_write(i32 130, i64 %53, i8* getelementptr inbounds ([21 x i8], [21 x i8]* @.str.100, i32 0, i32 0))
  store i32* %52, i32** %eweight, align 8, !dbg !2387, !dp.md.instr.id !2388
  %nindex34 = getelementptr inbounds %struct.ECLgraph, %struct.ECLgraph* %agg.result, i32 0, i32 2, !dbg !2389, !dp.md.instr.id !2391
  %54 = ptrtoint i32** %nindex34 to i64
  call void @__dp_read(i32 132, i64 %54, i8* getelementptr inbounds ([21 x i8], [21 x i8]* @.str.100, i32 0, i32 0))
  %55 = load i32*, i32** %nindex34, align 8, !dbg !2389, !dp.md.instr.id !2392
  %cmp35 = icmp eq i32* %55, null, !dbg !2393, !dp.md.instr.id !2394
  call void @__dp_incr_taken_branch_counter(i8* getelementptr inbounds ([12 x i8], [12 x i8]* @.str.65, i32 0, i32 0), i1 %cmp35, i32 1), !dbg !2395, !dp.md.instr.id !2396
  call void @__dp_incr_taken_branch_counter(i8* getelementptr inbounds ([12 x i8], [12 x i8]* @.str.66, i32 0, i32 0), i1 %cmp35, i32 0), !dbg !2395, !dp.md.instr.id !2397
  call void @__dp_incr_taken_branch_counter(i8* getelementptr inbounds ([12 x i8], [12 x i8]* @.str.67, i32 0, i32 0), i1 %cmp35, i32 1), !dbg !2395, !dp.md.instr.id !2398
  call void @__dp_incr_taken_branch_counter(i8* getelementptr inbounds ([12 x i8], [12 x i8]* @.str.68, i32 0, i32 0), i1 %cmp35, i32 0), !dbg !2395, !dp.md.instr.id !2399
  call void @__dp_incr_taken_branch_counter(i8* getelementptr inbounds ([12 x i8], [12 x i8]* @.str.69, i32 0, i32 0), i1 %cmp35, i32 1), !dbg !2395, !dp.md.instr.id !2400
  call void @__dp_incr_taken_branch_counter(i8* getelementptr inbounds ([12 x i8], [12 x i8]* @.str.70, i32 0, i32 0), i1 %cmp35, i32 0), !dbg !2395, !dp.md.instr.id !2401
  call void @__dp_incr_taken_branch_counter(i8* getelementptr inbounds ([12 x i8], [12 x i8]* @.str.71, i32 0, i32 0), i1 %cmp35, i32 1), !dbg !2395, !dp.md.instr.id !2402
  call void @__dp_incr_taken_branch_counter(i8* getelementptr inbounds ([12 x i8], [12 x i8]* @.str.72, i32 0, i32 0), i1 %cmp35, i32 0), !dbg !2395, !dp.md.instr.id !2403
  br i1 %cmp35, label %if.then42, label %lor.lhs.false36, !dbg !2395, !dp.md.instr.id !2404

lor.lhs.false36:                                  ; preds = %if.end22
  %nlist37 = getelementptr inbounds %struct.ECLgraph, %struct.ECLgraph* %agg.result, i32 0, i32 3, !dbg !2405, !dp.md.instr.id !2406
  %56 = ptrtoint i32** %nlist37 to i64
  call void @__dp_read(i32 144, i64 %56, i8* getelementptr inbounds ([21 x i8], [21 x i8]* @.str.100, i32 0, i32 0))
  %57 = load i32*, i32** %nlist37, align 8, !dbg !2405, !dp.md.instr.id !2407
  %cmp38 = icmp eq i32* %57, null, !dbg !2408, !dp.md.instr.id !2409
  call void @__dp_incr_taken_branch_counter(i8* getelementptr inbounds ([12 x i8], [12 x i8]* @.str.73, i32 0, i32 0), i1 %cmp38, i32 1), !dbg !2410, !dp.md.instr.id !2411
  call void @__dp_incr_taken_branch_counter(i8* getelementptr inbounds ([12 x i8], [12 x i8]* @.str.74, i32 0, i32 0), i1 %cmp38, i32 0), !dbg !2410, !dp.md.instr.id !2412
  br i1 %cmp38, label %if.then42, label %lor.lhs.false39, !dbg !2410, !dp.md.instr.id !2413

lor.lhs.false39:                                  ; preds = %lor.lhs.false36
  %eweight40 = getelementptr inbounds %struct.ECLgraph, %struct.ECLgraph* %agg.result, i32 0, i32 4, !dbg !2414, !dp.md.instr.id !2415
  %58 = ptrtoint i32** %eweight40 to i64
  call void @__dp_read(i32 150, i64 %58, i8* getelementptr inbounds ([21 x i8], [21 x i8]* @.str.100, i32 0, i32 0))
  %59 = load i32*, i32** %eweight40, align 8, !dbg !2414, !dp.md.instr.id !2416
  %cmp41 = icmp eq i32* %59, null, !dbg !2417, !dp.md.instr.id !2418
  call void @__dp_incr_taken_branch_counter(i8* getelementptr inbounds ([12 x i8], [12 x i8]* @.str.75, i32 0, i32 0), i1 %cmp41, i32 1), !dbg !2419, !dp.md.instr.id !2420
  call void @__dp_incr_taken_branch_counter(i8* getelementptr inbounds ([12 x i8], [12 x i8]* @.str.76, i32 0, i32 0), i1 %cmp41, i32 0), !dbg !2419, !dp.md.instr.id !2421
  call void @__dp_incr_taken_branch_counter(i8* getelementptr inbounds ([12 x i8], [12 x i8]* @.str.77, i32 0, i32 0), i1 %cmp41, i32 0), !dbg !2419, !dp.md.instr.id !2422
  br i1 %cmp41, label %if.then42, label %if.end44, !dbg !2419, !dp.md.instr.id !2423

if.then42:                                        ; preds = %lor.lhs.false39, %lor.lhs.false36, %if.end22
  %60 = ptrtoint %struct._IO_FILE** @stderr to i64
  call void @__dp_read(i32 156, i64 %60, i8* getelementptr inbounds ([7 x i8], [7 x i8]* @.str.99, i32 0, i32 0))
  %61 = load %struct._IO_FILE*, %struct._IO_FILE** @stderr, align 8, !dbg !2424, !dp.md.instr.id !2426
  call void @__dp_call(i32 16450), !dbg !2427
  %call43 = call i32 (%struct._IO_FILE*, i8*, ...) @fprintf(%struct._IO_FILE* %61, i8* getelementptr inbounds ([34 x i8], [34 x i8]* @.str.6, i64 0, i64 0)), !dbg !2427, !dp.md.instr.id !2428
  call void @__dp_finalize(i32 16450), !dbg !2429
  call void @exit(i32 -1) #15, !dbg !2429, !dp.md.instr.id !2430
  unreachable, !dbg !2429, !dp.md.instr.id !2431

if.end44:                                         ; preds = %lor.lhs.false39
  %nindex45 = getelementptr inbounds %struct.ECLgraph, %struct.ECLgraph* %agg.result, i32 0, i32 2, !dbg !2432, !dp.md.instr.id !2433
  %62 = ptrtoint i32** %nindex45 to i64
  call void @__dp_read(i32 161, i64 %62, i8* getelementptr inbounds ([21 x i8], [21 x i8]* @.str.100, i32 0, i32 0))
  %63 = load i32*, i32** %nindex45, align 8, !dbg !2432, !dp.md.instr.id !2434
  %64 = bitcast i32* %63 to i8*, !dbg !2435, !dp.md.instr.id !2436
  %nodes46 = getelementptr inbounds %struct.ECLgraph, %struct.ECLgraph* %agg.result, i32 0, i32 0, !dbg !2437, !dp.md.instr.id !2438
  %65 = ptrtoint i32* %nodes46 to i64
  call void @__dp_read(i32 164, i64 %65, i8* getelementptr inbounds ([21 x i8], [21 x i8]* @.str.100, i32 0, i32 0))
  %66 = load i32, i32* %nodes46, align 8, !dbg !2437, !dp.md.instr.id !2439
  %add47 = add nsw i32 %66, 1, !dbg !2440, !dp.md.instr.id !2441
  %conv48 = sext i32 %add47 to i64, !dbg !2442, !dp.md.instr.id !2443
  %67 = ptrtoint %struct._IO_FILE** %f to i64
  %68 = load %struct._IO_FILE*, %struct._IO_FILE** %f, align 8, !dbg !2444, !dp.md.instr.id !2445
  call void @__dp_call(i32 16452), !dbg !2446
  %call49 = call i64 @fread(i8* %64, i64 4, i64 %conv48, %struct._IO_FILE* %68), !dbg !2446, !dp.md.instr.id !2447
  %conv50 = trunc i64 %call49 to i32, !dbg !2446, !dp.md.instr.id !2448
  %69 = ptrtoint i32* %cnt to i64
  store i32 %conv50, i32* %cnt, align 4, !dbg !2449, !dp.md.instr.id !2450
  %70 = ptrtoint i32* %cnt to i64
  %71 = load i32, i32* %cnt, align 4, !dbg !2451, !dp.md.instr.id !2453
  %nodes51 = getelementptr inbounds %struct.ECLgraph, %struct.ECLgraph* %agg.result, i32 0, i32 0, !dbg !2454, !dp.md.instr.id !2455
  %72 = ptrtoint i32* %nodes51 to i64
  call void @__dp_read(i32 173, i64 %72, i8* getelementptr inbounds ([21 x i8], [21 x i8]* @.str.100, i32 0, i32 0))
  %73 = load i32, i32* %nodes51, align 8, !dbg !2454, !dp.md.instr.id !2456
  %add52 = add nsw i32 %73, 1, !dbg !2457, !dp.md.instr.id !2458
  %cmp53 = icmp ne i32 %71, %add52, !dbg !2459, !dp.md.instr.id !2460
  call void @__dp_incr_taken_branch_counter(i8* getelementptr inbounds ([12 x i8], [12 x i8]* @.str.78, i32 0, i32 0), i1 %cmp53, i32 1), !dbg !2461, !dp.md.instr.id !2462
  call void @__dp_incr_taken_branch_counter(i8* getelementptr inbounds ([12 x i8], [12 x i8]* @.str.79, i32 0, i32 0), i1 %cmp53, i32 0), !dbg !2461, !dp.md.instr.id !2463
  call void @__dp_incr_taken_branch_counter(i8* getelementptr inbounds ([12 x i8], [12 x i8]* @.str.80, i32 0, i32 0), i1 %cmp53, i32 0), !dbg !2461, !dp.md.instr.id !2464
  call void @__dp_incr_taken_branch_counter(i8* getelementptr inbounds ([12 x i8], [12 x i8]* @.str.81, i32 0, i32 0), i1 %cmp53, i32 1), !dbg !2461, !dp.md.instr.id !2465
  call void @__dp_incr_taken_branch_counter(i8* getelementptr inbounds ([12 x i8], [12 x i8]* @.str.82, i32 0, i32 0), i1 %cmp53, i32 0), !dbg !2461, !dp.md.instr.id !2466
  call void @__dp_incr_taken_branch_counter(i8* getelementptr inbounds ([12 x i8], [12 x i8]* @.str.83, i32 0, i32 0), i1 %cmp53, i32 0), !dbg !2461, !dp.md.instr.id !2467
  call void @__dp_report_bb(i32 248)
  br i1 %cmp53, label %if.then54, label %if.end56, !dbg !2461, !dp.md.instr.id !2468

if.then54:                                        ; preds = %if.end44
  %74 = ptrtoint %struct._IO_FILE** @stderr to i64
  call void @__dp_read(i32 183, i64 %74, i8* getelementptr inbounds ([7 x i8], [7 x i8]* @.str.99, i32 0, i32 0))
  %75 = load %struct._IO_FILE*, %struct._IO_FILE** @stderr, align 8, !dbg !2469, !dp.md.instr.id !2471
  call void @__dp_call(i32 16452), !dbg !2472
  %call55 = call i32 (%struct._IO_FILE*, i8*, ...) @fprintf(%struct._IO_FILE* %75, i8* getelementptr inbounds ([44 x i8], [44 x i8]* @.str.7, i64 0, i64 0)), !dbg !2472, !dp.md.instr.id !2473
  call void @__dp_finalize(i32 16452), !dbg !2474
  call void @exit(i32 -1) #15, !dbg !2474, !dp.md.instr.id !2475
  unreachable, !dbg !2474, !dp.md.instr.id !2476

if.end56:                                         ; preds = %if.end44
  %nlist57 = getelementptr inbounds %struct.ECLgraph, %struct.ECLgraph* %agg.result, i32 0, i32 3, !dbg !2477, !dp.md.instr.id !2478
  %76 = ptrtoint i32** %nlist57 to i64
  call void @__dp_read(i32 188, i64 %76, i8* getelementptr inbounds ([21 x i8], [21 x i8]* @.str.100, i32 0, i32 0))
  %77 = load i32*, i32** %nlist57, align 8, !dbg !2477, !dp.md.instr.id !2479
  %78 = bitcast i32* %77 to i8*, !dbg !2480, !dp.md.instr.id !2481
  %edges58 = getelementptr inbounds %struct.ECLgraph, %struct.ECLgraph* %agg.result, i32 0, i32 1, !dbg !2482, !dp.md.instr.id !2483
  %79 = ptrtoint i32* %edges58 to i64
  call void @__dp_read(i32 191, i64 %79, i8* getelementptr inbounds ([21 x i8], [21 x i8]* @.str.100, i32 0, i32 0))
  %80 = load i32, i32* %edges58, align 4, !dbg !2482, !dp.md.instr.id !2484
  %conv59 = sext i32 %80 to i64, !dbg !2485, !dp.md.instr.id !2486
  %81 = ptrtoint %struct._IO_FILE** %f to i64
  %82 = load %struct._IO_FILE*, %struct._IO_FILE** %f, align 8, !dbg !2487, !dp.md.instr.id !2488
  call void @__dp_call(i32 16453), !dbg !2489
  %call60 = call i64 @fread(i8* %78, i64 4, i64 %conv59, %struct._IO_FILE* %82), !dbg !2489, !dp.md.instr.id !2490
  %conv61 = trunc i64 %call60 to i32, !dbg !2489, !dp.md.instr.id !2491
  %83 = ptrtoint i32* %cnt to i64
  store i32 %conv61, i32* %cnt, align 4, !dbg !2492, !dp.md.instr.id !2493
  %84 = ptrtoint i32* %cnt to i64
  %85 = load i32, i32* %cnt, align 4, !dbg !2494, !dp.md.instr.id !2496
  %edges62 = getelementptr inbounds %struct.ECLgraph, %struct.ECLgraph* %agg.result, i32 0, i32 1, !dbg !2497, !dp.md.instr.id !2498
  %86 = ptrtoint i32* %edges62 to i64
  call void @__dp_read(i32 199, i64 %86, i8* getelementptr inbounds ([21 x i8], [21 x i8]* @.str.100, i32 0, i32 0))
  %87 = load i32, i32* %edges62, align 4, !dbg !2497, !dp.md.instr.id !2499
  %cmp63 = icmp ne i32 %85, %87, !dbg !2500, !dp.md.instr.id !2501
  call void @__dp_incr_taken_branch_counter(i8* getelementptr inbounds ([12 x i8], [12 x i8]* @.str.84, i32 0, i32 0), i1 %cmp63, i32 1), !dbg !2502, !dp.md.instr.id !2503
  call void @__dp_incr_taken_branch_counter(i8* getelementptr inbounds ([12 x i8], [12 x i8]* @.str.85, i32 0, i32 0), i1 %cmp63, i32 0), !dbg !2502, !dp.md.instr.id !2504
  call void @__dp_incr_taken_branch_counter(i8* getelementptr inbounds ([12 x i8], [12 x i8]* @.str.86, i32 0, i32 0), i1 %cmp63, i32 0), !dbg !2502, !dp.md.instr.id !2505
  call void @__dp_incr_taken_branch_counter(i8* getelementptr inbounds ([12 x i8], [12 x i8]* @.str.87, i32 0, i32 0), i1 %cmp63, i32 1), !dbg !2502, !dp.md.instr.id !2506
  call void @__dp_incr_taken_branch_counter(i8* getelementptr inbounds ([12 x i8], [12 x i8]* @.str.88, i32 0, i32 0), i1 %cmp63, i32 0), !dbg !2502, !dp.md.instr.id !2507
  call void @__dp_incr_taken_branch_counter(i8* getelementptr inbounds ([12 x i8], [12 x i8]* @.str.89, i32 0, i32 0), i1 %cmp63, i32 0), !dbg !2502, !dp.md.instr.id !2508
  call void @__dp_report_bb(i32 250)
  br i1 %cmp63, label %if.then64, label %if.end66, !dbg !2502, !dp.md.instr.id !2509

if.then64:                                        ; preds = %if.end56
  %88 = ptrtoint %struct._IO_FILE** @stderr to i64
  call void @__dp_read(i32 208, i64 %88, i8* getelementptr inbounds ([7 x i8], [7 x i8]* @.str.99, i32 0, i32 0))
  %89 = load %struct._IO_FILE*, %struct._IO_FILE** @stderr, align 8, !dbg !2510, !dp.md.instr.id !2512
  call void @__dp_call(i32 16453), !dbg !2513
  %call65 = call i32 (%struct._IO_FILE*, i8*, ...) @fprintf(%struct._IO_FILE* %89, i8* getelementptr inbounds ([38 x i8], [38 x i8]* @.str.8, i64 0, i64 0)), !dbg !2513, !dp.md.instr.id !2514
  call void @__dp_finalize(i32 16453), !dbg !2515
  call void @exit(i32 -1) #15, !dbg !2515, !dp.md.instr.id !2516
  unreachable, !dbg !2515, !dp.md.instr.id !2517

if.end66:                                         ; preds = %if.end56
  %eweight67 = getelementptr inbounds %struct.ECLgraph, %struct.ECLgraph* %agg.result, i32 0, i32 4, !dbg !2518, !dp.md.instr.id !2519
  %90 = ptrtoint i32** %eweight67 to i64
  call void @__dp_read(i32 213, i64 %90, i8* getelementptr inbounds ([21 x i8], [21 x i8]* @.str.100, i32 0, i32 0))
  %91 = load i32*, i32** %eweight67, align 8, !dbg !2518, !dp.md.instr.id !2520
  %92 = bitcast i32* %91 to i8*, !dbg !2521, !dp.md.instr.id !2522
  %edges68 = getelementptr inbounds %struct.ECLgraph, %struct.ECLgraph* %agg.result, i32 0, i32 1, !dbg !2523, !dp.md.instr.id !2524
  %93 = ptrtoint i32* %edges68 to i64
  call void @__dp_read(i32 216, i64 %93, i8* getelementptr inbounds ([21 x i8], [21 x i8]* @.str.100, i32 0, i32 0))
  %94 = load i32, i32* %edges68, align 4, !dbg !2523, !dp.md.instr.id !2525
  %conv69 = sext i32 %94 to i64, !dbg !2526, !dp.md.instr.id !2527
  %95 = ptrtoint %struct._IO_FILE** %f to i64
  %96 = load %struct._IO_FILE*, %struct._IO_FILE** %f, align 8, !dbg !2528, !dp.md.instr.id !2529
  call void @__dp_call(i32 16454), !dbg !2530
  %call70 = call i64 @fread(i8* %92, i64 4, i64 %conv69, %struct._IO_FILE* %96), !dbg !2530, !dp.md.instr.id !2531
  %conv71 = trunc i64 %call70 to i32, !dbg !2530, !dp.md.instr.id !2532
  %97 = ptrtoint i32* %cnt to i64
  store i32 %conv71, i32* %cnt, align 4, !dbg !2533, !dp.md.instr.id !2534
  %98 = ptrtoint i32* %cnt to i64
  %99 = load i32, i32* %cnt, align 4, !dbg !2535, !dp.md.instr.id !2537
  %cmp72 = icmp eq i32 %99, 0, !dbg !2538, !dp.md.instr.id !2539
  call void @__dp_incr_taken_branch_counter(i8* getelementptr inbounds ([12 x i8], [12 x i8]* @.str.90, i32 0, i32 0), i1 %cmp72, i32 1), !dbg !2540, !dp.md.instr.id !2541
  call void @__dp_incr_taken_branch_counter(i8* getelementptr inbounds ([12 x i8], [12 x i8]* @.str.91, i32 0, i32 0), i1 %cmp72, i32 0), !dbg !2540, !dp.md.instr.id !2542
  call void @__dp_incr_taken_branch_counter(i8* getelementptr inbounds ([12 x i8], [12 x i8]* @.str.92, i32 0, i32 0), i1 %cmp72, i32 1), !dbg !2540, !dp.md.instr.id !2543
  call void @__dp_incr_taken_branch_counter(i8* getelementptr inbounds ([12 x i8], [12 x i8]* @.str.93, i32 0, i32 0), i1 %cmp72, i32 0), !dbg !2540, !dp.md.instr.id !2544
  call void @__dp_report_bb(i32 249)
  br i1 %cmp72, label %if.then73, label %if.else, !dbg !2540, !dp.md.instr.id !2545

if.then73:                                        ; preds = %if.end66
  %eweight74 = getelementptr inbounds %struct.ECLgraph, %struct.ECLgraph* %agg.result, i32 0, i32 4, !dbg !2546, !dp.md.instr.id !2548
  %100 = ptrtoint i32** %eweight74 to i64
  call void @__dp_read(i32 230, i64 %100, i8* getelementptr inbounds ([21 x i8], [21 x i8]* @.str.100, i32 0, i32 0))
  %101 = load i32*, i32** %eweight74, align 8, !dbg !2546, !dp.md.instr.id !2549
  %102 = bitcast i32* %101 to i8*, !dbg !2550, !dp.md.instr.id !2551
  call void @free(i8* %102) #14, !dbg !2552, !dp.md.instr.id !2553
  %103 = ptrtoint i8* %102 to i64, !dp.md.instr.id !2554
  call void @__dp_delete(i32 16456, i64 %103), !dbg !2555, !dp.md.instr.id !2556
  %eweight75 = getelementptr inbounds %struct.ECLgraph, %struct.ECLgraph* %agg.result, i32 0, i32 4, !dbg !2555, !dp.md.instr.id !2557
  %104 = ptrtoint i32** %eweight75 to i64
  call void @__dp_write(i32 236, i64 %104, i8* getelementptr inbounds ([21 x i8], [21 x i8]* @.str.100, i32 0, i32 0))
  store i32* null, i32** %eweight75, align 8, !dbg !2558, !dp.md.instr.id !2559
  br label %if.end81, !dbg !2560, !dp.md.instr.id !2561

if.else:                                          ; preds = %if.end66
  %105 = ptrtoint i32* %cnt to i64
  %106 = load i32, i32* %cnt, align 4, !dbg !2562, !dp.md.instr.id !2565
  %edges76 = getelementptr inbounds %struct.ECLgraph, %struct.ECLgraph* %agg.result, i32 0, i32 1, !dbg !2566, !dp.md.instr.id !2567
  %107 = ptrtoint i32* %edges76 to i64
  call void @__dp_read(i32 240, i64 %107, i8* getelementptr inbounds ([21 x i8], [21 x i8]* @.str.100, i32 0, i32 0))
  %108 = load i32, i32* %edges76, align 4, !dbg !2566, !dp.md.instr.id !2568
  %cmp77 = icmp ne i32 %106, %108, !dbg !2569, !dp.md.instr.id !2570
  call void @__dp_incr_taken_branch_counter(i8* getelementptr inbounds ([12 x i8], [12 x i8]* @.str.94, i32 0, i32 0), i1 %cmp77, i32 1), !dbg !2571, !dp.md.instr.id !2572
  call void @__dp_incr_taken_branch_counter(i8* getelementptr inbounds ([12 x i8], [12 x i8]* @.str.95, i32 0, i32 0), i1 %cmp77, i32 0), !dbg !2571, !dp.md.instr.id !2573
  call void @__dp_report_bb(i32 243)
  br i1 %cmp77, label %if.then78, label %if.end80, !dbg !2571, !dp.md.instr.id !2574

if.then78:                                        ; preds = %if.else
  %109 = ptrtoint %struct._IO_FILE** @stderr to i64
  call void @__dp_read(i32 245, i64 %109, i8* getelementptr inbounds ([7 x i8], [7 x i8]* @.str.99, i32 0, i32 0))
  %110 = load %struct._IO_FILE*, %struct._IO_FILE** @stderr, align 8, !dbg !2575, !dp.md.instr.id !2577
  call void @__dp_call(i32 16459), !dbg !2578
  %call79 = call i32 (%struct._IO_FILE*, i8*, ...) @fprintf(%struct._IO_FILE* %110, i8* getelementptr inbounds ([37 x i8], [37 x i8]* @.str.9, i64 0, i64 0)), !dbg !2578, !dp.md.instr.id !2579
  call void @__dp_finalize(i32 16459), !dbg !2580
  call void @exit(i32 -1) #15, !dbg !2580, !dp.md.instr.id !2581
  unreachable, !dbg !2580, !dp.md.instr.id !2582

if.end80:                                         ; preds = %if.else
  br label %if.end81, !dp.md.instr.id !2583

if.end81:                                         ; preds = %if.end80, %if.then73
  %111 = ptrtoint %struct._IO_FILE** %f to i64
  %112 = load %struct._IO_FILE*, %struct._IO_FILE** %f, align 8, !dbg !2584, !dp.md.instr.id !2585
  call void @__dp_call(i32 16461), !dbg !2586
  %call82 = call i32 @fclose(%struct._IO_FILE* %112), !dbg !2586, !dp.md.instr.id !2587
  call void @__dp_report_bb(i32 242)
  call void @__dp_func_exit(i32 16463, i32 0), !dbg !2588
  ret void, !dbg !2588, !dp.md.instr.id !2589
}

; Function Attrs: nounwind readnone speculatable willreturn
declare void @llvm.dbg.declare(metadata, metadata, metadata) #1

declare noalias %struct._IO_FILE* @fopen(i8*, i8*) #2

declare i32 @fprintf(%struct._IO_FILE*, i8*, ...) #2

; Function Attrs: noreturn nounwind
declare void @exit(i32) #3

declare i64 @fread(i8*, i64, i64, %struct._IO_FILE*) #2

declare i32 @printf(i8*, ...) #2

; Function Attrs: nounwind
declare noalias i8* @malloc(i64) #4

; Function Attrs: nounwind
declare void @free(i8*) #4

declare i32 @fclose(%struct._IO_FILE*) #2

; Function Attrs: noinline optnone uwtable
define void @_Z13writeECLgraph8ECLgraphPKc(%struct.ECLgraph* byval(%struct.ECLgraph) align 8 %g, i8* %fname) #0 !dbg !2590 {
entry:
  call void @__dp_func_entry(i32 16466, i32 0), !dp.md.instr.id !2594
  %fname.addr = alloca i8*, align 8, !dp.md.instr.id !2595
  %0 = ptrtoint i8** %fname.addr to i64, !dp.md.instr.id !2596
  %cnt = alloca i32, align 4, !dp.md.instr.id !2597
  %1 = ptrtoint i32* %cnt to i64, !dp.md.instr.id !2598
  %f = alloca %struct._IO_FILE*, align 8, !dp.md.instr.id !2599
  %2 = ptrtoint %struct._IO_FILE** %f to i64, !dbg !2600, !dp.md.instr.id !2601
  call void @llvm.dbg.declare(metadata %struct.ECLgraph* %g, metadata !2602, metadata !DIExpression()), !dbg !2600, !dp.md.instr.id !2603
  %3 = ptrtoint i8** %fname.addr to i64
  store i8* %fname, i8** %fname.addr, align 8, !dp.md.instr.id !2604
  call void @llvm.dbg.declare(metadata i8** %fname.addr, metadata !2605, metadata !DIExpression()), !dbg !2606, !dp.md.instr.id !2607
  %nodes = getelementptr inbounds %struct.ECLgraph, %struct.ECLgraph* %g, i32 0, i32 0, !dbg !2608, !dp.md.instr.id !2610
  %4 = ptrtoint i32* %nodes to i64
  call void @__dp_read(i32 267, i64 %4, i8* getelementptr inbounds ([12 x i8], [12 x i8]* @.str.144, i32 0, i32 0))
  %5 = load i32, i32* %nodes, align 8, !dbg !2608, !dp.md.instr.id !2611
  %cmp = icmp slt i32 %5, 1, !dbg !2612, !dp.md.instr.id !2613
  call void @__dp_incr_taken_branch_counter(i8* getelementptr inbounds ([12 x i8], [12 x i8]* @.str.101, i32 0, i32 0), i1 %cmp, i32 1), !dbg !2614, !dp.md.instr.id !2615
  call void @__dp_incr_taken_branch_counter(i8* getelementptr inbounds ([12 x i8], [12 x i8]* @.str.102, i32 0, i32 0), i1 %cmp, i32 0), !dbg !2614, !dp.md.instr.id !2616
  call void @__dp_incr_taken_branch_counter(i8* getelementptr inbounds ([12 x i8], [12 x i8]* @.str.103, i32 0, i32 0), i1 %cmp, i32 1), !dbg !2614, !dp.md.instr.id !2617
  call void @__dp_incr_taken_branch_counter(i8* getelementptr inbounds ([12 x i8], [12 x i8]* @.str.104, i32 0, i32 0), i1 %cmp, i32 0), !dbg !2614, !dp.md.instr.id !2618
  call void @__dp_report_bb(i32 253)
  br i1 %cmp, label %if.then, label %lor.lhs.false, !dbg !2614, !dp.md.instr.id !2619

lor.lhs.false:                                    ; preds = %entry
  %edges = getelementptr inbounds %struct.ECLgraph, %struct.ECLgraph* %g, i32 0, i32 1, !dbg !2620, !dp.md.instr.id !2621
  %6 = ptrtoint i32* %edges to i64
  call void @__dp_read(i32 275, i64 %6, i8* getelementptr inbounds ([12 x i8], [12 x i8]* @.str.144, i32 0, i32 0))
  %7 = load i32, i32* %edges, align 4, !dbg !2620, !dp.md.instr.id !2622
  %cmp1 = icmp slt i32 %7, 0, !dbg !2623, !dp.md.instr.id !2624
  call void @__dp_incr_taken_branch_counter(i8* getelementptr inbounds ([12 x i8], [12 x i8]* @.str.105, i32 0, i32 0), i1 %cmp1, i32 1), !dbg !2625, !dp.md.instr.id !2626
  call void @__dp_incr_taken_branch_counter(i8* getelementptr inbounds ([12 x i8], [12 x i8]* @.str.106, i32 0, i32 0), i1 %cmp1, i32 0), !dbg !2625, !dp.md.instr.id !2627
  call void @__dp_incr_taken_branch_counter(i8* getelementptr inbounds ([12 x i8], [12 x i8]* @.str.107, i32 0, i32 0), i1 %cmp1, i32 0), !dbg !2625, !dp.md.instr.id !2628
  br i1 %cmp1, label %if.then, label %if.end, !dbg !2625, !dp.md.instr.id !2629

if.then:                                          ; preds = %lor.lhs.false, %entry
  %8 = ptrtoint %struct._IO_FILE** @stderr to i64
  call void @__dp_read(i32 281, i64 %8, i8* getelementptr inbounds ([7 x i8], [7 x i8]* @.str.99, i32 0, i32 0))
  %9 = load %struct._IO_FILE*, %struct._IO_FILE** @stderr, align 8, !dbg !2630, !dp.md.instr.id !2632
  call void @__dp_call(i32 16468), !dbg !2633
  %call = call i32 (%struct._IO_FILE*, i8*, ...) @fprintf(%struct._IO_FILE* %9, i8* getelementptr inbounds ([36 x i8], [36 x i8]* @.str.5, i64 0, i64 0)), !dbg !2633, !dp.md.instr.id !2634
  call void @__dp_finalize(i32 16468), !dbg !2635
  call void @exit(i32 -1) #15, !dbg !2635, !dp.md.instr.id !2636
  unreachable, !dbg !2635, !dp.md.instr.id !2637

if.end:                                           ; preds = %lor.lhs.false
  call void @llvm.dbg.declare(metadata i32* %cnt, metadata !2638, metadata !DIExpression()), !dbg !2639, !dp.md.instr.id !2640
  call void @llvm.dbg.declare(metadata %struct._IO_FILE** %f, metadata !2641, metadata !DIExpression()), !dbg !2642, !dp.md.instr.id !2643
  %10 = ptrtoint i8** %fname.addr to i64
  %11 = load i8*, i8** %fname.addr, align 8, !dbg !2644, !dp.md.instr.id !2645
  call void @__dp_call(i32 16470), !dbg !2646
  %call2 = call noalias %struct._IO_FILE* @fopen(i8* %11, i8* getelementptr inbounds ([3 x i8], [3 x i8]* @.str.10, i64 0, i64 0)), !dbg !2646, !dp.md.instr.id !2647
  %12 = ptrtoint %struct._IO_FILE** %f to i64
  store %struct._IO_FILE* %call2, %struct._IO_FILE** %f, align 8, !dbg !2642, !dp.md.instr.id !2648
  %13 = ptrtoint %struct._IO_FILE** %f to i64
  %14 = load %struct._IO_FILE*, %struct._IO_FILE** %f, align 8, !dbg !2649, !dp.md.instr.id !2651
  %cmp3 = icmp eq %struct._IO_FILE* %14, null, !dbg !2652, !dp.md.instr.id !2653
  call void @__dp_incr_taken_branch_counter(i8* getelementptr inbounds ([12 x i8], [12 x i8]* @.str.108, i32 0, i32 0), i1 %cmp3, i32 1), !dbg !2654, !dp.md.instr.id !2655
  call void @__dp_incr_taken_branch_counter(i8* getelementptr inbounds ([12 x i8], [12 x i8]* @.str.109, i32 0, i32 0), i1 %cmp3, i32 0), !dbg !2654, !dp.md.instr.id !2656
  call void @__dp_incr_taken_branch_counter(i8* getelementptr inbounds ([12 x i8], [12 x i8]* @.str.110, i32 0, i32 0), i1 %cmp3, i32 0), !dbg !2654, !dp.md.instr.id !2657
  call void @__dp_incr_taken_branch_counter(i8* getelementptr inbounds ([12 x i8], [12 x i8]* @.str.111, i32 0, i32 0), i1 %cmp3, i32 1), !dbg !2654, !dp.md.instr.id !2658
  call void @__dp_incr_taken_branch_counter(i8* getelementptr inbounds ([12 x i8], [12 x i8]* @.str.112, i32 0, i32 0), i1 %cmp3, i32 0), !dbg !2654, !dp.md.instr.id !2659
  call void @__dp_incr_taken_branch_counter(i8* getelementptr inbounds ([12 x i8], [12 x i8]* @.str.113, i32 0, i32 0), i1 %cmp3, i32 0), !dbg !2654, !dp.md.instr.id !2660
  call void @__dp_report_bb(i32 252)
  br i1 %cmp3, label %if.then4, label %if.end6, !dbg !2654, !dp.md.instr.id !2661

if.then4:                                         ; preds = %if.end
  %15 = ptrtoint %struct._IO_FILE** @stderr to i64
  call void @__dp_read(i32 299, i64 %15, i8* getelementptr inbounds ([7 x i8], [7 x i8]* @.str.99, i32 0, i32 0))
  %16 = load %struct._IO_FILE*, %struct._IO_FILE** @stderr, align 8, !dbg !2662, !dp.md.instr.id !2664
  %17 = ptrtoint i8** %fname.addr to i64
  %18 = load i8*, i8** %fname.addr, align 8, !dbg !2665, !dp.md.instr.id !2666
  call void @__dp_call(i32 16470), !dbg !2667
  %call5 = call i32 (%struct._IO_FILE*, i8*, ...) @fprintf(%struct._IO_FILE* %16, i8* getelementptr inbounds ([32 x i8], [32 x i8]* @.str.1, i64 0, i64 0), i8* %18), !dbg !2667, !dp.md.instr.id !2668
  call void @__dp_finalize(i32 16470), !dbg !2669
  call void @exit(i32 -1) #15, !dbg !2669, !dp.md.instr.id !2670
  call void @__dp_report_bb(i32 251)
  unreachable, !dbg !2669, !dp.md.instr.id !2671

if.end6:                                          ; preds = %if.end
  %nodes7 = getelementptr inbounds %struct.ECLgraph, %struct.ECLgraph* %g, i32 0, i32 0, !dbg !2672, !dp.md.instr.id !2673
  %19 = bitcast i32* %nodes7 to i8*, !dbg !2674, !dp.md.instr.id !2675
  %20 = ptrtoint %struct._IO_FILE** %f to i64
  %21 = load %struct._IO_FILE*, %struct._IO_FILE** %f, align 8, !dbg !2676, !dp.md.instr.id !2677
  call void @__dp_call(i32 16471), !dbg !2678
  %call8 = call i64 @fwrite(i8* %19, i64 4, i64 1, %struct._IO_FILE* %21), !dbg !2678, !dp.md.instr.id !2679
  %conv = trunc i64 %call8 to i32, !dbg !2678, !dp.md.instr.id !2680
  %22 = ptrtoint i32* %cnt to i64
  store i32 %conv, i32* %cnt, align 4, !dbg !2681, !dp.md.instr.id !2682
  %23 = ptrtoint i32* %cnt to i64
  %24 = load i32, i32* %cnt, align 4, !dbg !2683, !dp.md.instr.id !2685
  %cmp9 = icmp ne i32 %24, 1, !dbg !2686, !dp.md.instr.id !2687
  call void @__dp_incr_taken_branch_counter(i8* getelementptr inbounds ([12 x i8], [12 x i8]* @.str.114, i32 0, i32 0), i1 %cmp9, i32 1), !dbg !2688, !dp.md.instr.id !2689
  call void @__dp_incr_taken_branch_counter(i8* getelementptr inbounds ([12 x i8], [12 x i8]* @.str.115, i32 0, i32 0), i1 %cmp9, i32 0), !dbg !2688, !dp.md.instr.id !2690
  call void @__dp_incr_taken_branch_counter(i8* getelementptr inbounds ([12 x i8], [12 x i8]* @.str.116, i32 0, i32 0), i1 %cmp9, i32 0), !dbg !2688, !dp.md.instr.id !2691
  call void @__dp_incr_taken_branch_counter(i8* getelementptr inbounds ([12 x i8], [12 x i8]* @.str.117, i32 0, i32 0), i1 %cmp9, i32 1), !dbg !2688, !dp.md.instr.id !2692
  call void @__dp_incr_taken_branch_counter(i8* getelementptr inbounds ([12 x i8], [12 x i8]* @.str.118, i32 0, i32 0), i1 %cmp9, i32 0), !dbg !2688, !dp.md.instr.id !2693
  call void @__dp_incr_taken_branch_counter(i8* getelementptr inbounds ([12 x i8], [12 x i8]* @.str.119, i32 0, i32 0), i1 %cmp9, i32 0), !dbg !2688, !dp.md.instr.id !2694
  call void @__dp_report_bb(i32 254)
  br i1 %cmp9, label %if.then10, label %if.end12, !dbg !2688, !dp.md.instr.id !2695

if.then10:                                        ; preds = %if.end6
  %25 = ptrtoint %struct._IO_FILE** @stderr to i64
  call void @__dp_read(i32 319, i64 %25, i8* getelementptr inbounds ([7 x i8], [7 x i8]* @.str.99, i32 0, i32 0))
  %26 = load %struct._IO_FILE*, %struct._IO_FILE** @stderr, align 8, !dbg !2696, !dp.md.instr.id !2698
  call void @__dp_call(i32 16471), !dbg !2699
  %call11 = call i32 (%struct._IO_FILE*, i8*, ...) @fprintf(%struct._IO_FILE* %26, i8* getelementptr inbounds ([31 x i8], [31 x i8]* @.str.11, i64 0, i64 0)), !dbg !2699, !dp.md.instr.id !2700
  call void @__dp_finalize(i32 16471), !dbg !2701
  call void @exit(i32 -1) #15, !dbg !2701, !dp.md.instr.id !2702
  unreachable, !dbg !2701, !dp.md.instr.id !2703

if.end12:                                         ; preds = %if.end6
  %edges13 = getelementptr inbounds %struct.ECLgraph, %struct.ECLgraph* %g, i32 0, i32 1, !dbg !2704, !dp.md.instr.id !2705
  %27 = bitcast i32* %edges13 to i8*, !dbg !2706, !dp.md.instr.id !2707
  %28 = ptrtoint %struct._IO_FILE** %f to i64
  %29 = load %struct._IO_FILE*, %struct._IO_FILE** %f, align 8, !dbg !2708, !dp.md.instr.id !2709
  call void @__dp_call(i32 16472), !dbg !2710
  %call14 = call i64 @fwrite(i8* %27, i64 4, i64 1, %struct._IO_FILE* %29), !dbg !2710, !dp.md.instr.id !2711
  %conv15 = trunc i64 %call14 to i32, !dbg !2710, !dp.md.instr.id !2712
  %30 = ptrtoint i32* %cnt to i64
  store i32 %conv15, i32* %cnt, align 4, !dbg !2713, !dp.md.instr.id !2714
  %31 = ptrtoint i32* %cnt to i64
  %32 = load i32, i32* %cnt, align 4, !dbg !2715, !dp.md.instr.id !2717
  %cmp16 = icmp ne i32 %32, 1, !dbg !2718, !dp.md.instr.id !2719
  call void @__dp_incr_taken_branch_counter(i8* getelementptr inbounds ([12 x i8], [12 x i8]* @.str.120, i32 0, i32 0), i1 %cmp16, i32 1), !dbg !2720, !dp.md.instr.id !2721
  call void @__dp_incr_taken_branch_counter(i8* getelementptr inbounds ([12 x i8], [12 x i8]* @.str.121, i32 0, i32 0), i1 %cmp16, i32 0), !dbg !2720, !dp.md.instr.id !2722
  call void @__dp_incr_taken_branch_counter(i8* getelementptr inbounds ([12 x i8], [12 x i8]* @.str.122, i32 0, i32 0), i1 %cmp16, i32 0), !dbg !2720, !dp.md.instr.id !2723
  call void @__dp_incr_taken_branch_counter(i8* getelementptr inbounds ([12 x i8], [12 x i8]* @.str.123, i32 0, i32 0), i1 %cmp16, i32 1), !dbg !2720, !dp.md.instr.id !2724
  call void @__dp_incr_taken_branch_counter(i8* getelementptr inbounds ([12 x i8], [12 x i8]* @.str.124, i32 0, i32 0), i1 %cmp16, i32 0), !dbg !2720, !dp.md.instr.id !2725
  call void @__dp_incr_taken_branch_counter(i8* getelementptr inbounds ([12 x i8], [12 x i8]* @.str.125, i32 0, i32 0), i1 %cmp16, i32 0), !dbg !2720, !dp.md.instr.id !2726
  call void @__dp_report_bb(i32 255)
  br i1 %cmp16, label %if.then17, label %if.end19, !dbg !2720, !dp.md.instr.id !2727

if.then17:                                        ; preds = %if.end12
  %33 = ptrtoint %struct._IO_FILE** @stderr to i64
  call void @__dp_read(i32 338, i64 %33, i8* getelementptr inbounds ([7 x i8], [7 x i8]* @.str.99, i32 0, i32 0))
  %34 = load %struct._IO_FILE*, %struct._IO_FILE** @stderr, align 8, !dbg !2728, !dp.md.instr.id !2730
  call void @__dp_call(i32 16472), !dbg !2731
  %call18 = call i32 (%struct._IO_FILE*, i8*, ...) @fprintf(%struct._IO_FILE* %34, i8* getelementptr inbounds ([31 x i8], [31 x i8]* @.str.12, i64 0, i64 0)), !dbg !2731, !dp.md.instr.id !2732
  call void @__dp_finalize(i32 16472), !dbg !2733
  call void @exit(i32 -1) #15, !dbg !2733, !dp.md.instr.id !2734
  unreachable, !dbg !2733, !dp.md.instr.id !2735

if.end19:                                         ; preds = %if.end12
  %nindex = getelementptr inbounds %struct.ECLgraph, %struct.ECLgraph* %g, i32 0, i32 2, !dbg !2736, !dp.md.instr.id !2737
  %35 = ptrtoint i32** %nindex to i64
  call void @__dp_read(i32 343, i64 %35, i8* getelementptr inbounds ([12 x i8], [12 x i8]* @.str.144, i32 0, i32 0))
  %36 = load i32*, i32** %nindex, align 8, !dbg !2736, !dp.md.instr.id !2738
  %37 = bitcast i32* %36 to i8*, !dbg !2739, !dp.md.instr.id !2740
  %nodes20 = getelementptr inbounds %struct.ECLgraph, %struct.ECLgraph* %g, i32 0, i32 0, !dbg !2741, !dp.md.instr.id !2742
  %38 = ptrtoint i32* %nodes20 to i64
  call void @__dp_read(i32 346, i64 %38, i8* getelementptr inbounds ([12 x i8], [12 x i8]* @.str.144, i32 0, i32 0))
  %39 = load i32, i32* %nodes20, align 8, !dbg !2741, !dp.md.instr.id !2743
  %add = add nsw i32 %39, 1, !dbg !2744, !dp.md.instr.id !2745
  %conv21 = sext i32 %add to i64, !dbg !2746, !dp.md.instr.id !2747
  %40 = ptrtoint %struct._IO_FILE** %f to i64
  %41 = load %struct._IO_FILE*, %struct._IO_FILE** %f, align 8, !dbg !2748, !dp.md.instr.id !2749
  call void @__dp_call(i32 16474), !dbg !2750
  %call22 = call i64 @fwrite(i8* %37, i64 4, i64 %conv21, %struct._IO_FILE* %41), !dbg !2750, !dp.md.instr.id !2751
  %conv23 = trunc i64 %call22 to i32, !dbg !2750, !dp.md.instr.id !2752
  %42 = ptrtoint i32* %cnt to i64
  store i32 %conv23, i32* %cnt, align 4, !dbg !2753, !dp.md.instr.id !2754
  %43 = ptrtoint i32* %cnt to i64
  %44 = load i32, i32* %cnt, align 4, !dbg !2755, !dp.md.instr.id !2757
  %nodes24 = getelementptr inbounds %struct.ECLgraph, %struct.ECLgraph* %g, i32 0, i32 0, !dbg !2758, !dp.md.instr.id !2759
  %45 = ptrtoint i32* %nodes24 to i64
  call void @__dp_read(i32 355, i64 %45, i8* getelementptr inbounds ([12 x i8], [12 x i8]* @.str.144, i32 0, i32 0))
  %46 = load i32, i32* %nodes24, align 8, !dbg !2758, !dp.md.instr.id !2760
  %add25 = add nsw i32 %46, 1, !dbg !2761, !dp.md.instr.id !2762
  %cmp26 = icmp ne i32 %44, %add25, !dbg !2763, !dp.md.instr.id !2764
  call void @__dp_incr_taken_branch_counter(i8* getelementptr inbounds ([12 x i8], [12 x i8]* @.str.126, i32 0, i32 0), i1 %cmp26, i32 1), !dbg !2765, !dp.md.instr.id !2766
  call void @__dp_incr_taken_branch_counter(i8* getelementptr inbounds ([12 x i8], [12 x i8]* @.str.127, i32 0, i32 0), i1 %cmp26, i32 0), !dbg !2765, !dp.md.instr.id !2767
  call void @__dp_incr_taken_branch_counter(i8* getelementptr inbounds ([12 x i8], [12 x i8]* @.str.128, i32 0, i32 0), i1 %cmp26, i32 0), !dbg !2765, !dp.md.instr.id !2768
  call void @__dp_incr_taken_branch_counter(i8* getelementptr inbounds ([12 x i8], [12 x i8]* @.str.129, i32 0, i32 0), i1 %cmp26, i32 1), !dbg !2765, !dp.md.instr.id !2769
  call void @__dp_incr_taken_branch_counter(i8* getelementptr inbounds ([12 x i8], [12 x i8]* @.str.130, i32 0, i32 0), i1 %cmp26, i32 0), !dbg !2765, !dp.md.instr.id !2770
  call void @__dp_incr_taken_branch_counter(i8* getelementptr inbounds ([12 x i8], [12 x i8]* @.str.131, i32 0, i32 0), i1 %cmp26, i32 0), !dbg !2765, !dp.md.instr.id !2771
  call void @__dp_report_bb(i32 256)
  br i1 %cmp26, label %if.then27, label %if.end29, !dbg !2765, !dp.md.instr.id !2772

if.then27:                                        ; preds = %if.end19
  %47 = ptrtoint %struct._IO_FILE** @stderr to i64
  call void @__dp_read(i32 365, i64 %47, i8* getelementptr inbounds ([7 x i8], [7 x i8]* @.str.99, i32 0, i32 0))
  %48 = load %struct._IO_FILE*, %struct._IO_FILE** @stderr, align 8, !dbg !2773, !dp.md.instr.id !2775
  call void @__dp_call(i32 16474), !dbg !2776
  %call28 = call i32 (%struct._IO_FILE*, i8*, ...) @fprintf(%struct._IO_FILE* %48, i8* getelementptr inbounds ([45 x i8], [45 x i8]* @.str.13, i64 0, i64 0)), !dbg !2776, !dp.md.instr.id !2777
  call void @__dp_finalize(i32 16474), !dbg !2778
  call void @exit(i32 -1) #15, !dbg !2778, !dp.md.instr.id !2779
  unreachable, !dbg !2778, !dp.md.instr.id !2780

if.end29:                                         ; preds = %if.end19
  %nlist = getelementptr inbounds %struct.ECLgraph, %struct.ECLgraph* %g, i32 0, i32 3, !dbg !2781, !dp.md.instr.id !2782
  %49 = ptrtoint i32** %nlist to i64
  call void @__dp_read(i32 370, i64 %49, i8* getelementptr inbounds ([12 x i8], [12 x i8]* @.str.144, i32 0, i32 0))
  %50 = load i32*, i32** %nlist, align 8, !dbg !2781, !dp.md.instr.id !2783
  %51 = bitcast i32* %50 to i8*, !dbg !2784, !dp.md.instr.id !2785
  %edges30 = getelementptr inbounds %struct.ECLgraph, %struct.ECLgraph* %g, i32 0, i32 1, !dbg !2786, !dp.md.instr.id !2787
  %52 = ptrtoint i32* %edges30 to i64
  call void @__dp_read(i32 373, i64 %52, i8* getelementptr inbounds ([12 x i8], [12 x i8]* @.str.144, i32 0, i32 0))
  %53 = load i32, i32* %edges30, align 4, !dbg !2786, !dp.md.instr.id !2788
  %conv31 = sext i32 %53 to i64, !dbg !2789, !dp.md.instr.id !2790
  %54 = ptrtoint %struct._IO_FILE** %f to i64
  %55 = load %struct._IO_FILE*, %struct._IO_FILE** %f, align 8, !dbg !2791, !dp.md.instr.id !2792
  call void @__dp_call(i32 16475), !dbg !2793
  %call32 = call i64 @fwrite(i8* %51, i64 4, i64 %conv31, %struct._IO_FILE* %55), !dbg !2793, !dp.md.instr.id !2794
  %conv33 = trunc i64 %call32 to i32, !dbg !2793, !dp.md.instr.id !2795
  %56 = ptrtoint i32* %cnt to i64
  store i32 %conv33, i32* %cnt, align 4, !dbg !2796, !dp.md.instr.id !2797
  %57 = ptrtoint i32* %cnt to i64
  %58 = load i32, i32* %cnt, align 4, !dbg !2798, !dp.md.instr.id !2800
  %edges34 = getelementptr inbounds %struct.ECLgraph, %struct.ECLgraph* %g, i32 0, i32 1, !dbg !2801, !dp.md.instr.id !2802
  %59 = ptrtoint i32* %edges34 to i64
  call void @__dp_read(i32 381, i64 %59, i8* getelementptr inbounds ([12 x i8], [12 x i8]* @.str.144, i32 0, i32 0))
  %60 = load i32, i32* %edges34, align 4, !dbg !2801, !dp.md.instr.id !2803
  %cmp35 = icmp ne i32 %58, %60, !dbg !2804, !dp.md.instr.id !2805
  call void @__dp_incr_taken_branch_counter(i8* getelementptr inbounds ([12 x i8], [12 x i8]* @.str.132, i32 0, i32 0), i1 %cmp35, i32 1), !dbg !2806, !dp.md.instr.id !2807
  call void @__dp_incr_taken_branch_counter(i8* getelementptr inbounds ([12 x i8], [12 x i8]* @.str.133, i32 0, i32 0), i1 %cmp35, i32 0), !dbg !2806, !dp.md.instr.id !2808
  call void @__dp_incr_taken_branch_counter(i8* getelementptr inbounds ([12 x i8], [12 x i8]* @.str.134, i32 0, i32 0), i1 %cmp35, i32 1), !dbg !2806, !dp.md.instr.id !2809
  call void @__dp_incr_taken_branch_counter(i8* getelementptr inbounds ([12 x i8], [12 x i8]* @.str.135, i32 0, i32 0), i1 %cmp35, i32 0), !dbg !2806, !dp.md.instr.id !2810
  call void @__dp_report_bb(i32 257)
  br i1 %cmp35, label %if.then36, label %if.end38, !dbg !2806, !dp.md.instr.id !2811

if.then36:                                        ; preds = %if.end29
  %61 = ptrtoint %struct._IO_FILE** @stderr to i64
  call void @__dp_read(i32 388, i64 %61, i8* getelementptr inbounds ([7 x i8], [7 x i8]* @.str.99, i32 0, i32 0))
  %62 = load %struct._IO_FILE*, %struct._IO_FILE** @stderr, align 8, !dbg !2812, !dp.md.instr.id !2814
  call void @__dp_call(i32 16475), !dbg !2815
  %call37 = call i32 (%struct._IO_FILE*, i8*, ...) @fprintf(%struct._IO_FILE* %62, i8* getelementptr inbounds ([39 x i8], [39 x i8]* @.str.14, i64 0, i64 0)), !dbg !2815, !dp.md.instr.id !2816
  call void @__dp_finalize(i32 16475), !dbg !2817
  call void @exit(i32 -1) #15, !dbg !2817, !dp.md.instr.id !2818
  unreachable, !dbg !2817, !dp.md.instr.id !2819

if.end38:                                         ; preds = %if.end29
  %eweight = getelementptr inbounds %struct.ECLgraph, %struct.ECLgraph* %g, i32 0, i32 4, !dbg !2820, !dp.md.instr.id !2822
  %63 = ptrtoint i32** %eweight to i64
  call void @__dp_read(i32 393, i64 %63, i8* getelementptr inbounds ([12 x i8], [12 x i8]* @.str.144, i32 0, i32 0))
  %64 = load i32*, i32** %eweight, align 8, !dbg !2820, !dp.md.instr.id !2823
  %cmp39 = icmp ne i32* %64, null, !dbg !2824, !dp.md.instr.id !2825
  call void @__dp_incr_taken_branch_counter(i8* getelementptr inbounds ([12 x i8], [12 x i8]* @.str.136, i32 0, i32 0), i1 %cmp39, i32 1), !dbg !2826, !dp.md.instr.id !2827
  call void @__dp_incr_taken_branch_counter(i8* getelementptr inbounds ([12 x i8], [12 x i8]* @.str.137, i32 0, i32 0), i1 %cmp39, i32 1), !dbg !2826, !dp.md.instr.id !2828
  call void @__dp_incr_taken_branch_counter(i8* getelementptr inbounds ([12 x i8], [12 x i8]* @.str.138, i32 0, i32 0), i1 %cmp39, i32 0), !dbg !2826, !dp.md.instr.id !2829
  br i1 %cmp39, label %if.then40, label %if.end51, !dbg !2826, !dp.md.instr.id !2830

if.then40:                                        ; preds = %if.end38
  %eweight41 = getelementptr inbounds %struct.ECLgraph, %struct.ECLgraph* %g, i32 0, i32 4, !dbg !2831, !dp.md.instr.id !2833
  %65 = ptrtoint i32** %eweight41 to i64
  call void @__dp_read(i32 400, i64 %65, i8* getelementptr inbounds ([12 x i8], [12 x i8]* @.str.144, i32 0, i32 0))
  %66 = load i32*, i32** %eweight41, align 8, !dbg !2831, !dp.md.instr.id !2834
  %67 = bitcast i32* %66 to i8*, !dbg !2835, !dp.md.instr.id !2836
  %edges42 = getelementptr inbounds %struct.ECLgraph, %struct.ECLgraph* %g, i32 0, i32 1, !dbg !2837, !dp.md.instr.id !2838
  %68 = ptrtoint i32* %edges42 to i64
  call void @__dp_read(i32 403, i64 %68, i8* getelementptr inbounds ([12 x i8], [12 x i8]* @.str.144, i32 0, i32 0))
  %69 = load i32, i32* %edges42, align 4, !dbg !2837, !dp.md.instr.id !2839
  %conv43 = sext i32 %69 to i64, !dbg !2840, !dp.md.instr.id !2841
  %70 = ptrtoint %struct._IO_FILE** %f to i64
  %71 = load %struct._IO_FILE*, %struct._IO_FILE** %f, align 8, !dbg !2842, !dp.md.instr.id !2843
  call void @__dp_call(i32 16477), !dbg !2844
  %call44 = call i64 @fwrite(i8* %67, i64 4, i64 %conv43, %struct._IO_FILE* %71), !dbg !2844, !dp.md.instr.id !2845
  %conv45 = trunc i64 %call44 to i32, !dbg !2844, !dp.md.instr.id !2846
  %72 = ptrtoint i32* %cnt to i64
  store i32 %conv45, i32* %cnt, align 4, !dbg !2847, !dp.md.instr.id !2848
  %73 = ptrtoint i32* %cnt to i64
  %74 = load i32, i32* %cnt, align 4, !dbg !2849, !dp.md.instr.id !2851
  %edges46 = getelementptr inbounds %struct.ECLgraph, %struct.ECLgraph* %g, i32 0, i32 1, !dbg !2852, !dp.md.instr.id !2853
  %75 = ptrtoint i32* %edges46 to i64
  call void @__dp_read(i32 411, i64 %75, i8* getelementptr inbounds ([12 x i8], [12 x i8]* @.str.144, i32 0, i32 0))
  %76 = load i32, i32* %edges46, align 4, !dbg !2852, !dp.md.instr.id !2854
  %cmp47 = icmp ne i32 %74, %76, !dbg !2855, !dp.md.instr.id !2856
  call void @__dp_incr_taken_branch_counter(i8* getelementptr inbounds ([12 x i8], [12 x i8]* @.str.139, i32 0, i32 0), i1 %cmp47, i32 1), !dbg !2857, !dp.md.instr.id !2858
  call void @__dp_incr_taken_branch_counter(i8* getelementptr inbounds ([12 x i8], [12 x i8]* @.str.140, i32 0, i32 0), i1 %cmp47, i32 0), !dbg !2857, !dp.md.instr.id !2859
  call void @__dp_incr_taken_branch_counter(i8* getelementptr inbounds ([12 x i8], [12 x i8]* @.str.141, i32 0, i32 0), i1 %cmp47, i32 1), !dbg !2857, !dp.md.instr.id !2860
  call void @__dp_incr_taken_branch_counter(i8* getelementptr inbounds ([12 x i8], [12 x i8]* @.str.142, i32 0, i32 0), i1 %cmp47, i32 0), !dbg !2857, !dp.md.instr.id !2861
  call void @__dp_report_bb(i32 258)
  br i1 %cmp47, label %if.then48, label %if.end50, !dbg !2857, !dp.md.instr.id !2862

if.then48:                                        ; preds = %if.then40
  %77 = ptrtoint %struct._IO_FILE** @stderr to i64
  call void @__dp_read(i32 418, i64 %77, i8* getelementptr inbounds ([7 x i8], [7 x i8]* @.str.99, i32 0, i32 0))
  %78 = load %struct._IO_FILE*, %struct._IO_FILE** @stderr, align 8, !dbg !2863, !dp.md.instr.id !2865
  call void @__dp_call(i32 16477), !dbg !2866
  %call49 = call i32 (%struct._IO_FILE*, i8*, ...) @fprintf(%struct._IO_FILE* %78, i8* getelementptr inbounds ([38 x i8], [38 x i8]* @.str.15, i64 0, i64 0)), !dbg !2866, !dp.md.instr.id !2867
  call void @__dp_finalize(i32 16477), !dbg !2868
  call void @exit(i32 -1) #15, !dbg !2868, !dp.md.instr.id !2869
  unreachable, !dbg !2868, !dp.md.instr.id !2870

if.end50:                                         ; preds = %if.then40
  br label %if.end51, !dbg !2871, !dp.md.instr.id !2872

if.end51:                                         ; preds = %if.end50, %if.end38
  %79 = ptrtoint %struct._IO_FILE** %f to i64
  %80 = load %struct._IO_FILE*, %struct._IO_FILE** %f, align 8, !dbg !2873, !dp.md.instr.id !2874
  call void @__dp_call(i32 16479), !dbg !2875
  %call52 = call i32 @fclose(%struct._IO_FILE* %80), !dbg !2875, !dp.md.instr.id !2876
  call void @__dp_report_bb(i32 259)
  call void @__dp_func_exit(i32 16480, i32 0), !dbg !2877
  ret void, !dbg !2877, !dp.md.instr.id !2878
}

declare i64 @fwrite(i8*, i64, i64, %struct._IO_FILE*) #2

; Function Attrs: noinline nounwind optnone uwtable
define void @_Z12freeECLgraphR8ECLgraph(%struct.ECLgraph* nonnull align 8 dereferenceable(32) %g) #5 !dbg !2879 {
entry:
  call void @__dp_func_entry(i32 16482, i32 0), !dp.md.instr.id !2883
  %g.addr = alloca %struct.ECLgraph*, align 8, !dp.md.instr.id !2884
  %0 = ptrtoint %struct.ECLgraph** %g.addr to i64, !dp.md.instr.id !2885
  %1 = ptrtoint %struct.ECLgraph** %g.addr to i64
  store %struct.ECLgraph* %g, %struct.ECLgraph** %g.addr, align 8, !dp.md.instr.id !2886
  call void @llvm.dbg.declare(metadata %struct.ECLgraph** %g.addr, metadata !2887, metadata !DIExpression()), !dbg !2888, !dp.md.instr.id !2889
  %2 = ptrtoint %struct.ECLgraph** %g.addr to i64
  %3 = load %struct.ECLgraph*, %struct.ECLgraph** %g.addr, align 8, !dbg !2890, !dp.md.instr.id !2892
  %nindex = getelementptr inbounds %struct.ECLgraph, %struct.ECLgraph* %3, i32 0, i32 2, !dbg !2893, !dp.md.instr.id !2894
  %4 = ptrtoint i32** %nindex to i64
  call void @__dp_read(i32 434, i64 %4, i8* getelementptr inbounds ([12 x i8], [12 x i8]* @.str.144, i32 0, i32 0))
  %5 = load i32*, i32** %nindex, align 8, !dbg !2893, !dp.md.instr.id !2895
  %cmp = icmp ne i32* %5, null, !dbg !2896, !dp.md.instr.id !2897
  call void @__dp_incr_taken_branch_counter(i8* getelementptr inbounds ([12 x i8], [12 x i8]* @.str.145, i32 0, i32 0), i1 %cmp, i32 1), !dbg !2898, !dp.md.instr.id !2899
  call void @__dp_incr_taken_branch_counter(i8* getelementptr inbounds ([12 x i8], [12 x i8]* @.str.146, i32 0, i32 0), i1 %cmp, i32 0), !dbg !2898, !dp.md.instr.id !2900
  call void @__dp_incr_taken_branch_counter(i8* getelementptr inbounds ([12 x i8], [12 x i8]* @.str.147, i32 0, i32 0), i1 %cmp, i32 1), !dbg !2898, !dp.md.instr.id !2901
  call void @__dp_incr_taken_branch_counter(i8* getelementptr inbounds ([12 x i8], [12 x i8]* @.str.148, i32 0, i32 0), i1 %cmp, i32 0), !dbg !2898, !dp.md.instr.id !2902
  call void @__dp_report_bb(i32 260)
  br i1 %cmp, label %if.then, label %if.end, !dbg !2898, !dp.md.instr.id !2903

if.then:                                          ; preds = %entry
  %6 = ptrtoint %struct.ECLgraph** %g.addr to i64
  %7 = load %struct.ECLgraph*, %struct.ECLgraph** %g.addr, align 8, !dbg !2904, !dp.md.instr.id !2905
  %nindex1 = getelementptr inbounds %struct.ECLgraph, %struct.ECLgraph* %7, i32 0, i32 2, !dbg !2906, !dp.md.instr.id !2907
  %8 = ptrtoint i32** %nindex1 to i64
  call void @__dp_read(i32 443, i64 %8, i8* getelementptr inbounds ([12 x i8], [12 x i8]* @.str.144, i32 0, i32 0))
  %9 = load i32*, i32** %nindex1, align 8, !dbg !2906, !dp.md.instr.id !2908
  %10 = bitcast i32* %9 to i8*, !dbg !2904, !dp.md.instr.id !2909
  call void @free(i8* %10) #14, !dbg !2910, !dp.md.instr.id !2911
  %11 = ptrtoint i8* %10 to i64, !dp.md.instr.id !2912
  call void @__dp_delete(i32 16484, i64 %11), !dbg !2910, !dp.md.instr.id !2913
  call void @__dp_report_bb(i32 261)
  br label %if.end, !dbg !2910, !dp.md.instr.id !2914

if.end:                                           ; preds = %if.then, %entry
  %12 = ptrtoint %struct.ECLgraph** %g.addr to i64
  %13 = load %struct.ECLgraph*, %struct.ECLgraph** %g.addr, align 8, !dbg !2915, !dp.md.instr.id !2917
  %nlist = getelementptr inbounds %struct.ECLgraph, %struct.ECLgraph* %13, i32 0, i32 3, !dbg !2918, !dp.md.instr.id !2919
  %14 = ptrtoint i32** %nlist to i64
  call void @__dp_read(i32 451, i64 %14, i8* getelementptr inbounds ([12 x i8], [12 x i8]* @.str.144, i32 0, i32 0))
  %15 = load i32*, i32** %nlist, align 8, !dbg !2918, !dp.md.instr.id !2920
  %cmp2 = icmp ne i32* %15, null, !dbg !2921, !dp.md.instr.id !2922
  call void @__dp_incr_taken_branch_counter(i8* getelementptr inbounds ([12 x i8], [12 x i8]* @.str.149, i32 0, i32 0), i1 %cmp2, i32 1), !dbg !2923, !dp.md.instr.id !2924
  call void @__dp_incr_taken_branch_counter(i8* getelementptr inbounds ([12 x i8], [12 x i8]* @.str.150, i32 0, i32 0), i1 %cmp2, i32 0), !dbg !2923, !dp.md.instr.id !2925
  call void @__dp_report_bb(i32 262)
  br i1 %cmp2, label %if.then3, label %if.end5, !dbg !2923, !dp.md.instr.id !2926

if.then3:                                         ; preds = %if.end
  %16 = ptrtoint %struct.ECLgraph** %g.addr to i64
  %17 = load %struct.ECLgraph*, %struct.ECLgraph** %g.addr, align 8, !dbg !2927, !dp.md.instr.id !2928
  %nlist4 = getelementptr inbounds %struct.ECLgraph, %struct.ECLgraph* %17, i32 0, i32 3, !dbg !2929, !dp.md.instr.id !2930
  %18 = ptrtoint i32** %nlist4 to i64
  call void @__dp_read(i32 458, i64 %18, i8* getelementptr inbounds ([12 x i8], [12 x i8]* @.str.144, i32 0, i32 0))
  %19 = load i32*, i32** %nlist4, align 8, !dbg !2929, !dp.md.instr.id !2931
  %20 = bitcast i32* %19 to i8*, !dbg !2927, !dp.md.instr.id !2932
  call void @free(i8* %20) #14, !dbg !2933, !dp.md.instr.id !2934
  %21 = ptrtoint i8* %20 to i64, !dp.md.instr.id !2935
  call void @__dp_delete(i32 16485, i64 %21), !dbg !2933, !dp.md.instr.id !2936
  call void @__dp_report_bb(i32 263)
  br label %if.end5, !dbg !2933, !dp.md.instr.id !2937

if.end5:                                          ; preds = %if.then3, %if.end
  %22 = ptrtoint %struct.ECLgraph** %g.addr to i64
  %23 = load %struct.ECLgraph*, %struct.ECLgraph** %g.addr, align 8, !dbg !2938, !dp.md.instr.id !2940
  %eweight = getelementptr inbounds %struct.ECLgraph, %struct.ECLgraph* %23, i32 0, i32 4, !dbg !2941, !dp.md.instr.id !2942
  %24 = ptrtoint i32** %eweight to i64
  call void @__dp_read(i32 466, i64 %24, i8* getelementptr inbounds ([12 x i8], [12 x i8]* @.str.144, i32 0, i32 0))
  %25 = load i32*, i32** %eweight, align 8, !dbg !2941, !dp.md.instr.id !2943
  %cmp6 = icmp ne i32* %25, null, !dbg !2944, !dp.md.instr.id !2945
  call void @__dp_incr_taken_branch_counter(i8* getelementptr inbounds ([12 x i8], [12 x i8]* @.str.151, i32 0, i32 0), i1 %cmp6, i32 1), !dbg !2946, !dp.md.instr.id !2947
  call void @__dp_incr_taken_branch_counter(i8* getelementptr inbounds ([12 x i8], [12 x i8]* @.str.152, i32 0, i32 0), i1 %cmp6, i32 0), !dbg !2946, !dp.md.instr.id !2948
  call void @__dp_incr_taken_branch_counter(i8* getelementptr inbounds ([12 x i8], [12 x i8]* @.str.153, i32 0, i32 0), i1 %cmp6, i32 0), !dbg !2946, !dp.md.instr.id !2949
  call void @__dp_incr_taken_branch_counter(i8* getelementptr inbounds ([12 x i8], [12 x i8]* @.str.154, i32 0, i32 0), i1 %cmp6, i32 0), !dbg !2946, !dp.md.instr.id !2950
  call void @__dp_report_bb(i32 264)
  br i1 %cmp6, label %if.then7, label %if.end9, !dbg !2946, !dp.md.instr.id !2951

if.then7:                                         ; preds = %if.end5
  %26 = ptrtoint %struct.ECLgraph** %g.addr to i64
  %27 = load %struct.ECLgraph*, %struct.ECLgraph** %g.addr, align 8, !dbg !2952, !dp.md.instr.id !2953
  %eweight8 = getelementptr inbounds %struct.ECLgraph, %struct.ECLgraph* %27, i32 0, i32 4, !dbg !2954, !dp.md.instr.id !2955
  %28 = ptrtoint i32** %eweight8 to i64
  call void @__dp_read(i32 475, i64 %28, i8* getelementptr inbounds ([12 x i8], [12 x i8]* @.str.144, i32 0, i32 0))
  %29 = load i32*, i32** %eweight8, align 8, !dbg !2954, !dp.md.instr.id !2956
  %30 = bitcast i32* %29 to i8*, !dbg !2952, !dp.md.instr.id !2957
  call void @free(i8* %30) #14, !dbg !2958, !dp.md.instr.id !2959
  %31 = ptrtoint i8* %30 to i64, !dp.md.instr.id !2960
  call void @__dp_delete(i32 16486, i64 %31), !dbg !2958, !dp.md.instr.id !2961
  call void @__dp_report_bb(i32 265)
  br label %if.end9, !dbg !2958, !dp.md.instr.id !2962

if.end9:                                          ; preds = %if.then7, %if.end5
  %32 = ptrtoint %struct.ECLgraph** %g.addr to i64
  %33 = load %struct.ECLgraph*, %struct.ECLgraph** %g.addr, align 8, !dbg !2963, !dp.md.instr.id !2964
  %nindex10 = getelementptr inbounds %struct.ECLgraph, %struct.ECLgraph* %33, i32 0, i32 2, !dbg !2965, !dp.md.instr.id !2966
  %34 = ptrtoint i32** %nindex10 to i64
  call void @__dp_write(i32 483, i64 %34, i8* getelementptr inbounds ([12 x i8], [12 x i8]* @.str.144, i32 0, i32 0))
  store i32* null, i32** %nindex10, align 8, !dbg !2967, !dp.md.instr.id !2968
  %35 = ptrtoint %struct.ECLgraph** %g.addr to i64
  %36 = load %struct.ECLgraph*, %struct.ECLgraph** %g.addr, align 8, !dbg !2969, !dp.md.instr.id !2970
  %nlist11 = getelementptr inbounds %struct.ECLgraph, %struct.ECLgraph* %36, i32 0, i32 3, !dbg !2971, !dp.md.instr.id !2972
  %37 = ptrtoint i32** %nlist11 to i64
  call void @__dp_write(i32 486, i64 %37, i8* getelementptr inbounds ([12 x i8], [12 x i8]* @.str.144, i32 0, i32 0))
  store i32* null, i32** %nlist11, align 8, !dbg !2973, !dp.md.instr.id !2974
  %38 = ptrtoint %struct.ECLgraph** %g.addr to i64
  %39 = load %struct.ECLgraph*, %struct.ECLgraph** %g.addr, align 8, !dbg !2975, !dp.md.instr.id !2976
  %eweight12 = getelementptr inbounds %struct.ECLgraph, %struct.ECLgraph* %39, i32 0, i32 4, !dbg !2977, !dp.md.instr.id !2978
  %40 = ptrtoint i32** %eweight12 to i64
  call void @__dp_write(i32 489, i64 %40, i8* getelementptr inbounds ([12 x i8], [12 x i8]* @.str.144, i32 0, i32 0))
  store i32* null, i32** %eweight12, align 8, !dbg !2979, !dp.md.instr.id !2980
  call void @__dp_report_bb(i32 266)
  call void @__dp_func_exit(i32 16490, i32 0), !dbg !2981
  ret void, !dbg !2981, !dp.md.instr.id !2982
}

; Function Attrs: noinline norecurse optnone uwtable
define i32 @main(i32 %argc, i8** %argv) #6 !dbg !2983 {
entry:
  call void @__dp_func_entry(i32 32892, i32 1), !dp.md.instr.id !2986
  %__dp_bb177 = alloca i32, align 4
  store i32 0, i32* %__dp_bb177, align 4
  %__dp_bb176 = alloca i32, align 4
  store i32 0, i32* %__dp_bb176, align 4
  %__dp_bb175 = alloca i32, align 4
  store i32 0, i32* %__dp_bb175, align 4
  %__dp_bb174 = alloca i32, align 4
  store i32 0, i32* %__dp_bb174, align 4
  %__dp_bb173 = alloca i32, align 4
  store i32 0, i32* %__dp_bb173, align 4
  %__dp_bb172 = alloca i32, align 4
  store i32 0, i32* %__dp_bb172, align 4
  %__dp_bb171 = alloca i32, align 4
  store i32 0, i32* %__dp_bb171, align 4
  %__dp_bb170 = alloca i32, align 4
  store i32 0, i32* %__dp_bb170, align 4
  %__dp_bb169 = alloca i32, align 4
  store i32 0, i32* %__dp_bb169, align 4
  %__dp_bb168 = alloca i32, align 4
  store i32 0, i32* %__dp_bb168, align 4
  %__dp_bb167 = alloca i32, align 4
  store i32 0, i32* %__dp_bb167, align 4
  %__dp_bb = alloca i32, align 4
  store i32 0, i32* %__dp_bb, align 4
  %retval = alloca i32, align 4, !dp.md.instr.id !2987
  %0 = ptrtoint i32* %retval to i64, !dp.md.instr.id !2988
  %argc.addr = alloca i32, align 4, !dp.md.instr.id !2989
  %1 = ptrtoint i32* %argc.addr to i64, !dp.md.instr.id !2990
  %argv.addr = alloca i8**, align 8, !dp.md.instr.id !2991
  %2 = ptrtoint i8*** %argv.addr to i64, !dp.md.instr.id !2992
  %g = alloca %struct.ECLgraph, align 8, !dp.md.instr.id !2993
  %3 = ptrtoint %struct.ECLgraph* %g to i64, !dp.md.instr.id !2994
  call void @__dp_alloca(i32 32892, i8* getelementptr inbounds ([2 x i8], [2 x i8]* @.str.155, i32 0, i32 0), i64 %3, i64 %3, i64 0, i64 1), !dp.md.instr.id !2995
  %i = alloca i32, align 4, !dp.md.instr.id !2996
  %4 = ptrtoint i32* %i to i64, !dp.md.instr.id !2997
  %j = alloca i32, align 4, !dp.md.instr.id !2998
  %5 = ptrtoint i32* %j to i64, !dp.md.instr.id !2999
  %nei = alloca i32, align 4, !dp.md.instr.id !3000
  %6 = ptrtoint i32* %nei to i64, !dp.md.instr.id !3001
  %source = alloca i32, align 4, !dp.md.instr.id !3002
  %7 = ptrtoint i32* %source to i64, !dp.md.instr.id !3003
  %runveri = alloca i32, align 4, !dp.md.instr.id !3004
  %8 = ptrtoint i32* %runveri to i64, !dp.md.instr.id !3005
  %threadCount = alloca i32, align 4, !dp.md.instr.id !3006
  %9 = ptrtoint i32* %threadCount to i64, !dp.md.instr.id !3007
  %countInt = alloca i32, align 4, !dp.md.instr.id !3008
  %10 = ptrtoint i32* %countInt to i64, !dp.md.instr.id !3009
  %sp = alloca i32*, align 8, !dp.md.instr.id !3010
  %11 = ptrtoint i32** %sp to i64, !dp.md.instr.id !3011
  %i76 = alloca i32, align 4, !dp.md.instr.id !3012
  %12 = ptrtoint i32* %i76 to i64, !dp.md.instr.id !3013
  %j81 = alloca i32, align 4, !dp.md.instr.id !3014
  %13 = ptrtoint i32* %j81 to i64, !dp.md.instr.id !3015
  %distance = alloca i32*, align 8, !dp.md.instr.id !3016
  %14 = ptrtoint i32** %distance to i64, !dp.md.instr.id !3017
  %runs = alloca i32, align 4, !dp.md.instr.id !3018
  %15 = ptrtoint i32* %runs to i64, !dp.md.instr.id !3019
  %runtimes = alloca [3 x double], align 16, !dp.md.instr.id !3020
  %16 = ptrtoint [3 x double]* %runtimes to i64, !dp.md.instr.id !3021
  %17 = add i64 %16, 3, !dp.md.instr.id !3022
  call void @__dp_alloca(i32 32892, i8* getelementptr inbounds ([9 x i8], [9 x i8]* @.str.510, i32 0, i32 0), i64 %16, i64 %17, i64 24, i64 3), !dp.md.instr.id !3023
  %i103 = alloca i32, align 4, !dp.md.instr.id !3024
  %18 = ptrtoint i32* %i103 to i64, !dp.md.instr.id !3025
  %med = alloca double, align 8, !dp.md.instr.id !3026
  %19 = ptrtoint double* %med to i64, !dp.md.instr.id !3027
  %maxnode = alloca i32, align 4, !dp.md.instr.id !3028
  %20 = ptrtoint i32* %maxnode to i64, !dp.md.instr.id !3029
  %v = alloca i32, align 4, !dp.md.instr.id !3030
  %21 = ptrtoint i32* %v to i64, !dp.md.instr.id !3031
  %verify = alloca i32*, align 8, !dp.md.instr.id !3032
  %22 = ptrtoint i32** %verify to i64, !dp.md.instr.id !3033
  %v141 = alloca i32, align 4, !dp.md.instr.id !3034
  %23 = ptrtoint i32* %v141 to i64, !dp.md.instr.id !3035
  %24 = ptrtoint i32* %retval to i64
  store i32 0, i32* %retval, align 4, !dp.md.instr.id !3036
  %25 = ptrtoint i32* %argc.addr to i64
  store i32 %argc, i32* %argc.addr, align 4, !dp.md.instr.id !3037
  call void @llvm.dbg.declare(metadata i32* %argc.addr, metadata !3038, metadata !DIExpression()), !dbg !3039, !dp.md.instr.id !3040
  %26 = ptrtoint i8*** %argv.addr to i64
  store i8** %argv, i8*** %argv.addr, align 8, !dp.md.instr.id !3041
  call void @llvm.dbg.declare(metadata i8*** %argv.addr, metadata !3042, metadata !DIExpression()), !dbg !3043, !dp.md.instr.id !3044
  call void @__dp_call(i32 32894), !dbg !3045
  %call = call i32 (i8*, ...) @printf(i8* getelementptr inbounds ([31 x i8], [31 x i8]* @.str.16, i64 0, i64 0), i8* getelementptr inbounds ([70 x i8], [70 x i8]* @.str.17, i64 0, i64 0)), !dbg !3045, !dp.md.instr.id !3046
  %27 = ptrtoint i32* %argc.addr to i64
  %28 = load i32, i32* %argc.addr, align 4, !dbg !3047, !dp.md.instr.id !3049
  %cmp = icmp ne i32 %28, 4, !dbg !3050, !dp.md.instr.id !3051
  call void @__dp_incr_taken_branch_counter(i8* getelementptr inbounds ([12 x i8], [12 x i8]* @.str.156, i32 0, i32 0), i1 %cmp, i32 1), !dbg !3052, !dp.md.instr.id !3053
  call void @__dp_incr_taken_branch_counter(i8* getelementptr inbounds ([12 x i8], [12 x i8]* @.str.157, i32 0, i32 0), i1 %cmp, i32 0), !dbg !3052, !dp.md.instr.id !3054
  call void @__dp_incr_taken_branch_counter(i8* getelementptr inbounds ([12 x i8], [12 x i8]* @.str.158, i32 0, i32 0), i1 %cmp, i32 0), !dbg !3052, !dp.md.instr.id !3055
  call void @__dp_incr_taken_branch_counter(i8* getelementptr inbounds ([12 x i8], [12 x i8]* @.str.159, i32 0, i32 0), i1 %cmp, i32 1), !dbg !3052, !dp.md.instr.id !3056
  call void @__dp_incr_taken_branch_counter(i8* getelementptr inbounds ([12 x i8], [12 x i8]* @.str.160, i32 0, i32 0), i1 %cmp, i32 0), !dbg !3052, !dp.md.instr.id !3057
  call void @__dp_incr_taken_branch_counter(i8* getelementptr inbounds ([12 x i8], [12 x i8]* @.str.161, i32 0, i32 0), i1 %cmp, i32 0), !dbg !3052, !dp.md.instr.id !3058
  call void @__dp_incr_taken_branch_counter(i8* getelementptr inbounds ([12 x i8], [12 x i8]* @.str.162, i32 0, i32 0), i1 %cmp, i32 1), !dbg !3052, !dp.md.instr.id !3059
  call void @__dp_incr_taken_branch_counter(i8* getelementptr inbounds ([12 x i8], [12 x i8]* @.str.163, i32 0, i32 0), i1 %cmp, i32 0), !dbg !3052, !dp.md.instr.id !3060
  call void @__dp_incr_taken_branch_counter(i8* getelementptr inbounds ([12 x i8], [12 x i8]* @.str.164, i32 0, i32 0), i1 %cmp, i32 0), !dbg !3052, !dp.md.instr.id !3061
  call void @__dp_report_bb(i32 281)
  br i1 %cmp, label %land.lhs.true, label %if.end, !dbg !3052, !dp.md.instr.id !3062

land.lhs.true:                                    ; preds = %entry
  %29 = ptrtoint i32* %argc.addr to i64
  %30 = load i32, i32* %argc.addr, align 4, !dbg !3063, !dp.md.instr.id !3064
  %cmp1 = icmp ne i32 %30, 5, !dbg !3065, !dp.md.instr.id !3066
  call void @__dp_incr_taken_branch_counter(i8* getelementptr inbounds ([12 x i8], [12 x i8]* @.str.165, i32 0, i32 0), i1 %cmp1, i32 1), !dbg !3067, !dp.md.instr.id !3068
  call void @__dp_incr_taken_branch_counter(i8* getelementptr inbounds ([12 x i8], [12 x i8]* @.str.166, i32 0, i32 0), i1 %cmp1, i32 0), !dbg !3067, !dp.md.instr.id !3069
  call void @__dp_incr_taken_branch_counter(i8* getelementptr inbounds ([12 x i8], [12 x i8]* @.str.167, i32 0, i32 0), i1 %cmp1, i32 0), !dbg !3067, !dp.md.instr.id !3070
  call void @__dp_report_bb(i32 280)
  br i1 %cmp1, label %if.then, label %if.end, !dbg !3067, !dp.md.instr.id !3071

if.then:                                          ; preds = %land.lhs.true
  %31 = ptrtoint %struct._IO_FILE** @stderr to i64
  call void @__dp_read(i32 586, i64 %31, i8* getelementptr inbounds ([7 x i8], [7 x i8]* @.str.99, i32 0, i32 0))
  %32 = load %struct._IO_FILE*, %struct._IO_FILE** @stderr, align 8, !dbg !3072, !dp.md.instr.id !3074
  %33 = ptrtoint i8*** %argv.addr to i64
  %34 = load i8**, i8*** %argv.addr, align 8, !dbg !3075, !dp.md.instr.id !3076
  %arrayidx = getelementptr inbounds i8*, i8** %34, i64 0, !dbg !3075, !dp.md.instr.id !3077
  %35 = ptrtoint i8** %arrayidx to i64
  call void @__dp_read(i32 589, i64 %35, i8* getelementptr inbounds ([15 x i8], [15 x i8]* @.str.515, i32 0, i32 0))
  %36 = load i8*, i8** %arrayidx, align 8, !dbg !3075, !dp.md.instr.id !3078
  call void @__dp_call(i32 32895), !dbg !3079
  %call2 = call i32 (%struct._IO_FILE*, i8*, ...) @fprintf(%struct._IO_FILE* %32, i8* getelementptr inbounds ([76 x i8], [76 x i8]* @.str.18, i64 0, i64 0), i8* %36), !dbg !3079, !dp.md.instr.id !3080
  call void @__dp_finalize(i32 32895), !dbg !3081
  call void @exit(i32 -1) #15, !dbg !3081, !dp.md.instr.id !3082
  call void @__dp_report_bb(i32 278)
  unreachable, !dbg !3081, !dp.md.instr.id !3083

if.end:                                           ; preds = %land.lhs.true, %entry
  call void @llvm.dbg.declare(metadata %struct.ECLgraph* %g, metadata !3084, metadata !DIExpression()), !dbg !3085, !dp.md.instr.id !3086
  %37 = ptrtoint i8*** %argv.addr to i64
  %38 = load i8**, i8*** %argv.addr, align 8, !dbg !3087, !dp.md.instr.id !3088
  %arrayidx3 = getelementptr inbounds i8*, i8** %38, i64 1, !dbg !3087, !dp.md.instr.id !3089
  %39 = ptrtoint i8** %arrayidx3 to i64
  call void @__dp_read(i32 596, i64 %39, i8* getelementptr inbounds ([15 x i8], [15 x i8]* @.str.515, i32 0, i32 0))
  %40 = load i8*, i8** %arrayidx3, align 8, !dbg !3087, !dp.md.instr.id !3090
  call void @__dp_call(i32 32898), !dbg !3091
  call void @_Z12readECLgraphPKc(%struct.ECLgraph* sret align 8 %g, i8* %40), !dbg !3091, !dp.md.instr.id !3092
  %eweight = getelementptr inbounds %struct.ECLgraph, %struct.ECLgraph* %g, i32 0, i32 4, !dbg !3093, !dp.md.instr.id !3095
  %41 = ptrtoint i32** %eweight to i64
  call void @__dp_read(i32 599, i64 %41, i8* getelementptr inbounds ([12 x i8], [12 x i8]* @.str.144, i32 0, i32 0))
  %42 = load i32*, i32** %eweight, align 8, !dbg !3093, !dp.md.instr.id !3096
  %cmp4 = icmp eq i32* %42, null, !dbg !3097, !dp.md.instr.id !3098
  call void @__dp_incr_taken_branch_counter(i8* getelementptr inbounds ([12 x i8], [12 x i8]* @.str.168, i32 0, i32 0), i1 %cmp4, i32 1), !dbg !3099, !dp.md.instr.id !3100
  call void @__dp_incr_taken_branch_counter(i8* getelementptr inbounds ([12 x i8], [12 x i8]* @.str.169, i32 0, i32 0), i1 %cmp4, i32 1), !dbg !3099, !dp.md.instr.id !3101
  call void @__dp_incr_taken_branch_counter(i8* getelementptr inbounds ([12 x i8], [12 x i8]* @.str.170, i32 0, i32 0), i1 %cmp4, i32 0), !dbg !3099, !dp.md.instr.id !3102
  call void @__dp_incr_taken_branch_counter(i8* getelementptr inbounds ([12 x i8], [12 x i8]* @.str.171, i32 0, i32 0), i1 %cmp4, i32 0), !dbg !3099, !dp.md.instr.id !3103
  call void @__dp_incr_taken_branch_counter(i8* getelementptr inbounds ([12 x i8], [12 x i8]* @.str.172, i32 0, i32 0), i1 %cmp4, i32 1), !dbg !3099, !dp.md.instr.id !3104
  call void @__dp_incr_taken_branch_counter(i8* getelementptr inbounds ([12 x i8], [12 x i8]* @.str.173, i32 0, i32 0), i1 %cmp4, i32 1), !dbg !3099, !dp.md.instr.id !3105
  call void @__dp_incr_taken_branch_counter(i8* getelementptr inbounds ([12 x i8], [12 x i8]* @.str.174, i32 0, i32 0), i1 %cmp4, i32 0), !dbg !3099, !dp.md.instr.id !3106
  call void @__dp_incr_taken_branch_counter(i8* getelementptr inbounds ([12 x i8], [12 x i8]* @.str.175, i32 0, i32 0), i1 %cmp4, i32 0), !dbg !3099, !dp.md.instr.id !3107
  call void @__dp_report_bb(i32 279)
  br i1 %cmp4, label %if.then5, label %if.end39, !dbg !3099, !dp.md.instr.id !3108

if.then5:                                         ; preds = %if.end
  call void @__dp_call(i32 32900), !dbg !3109
  %call6 = call i32 (i8*, ...) @printf(i8* getelementptr inbounds ([21 x i8], [21 x i8]* @.str.19, i64 0, i64 0)), !dbg !3109, !dp.md.instr.id !3111
  %edges = getelementptr inbounds %struct.ECLgraph, %struct.ECLgraph* %g, i32 0, i32 1, !dbg !3112, !dp.md.instr.id !3113
  %43 = ptrtoint i32* %edges to i64
  call void @__dp_read(i32 612, i64 %43, i8* getelementptr inbounds ([12 x i8], [12 x i8]* @.str.144, i32 0, i32 0))
  %44 = load i32, i32* %edges, align 4, !dbg !3112, !dp.md.instr.id !3114
  %conv = sext i32 %44 to i64, !dbg !3115, !dp.md.instr.id !3116
  call void @__dp_call(i32 32901), !dbg !3117
  %45 = call { i64, i1 } @llvm.umul.with.overflow.i64(i64 %conv, i64 4), !dbg !3117, !dp.md.instr.id !3118
  %46 = extractvalue { i64, i1 } %45, 1, !dbg !3117, !dp.md.instr.id !3119
  %47 = extractvalue { i64, i1 } %45, 0, !dbg !3117, !dp.md.instr.id !3120
  %48 = select i1 %46, i64 -1, i64 %47, !dbg !3117, !dp.md.instr.id !3121
  %call7 = call noalias nonnull i8* @_Znam(i64 %48) #16, !dbg !3117, !heapallocsite !26, !dp.md.instr.id !3122
  %49 = ptrtoint i8* %call7 to i64, !dp.md.instr.id !3123
  call void @__dp_new(i32 32901, i64 %49, i64 %49, i64 %48), !dbg !3117, !dp.md.instr.id !3124
  %50 = bitcast i8* %call7 to i32*, !dbg !3117, !dp.md.instr.id !3125
  %eweight8 = getelementptr inbounds %struct.ECLgraph, %struct.ECLgraph* %g, i32 0, i32 4, !dbg !3126, !dp.md.instr.id !3127
  %51 = ptrtoint i32** %eweight8 to i64
  call void @__dp_write(i32 623, i64 %51, i8* getelementptr inbounds ([12 x i8], [12 x i8]* @.str.144, i32 0, i32 0))
  store i32* %50, i32** %eweight8, align 8, !dbg !3128, !dp.md.instr.id !3129
  call void @llvm.dbg.declare(metadata i32* %i, metadata !3130, metadata !DIExpression()), !dbg !3132, !dp.md.instr.id !3133
  %52 = ptrtoint i32* %i to i64
  store i32 0, i32* %i, align 4, !dbg !3132, !dp.md.instr.id !3134
  call void @__dp_report_bb(i32 272)
  br label %for.cond, !dbg !3135, !dp.md.instr.id !3136

for.cond:                                         ; preds = %for.inc36, %if.then5
  call void @__dp_loop_entry(i32 32902, i32 0), !dp.md.instr.id !3137
  %53 = ptrtoint i32* %i to i64
  %54 = load i32, i32* %i, align 4, !dbg !3138, !dp.md.instr.id !3140
  %nodes = getelementptr inbounds %struct.ECLgraph, %struct.ECLgraph* %g, i32 0, i32 0, !dbg !3141, !dp.md.instr.id !3142
  %55 = ptrtoint i32* %nodes to i64
  call void @__dp_read(i32 630, i64 %55, i8* getelementptr inbounds ([12 x i8], [12 x i8]* @.str.144, i32 0, i32 0))
  %56 = load i32, i32* %nodes, align 8, !dbg !3141, !dp.md.instr.id !3143
  %cmp9 = icmp slt i32 %54, %56, !dbg !3144, !dp.md.instr.id !3145
  call void @__dp_incr_taken_branch_counter(i8* getelementptr inbounds ([12 x i8], [12 x i8]* @.str.176, i32 0, i32 0), i1 %cmp9, i32 1), !dbg !3146, !dp.md.instr.id !3147
  call void @__dp_incr_taken_branch_counter(i8* getelementptr inbounds ([12 x i8], [12 x i8]* @.str.177, i32 0, i32 0), i1 %cmp9, i32 0), !dbg !3146, !dp.md.instr.id !3148
  call void @__dp_report_bb(i32 276)
  %57 = load i32, i32* %__dp_bb167, align 4
  call void @__dp_report_bb_pair(i32 %57, i32 315)
  br i1 %cmp9, label %for.body, label %for.end38, !dbg !3146, !dp.md.instr.id !3149

for.body:                                         ; preds = %for.cond
  call void @__dp_loop_incr(i32 6)
  call void @llvm.dbg.declare(metadata i32* %j, metadata !3150, metadata !DIExpression()), !dbg !3153, !dp.md.instr.id !3154
  %nindex = getelementptr inbounds %struct.ECLgraph, %struct.ECLgraph* %g, i32 0, i32 2, !dbg !3155, !dp.md.instr.id !3156
  %58 = ptrtoint i32** %nindex to i64
  call void @__dp_read(i32 637, i64 %58, i8* getelementptr inbounds ([12 x i8], [12 x i8]* @.str.144, i32 0, i32 0))
  %59 = load i32*, i32** %nindex, align 8, !dbg !3155, !dp.md.instr.id !3157
  %60 = ptrtoint i32* %i to i64
  %61 = load i32, i32* %i, align 4, !dbg !3158, !dp.md.instr.id !3159
  %idxprom = sext i32 %61 to i64, !dbg !3160, !dp.md.instr.id !3161
  %arrayidx10 = getelementptr inbounds i32, i32* %59, i64 %idxprom, !dbg !3160, !dp.md.instr.id !3162
  %62 = ptrtoint i32* %arrayidx10 to i64
  call void @__dp_read(i32 641, i64 %62, i8* getelementptr inbounds ([22 x i8], [22 x i8]* @.str.516, i32 0, i32 0))
  %63 = load i32, i32* %arrayidx10, align 4, !dbg !3160, !dp.md.instr.id !3163
  %64 = ptrtoint i32* %j to i64
  store i32 %63, i32* %j, align 4, !dbg !3153, !dp.md.instr.id !3164
  call void @__dp_report_bb(i32 275)
  %65 = load i32, i32* %__dp_bb167, align 4
  call void @__dp_report_bb_pair(i32 %65, i32 314)
  %66 = load i32, i32* %__dp_bb168, align 4
  call void @__dp_report_bb_pair(i32 %66, i32 318)
  br label %for.cond11, !dbg !3165, !dp.md.instr.id !3166

for.cond11:                                       ; preds = %for.inc, %for.body
  call void @__dp_loop_entry(i32 32903, i32 1), !dp.md.instr.id !3167
  %67 = ptrtoint i32* %j to i64
  %68 = load i32, i32* %j, align 4, !dbg !3168, !dp.md.instr.id !3170
  %nindex12 = getelementptr inbounds %struct.ECLgraph, %struct.ECLgraph* %g, i32 0, i32 2, !dbg !3171, !dp.md.instr.id !3172
  %69 = ptrtoint i32** %nindex12 to i64
  call void @__dp_read(i32 647, i64 %69, i8* getelementptr inbounds ([12 x i8], [12 x i8]* @.str.144, i32 0, i32 0))
  %70 = load i32*, i32** %nindex12, align 8, !dbg !3171, !dp.md.instr.id !3173
  %71 = ptrtoint i32* %i to i64
  %72 = load i32, i32* %i, align 4, !dbg !3174, !dp.md.instr.id !3175
  %add = add nsw i32 %72, 1, !dbg !3176, !dp.md.instr.id !3177
  %idxprom13 = sext i32 %add to i64, !dbg !3178, !dp.md.instr.id !3179
  %arrayidx14 = getelementptr inbounds i32, i32* %70, i64 %idxprom13, !dbg !3178, !dp.md.instr.id !3180
  %73 = ptrtoint i32* %arrayidx14 to i64
  call void @__dp_read(i32 652, i64 %73, i8* getelementptr inbounds ([22 x i8], [22 x i8]* @.str.516, i32 0, i32 0))
  %74 = load i32, i32* %arrayidx14, align 4, !dbg !3178, !dp.md.instr.id !3181
  %cmp15 = icmp slt i32 %68, %74, !dbg !3182, !dp.md.instr.id !3183
  call void @__dp_incr_taken_branch_counter(i8* getelementptr inbounds ([12 x i8], [12 x i8]* @.str.178, i32 0, i32 0), i1 %cmp15, i32 1), !dbg !3184, !dp.md.instr.id !3185
  call void @__dp_incr_taken_branch_counter(i8* getelementptr inbounds ([12 x i8], [12 x i8]* @.str.179, i32 0, i32 0), i1 %cmp15, i32 1), !dbg !3184, !dp.md.instr.id !3186
  call void @__dp_incr_taken_branch_counter(i8* getelementptr inbounds ([12 x i8], [12 x i8]* @.str.180, i32 0, i32 0), i1 %cmp15, i32 1), !dbg !3184, !dp.md.instr.id !3187
  call void @__dp_incr_taken_branch_counter(i8* getelementptr inbounds ([12 x i8], [12 x i8]* @.str.181, i32 0, i32 0), i1 %cmp15, i32 0), !dbg !3184, !dp.md.instr.id !3188
  call void @__dp_report_bb(i32 282)
  %75 = load i32, i32* %__dp_bb167, align 4
  call void @__dp_report_bb_pair(i32 %75, i32 316)
  store i32 1, i32* %__dp_bb168, align 4
  %76 = load i32, i32* %__dp_bb169, align 4
  call void @__dp_report_bb_pair(i32 %76, i32 319)
  br i1 %cmp15, label %for.body16, label %for.end, !dbg !3184, !dp.md.instr.id !3189

for.body16:                                       ; preds = %for.cond11
  call void @__dp_loop_incr(i32 7)
  call void @llvm.dbg.declare(metadata i32* %nei, metadata !3190, metadata !DIExpression()), !dbg !3192, !dp.md.instr.id !3193
  %nlist = getelementptr inbounds %struct.ECLgraph, %struct.ECLgraph* %g, i32 0, i32 3, !dbg !3194, !dp.md.instr.id !3195
  %77 = ptrtoint i32** %nlist to i64
  call void @__dp_read(i32 661, i64 %77, i8* getelementptr inbounds ([12 x i8], [12 x i8]* @.str.144, i32 0, i32 0))
  %78 = load i32*, i32** %nlist, align 8, !dbg !3194, !dp.md.instr.id !3196
  %79 = ptrtoint i32* %j to i64
  %80 = load i32, i32* %j, align 4, !dbg !3197, !dp.md.instr.id !3198
  %idxprom17 = sext i32 %80 to i64, !dbg !3199, !dp.md.instr.id !3200
  %arrayidx18 = getelementptr inbounds i32, i32* %78, i64 %idxprom17, !dbg !3199, !dp.md.instr.id !3201
  %81 = ptrtoint i32* %arrayidx18 to i64
  call void @__dp_read(i32 665, i64 %81, i8* getelementptr inbounds ([22 x i8], [22 x i8]* @.str.516, i32 0, i32 0))
  %82 = load i32, i32* %arrayidx18, align 4, !dbg !3199, !dp.md.instr.id !3202
  %83 = ptrtoint i32* %nei to i64
  store i32 %82, i32* %nei, align 4, !dbg !3192, !dp.md.instr.id !3203
  %84 = ptrtoint i32* %i to i64
  %85 = load i32, i32* %i, align 4, !dbg !3204, !dp.md.instr.id !3205
  %86 = ptrtoint i32* %nei to i64
  %87 = load i32, i32* %nei, align 4, !dbg !3206, !dp.md.instr.id !3207
  %mul = mul nsw i32 %85, %87, !dbg !3208, !dp.md.instr.id !3209
  %nodes19 = getelementptr inbounds %struct.ECLgraph, %struct.ECLgraph* %g, i32 0, i32 0, !dbg !3210, !dp.md.instr.id !3211
  %88 = ptrtoint i32* %nodes19 to i64
  call void @__dp_read(i32 671, i64 %88, i8* getelementptr inbounds ([12 x i8], [12 x i8]* @.str.144, i32 0, i32 0))
  %89 = load i32, i32* %nodes19, align 8, !dbg !3210, !dp.md.instr.id !3212
  %rem = srem i32 %mul, %89, !dbg !3213, !dp.md.instr.id !3214
  %add20 = add nsw i32 1, %rem, !dbg !3215, !dp.md.instr.id !3216
  %eweight21 = getelementptr inbounds %struct.ECLgraph, %struct.ECLgraph* %g, i32 0, i32 4, !dbg !3217, !dp.md.instr.id !3218
  %90 = ptrtoint i32** %eweight21 to i64
  call void @__dp_read(i32 675, i64 %90, i8* getelementptr inbounds ([12 x i8], [12 x i8]* @.str.144, i32 0, i32 0))
  %91 = load i32*, i32** %eweight21, align 8, !dbg !3217, !dp.md.instr.id !3219
  %92 = ptrtoint i32* %j to i64
  %93 = load i32, i32* %j, align 4, !dbg !3220, !dp.md.instr.id !3221
  %idxprom22 = sext i32 %93 to i64, !dbg !3222, !dp.md.instr.id !3223
  %arrayidx23 = getelementptr inbounds i32, i32* %91, i64 %idxprom22, !dbg !3222, !dp.md.instr.id !3224
  %94 = ptrtoint i32* %arrayidx23 to i64
  call void @__dp_write(i32 679, i64 %94, i8* getelementptr inbounds ([22 x i8], [22 x i8]* @.str.516, i32 0, i32 0))
  store i32 %add20, i32* %arrayidx23, align 4, !dbg !3225, !dp.md.instr.id !3226
  %eweight24 = getelementptr inbounds %struct.ECLgraph, %struct.ECLgraph* %g, i32 0, i32 4, !dbg !3227, !dp.md.instr.id !3229
  %95 = ptrtoint i32** %eweight24 to i64
  call void @__dp_read(i32 681, i64 %95, i8* getelementptr inbounds ([12 x i8], [12 x i8]* @.str.144, i32 0, i32 0))
  %96 = load i32*, i32** %eweight24, align 8, !dbg !3227, !dp.md.instr.id !3230
  %97 = ptrtoint i32* %j to i64
  %98 = load i32, i32* %j, align 4, !dbg !3231, !dp.md.instr.id !3232
  %idxprom25 = sext i32 %98 to i64, !dbg !3233, !dp.md.instr.id !3234
  %arrayidx26 = getelementptr inbounds i32, i32* %96, i64 %idxprom25, !dbg !3233, !dp.md.instr.id !3235
  %99 = ptrtoint i32* %arrayidx26 to i64
  call void @__dp_read(i32 685, i64 %99, i8* getelementptr inbounds ([22 x i8], [22 x i8]* @.str.516, i32 0, i32 0))
  %100 = load i32, i32* %arrayidx26, align 4, !dbg !3233, !dp.md.instr.id !3236
  %cmp27 = icmp slt i32 %100, 0, !dbg !3237, !dp.md.instr.id !3238
  call void @__dp_incr_taken_branch_counter(i8* getelementptr inbounds ([12 x i8], [12 x i8]* @.str.182, i32 0, i32 0), i1 %cmp27, i32 1), !dbg !3239, !dp.md.instr.id !3240
  call void @__dp_incr_taken_branch_counter(i8* getelementptr inbounds ([12 x i8], [12 x i8]* @.str.183, i32 0, i32 0), i1 %cmp27, i32 0), !dbg !3239, !dp.md.instr.id !3241
  call void @__dp_incr_taken_branch_counter(i8* getelementptr inbounds ([12 x i8], [12 x i8]* @.str.184, i32 0, i32 0), i1 %cmp27, i32 1), !dbg !3239, !dp.md.instr.id !3242
  call void @__dp_incr_taken_branch_counter(i8* getelementptr inbounds ([12 x i8], [12 x i8]* @.str.185, i32 0, i32 0), i1 %cmp27, i32 0), !dbg !3239, !dp.md.instr.id !3243
  call void @__dp_incr_taken_branch_counter(i8* getelementptr inbounds ([12 x i8], [12 x i8]* @.str.186, i32 0, i32 0), i1 %cmp27, i32 1), !dbg !3239, !dp.md.instr.id !3244
  call void @__dp_incr_taken_branch_counter(i8* getelementptr inbounds ([12 x i8], [12 x i8]* @.str.187, i32 0, i32 0), i1 %cmp27, i32 0), !dbg !3239, !dp.md.instr.id !3245
  call void @__dp_report_bb(i32 284)
  %101 = load i32, i32* %__dp_bb167, align 4
  call void @__dp_report_bb_pair(i32 %101, i32 317)
  %102 = load i32, i32* %__dp_bb169, align 4
  call void @__dp_report_bb_pair(i32 %102, i32 321)
  %103 = load i32, i32* %__dp_bb170, align 4
  call void @__dp_report_bb_pair(i32 %103, i32 323)
  store i32 1, i32* %__dp_bb170, align 4
  br i1 %cmp27, label %if.then28, label %if.end35, !dbg !3239, !dp.md.instr.id !3246

if.then28:                                        ; preds = %for.body16
  %eweight29 = getelementptr inbounds %struct.ECLgraph, %struct.ECLgraph* %g, i32 0, i32 4, !dbg !3247, !dp.md.instr.id !3248
  %104 = ptrtoint i32** %eweight29 to i64
  call void @__dp_read(i32 695, i64 %104, i8* getelementptr inbounds ([12 x i8], [12 x i8]* @.str.144, i32 0, i32 0))
  %105 = load i32*, i32** %eweight29, align 8, !dbg !3247, !dp.md.instr.id !3249
  %106 = ptrtoint i32* %j to i64
  %107 = load i32, i32* %j, align 4, !dbg !3250, !dp.md.instr.id !3251
  %idxprom30 = sext i32 %107 to i64, !dbg !3252, !dp.md.instr.id !3253
  %arrayidx31 = getelementptr inbounds i32, i32* %105, i64 %idxprom30, !dbg !3252, !dp.md.instr.id !3254
  %108 = ptrtoint i32* %arrayidx31 to i64
  call void @__dp_read(i32 699, i64 %108, i8* getelementptr inbounds ([22 x i8], [22 x i8]* @.str.516, i32 0, i32 0))
  %109 = load i32, i32* %arrayidx31, align 4, !dbg !3252, !dp.md.instr.id !3255
  %sub = sub nsw i32 0, %109, !dbg !3256, !dp.md.instr.id !3257
  %eweight32 = getelementptr inbounds %struct.ECLgraph, %struct.ECLgraph* %g, i32 0, i32 4, !dbg !3258, !dp.md.instr.id !3259
  %110 = ptrtoint i32** %eweight32 to i64
  call void @__dp_read(i32 702, i64 %110, i8* getelementptr inbounds ([12 x i8], [12 x i8]* @.str.144, i32 0, i32 0))
  %111 = load i32*, i32** %eweight32, align 8, !dbg !3258, !dp.md.instr.id !3260
  %112 = ptrtoint i32* %j to i64
  %113 = load i32, i32* %j, align 4, !dbg !3261, !dp.md.instr.id !3262
  %idxprom33 = sext i32 %113 to i64, !dbg !3263, !dp.md.instr.id !3264
  %arrayidx34 = getelementptr inbounds i32, i32* %111, i64 %idxprom33, !dbg !3263, !dp.md.instr.id !3265
  %114 = ptrtoint i32* %arrayidx34 to i64
  call void @__dp_write(i32 706, i64 %114, i8* getelementptr inbounds ([22 x i8], [22 x i8]* @.str.516, i32 0, i32 0))
  store i32 %sub, i32* %arrayidx34, align 4, !dbg !3266, !dp.md.instr.id !3267
  call void @__dp_report_bb(i32 285)
  %115 = load i32, i32* %__dp_bb169, align 4
  call void @__dp_report_bb_pair(i32 %115, i32 322)
  br label %if.end35, !dbg !3263, !dp.md.instr.id !3268

if.end35:                                         ; preds = %if.then28, %for.body16
  br label %for.inc, !dbg !3269, !dp.md.instr.id !3270

for.inc:                                          ; preds = %if.end35
  %116 = ptrtoint i32* %j to i64
  %117 = load i32, i32* %j, align 4, !dbg !3271, !dp.md.instr.id !3272
  %inc = add nsw i32 %117, 1, !dbg !3271, !dp.md.instr.id !3273
  %118 = ptrtoint i32* %j to i64
  store i32 %inc, i32* %j, align 4, !dbg !3271, !dp.md.instr.id !3274
  call void @__dp_report_bb(i32 283)
  %119 = load i32, i32* %__dp_bb169, align 4
  call void @__dp_report_bb_pair(i32 %119, i32 320)
  store i32 1, i32* %__dp_bb169, align 4
  br label %for.cond11, !dbg !3275, !llvm.loop !3276, !dp.md.instr.id !3278

for.end:                                          ; preds = %for.cond11
  call void @__dp_loop_exit(i32 32908, i32 1), !dp.md.instr.id !3279
  br label %for.inc36, !dbg !3280, !dp.md.instr.id !3281

for.inc36:                                        ; preds = %for.end
  %120 = ptrtoint i32* %i to i64
  %121 = load i32, i32* %i, align 4, !dbg !3282, !dp.md.instr.id !3283
  %inc37 = add nsw i32 %121, 1, !dbg !3282, !dp.md.instr.id !3284
  %122 = ptrtoint i32* %i to i64
  store i32 %inc37, i32* %i, align 4, !dbg !3282, !dp.md.instr.id !3285
  call void @__dp_report_bb(i32 274)
  %123 = load i32, i32* %__dp_bb167, align 4
  call void @__dp_report_bb_pair(i32 %123, i32 313)
  store i32 1, i32* %__dp_bb167, align 4
  br label %for.cond, !dbg !3286, !llvm.loop !3287, !dp.md.instr.id !3289

for.end38:                                        ; preds = %for.cond
  call void @__dp_loop_exit(i32 32909, i32 0), !dp.md.instr.id !3290
  br label %if.end39, !dbg !3291, !dp.md.instr.id !3292

if.end39:                                         ; preds = %for.end38, %if.end
  %124 = ptrtoint i8*** %argv.addr to i64
  %125 = load i8**, i8*** %argv.addr, align 8, !dbg !3293, !dp.md.instr.id !3294
  %arrayidx40 = getelementptr inbounds i8*, i8** %125, i64 1, !dbg !3293, !dp.md.instr.id !3295
  %126 = ptrtoint i8** %arrayidx40 to i64
  call void @__dp_read(i32 723, i64 %126, i8* getelementptr inbounds ([15 x i8], [15 x i8]* @.str.515, i32 0, i32 0))
  %127 = load i8*, i8** %arrayidx40, align 8, !dbg !3293, !dp.md.instr.id !3296
  call void @__dp_call(i32 32910), !dbg !3297
  %call41 = call i32 (i8*, ...) @printf(i8* getelementptr inbounds ([11 x i8], [11 x i8]* @.str.20, i64 0, i64 0), i8* %127), !dbg !3297, !dp.md.instr.id !3298
  %nodes42 = getelementptr inbounds %struct.ECLgraph, %struct.ECLgraph* %g, i32 0, i32 0, !dbg !3299, !dp.md.instr.id !3300
  %128 = ptrtoint i32* %nodes42 to i64
  call void @__dp_read(i32 726, i64 %128, i8* getelementptr inbounds ([12 x i8], [12 x i8]* @.str.144, i32 0, i32 0))
  %129 = load i32, i32* %nodes42, align 8, !dbg !3299, !dp.md.instr.id !3301
  call void @__dp_call(i32 32911), !dbg !3302
  %call43 = call i32 (i8*, ...) @printf(i8* getelementptr inbounds ([11 x i8], [11 x i8]* @.str.21, i64 0, i64 0), i32 %129), !dbg !3302, !dp.md.instr.id !3303
  %edges44 = getelementptr inbounds %struct.ECLgraph, %struct.ECLgraph* %g, i32 0, i32 1, !dbg !3304, !dp.md.instr.id !3305
  %130 = ptrtoint i32* %edges44 to i64
  call void @__dp_read(i32 729, i64 %130, i8* getelementptr inbounds ([12 x i8], [12 x i8]* @.str.144, i32 0, i32 0))
  %131 = load i32, i32* %edges44, align 4, !dbg !3304, !dp.md.instr.id !3306
  call void @__dp_call(i32 32912), !dbg !3307
  %call45 = call i32 (i8*, ...) @printf(i8* getelementptr inbounds ([11 x i8], [11 x i8]* @.str.22, i64 0, i64 0), i32 %131), !dbg !3307, !dp.md.instr.id !3308
  call void @llvm.dbg.declare(metadata i32* %source, metadata !3309, metadata !DIExpression()), !dbg !3310, !dp.md.instr.id !3311
  %132 = ptrtoint i8*** %argv.addr to i64
  %133 = load i8**, i8*** %argv.addr, align 8, !dbg !3312, !dp.md.instr.id !3313
  %arrayidx46 = getelementptr inbounds i8*, i8** %133, i64 2, !dbg !3312, !dp.md.instr.id !3314
  %134 = ptrtoint i8** %arrayidx46 to i64
  call void @__dp_read(i32 734, i64 %134, i8* getelementptr inbounds ([15 x i8], [15 x i8]* @.str.515, i32 0, i32 0))
  %135 = load i8*, i8** %arrayidx46, align 8, !dbg !3312, !dp.md.instr.id !3315
  call void @__dp_call(i32 32913), !dbg !3316
  %call47 = call i32 @atoi(i8* %135) #17, !dbg !3316, !dp.md.instr.id !3317
  %136 = ptrtoint i32* %source to i64
  store i32 %call47, i32* %source, align 4, !dbg !3310, !dp.md.instr.id !3318
  %137 = ptrtoint i32* %source to i64
  %138 = load i32, i32* %source, align 4, !dbg !3319, !dp.md.instr.id !3321
  %cmp48 = icmp slt i32 %138, 0, !dbg !3322, !dp.md.instr.id !3323
  call void @__dp_incr_taken_branch_counter(i8* getelementptr inbounds ([12 x i8], [12 x i8]* @.str.188, i32 0, i32 0), i1 %cmp48, i32 1), !dbg !3324, !dp.md.instr.id !3325
  call void @__dp_incr_taken_branch_counter(i8* getelementptr inbounds ([12 x i8], [12 x i8]* @.str.189, i32 0, i32 0), i1 %cmp48, i32 0), !dbg !3324, !dp.md.instr.id !3326
  call void @__dp_incr_taken_branch_counter(i8* getelementptr inbounds ([12 x i8], [12 x i8]* @.str.190, i32 0, i32 0), i1 %cmp48, i32 1), !dbg !3324, !dp.md.instr.id !3327
  call void @__dp_incr_taken_branch_counter(i8* getelementptr inbounds ([12 x i8], [12 x i8]* @.str.191, i32 0, i32 0), i1 %cmp48, i32 0), !dbg !3324, !dp.md.instr.id !3328
  call void @__dp_report_bb(i32 273)
  br i1 %cmp48, label %if.then51, label %lor.lhs.false, !dbg !3324, !dp.md.instr.id !3329

lor.lhs.false:                                    ; preds = %if.end39
  %139 = ptrtoint i32* %source to i64
  %140 = load i32, i32* %source, align 4, !dbg !3330, !dp.md.instr.id !3331
  %nodes49 = getelementptr inbounds %struct.ECLgraph, %struct.ECLgraph* %g, i32 0, i32 0, !dbg !3332, !dp.md.instr.id !3333
  %141 = ptrtoint i32* %nodes49 to i64
  call void @__dp_read(i32 746, i64 %141, i8* getelementptr inbounds ([12 x i8], [12 x i8]* @.str.144, i32 0, i32 0))
  %142 = load i32, i32* %nodes49, align 8, !dbg !3332, !dp.md.instr.id !3334
  %cmp50 = icmp sge i32 %140, %142, !dbg !3335, !dp.md.instr.id !3336
  call void @__dp_incr_taken_branch_counter(i8* getelementptr inbounds ([12 x i8], [12 x i8]* @.str.192, i32 0, i32 0), i1 %cmp50, i32 1), !dbg !3337, !dp.md.instr.id !3338
  call void @__dp_incr_taken_branch_counter(i8* getelementptr inbounds ([12 x i8], [12 x i8]* @.str.193, i32 0, i32 0), i1 %cmp50, i32 0), !dbg !3337, !dp.md.instr.id !3339
  call void @__dp_incr_taken_branch_counter(i8* getelementptr inbounds ([12 x i8], [12 x i8]* @.str.194, i32 0, i32 0), i1 %cmp50, i32 0), !dbg !3337, !dp.md.instr.id !3340
  call void @__dp_report_bb(i32 287)
  br i1 %cmp50, label %if.then51, label %if.end54, !dbg !3337, !dp.md.instr.id !3341

if.then51:                                        ; preds = %lor.lhs.false, %if.end39
  %143 = ptrtoint %struct._IO_FILE** @stderr to i64
  call void @__dp_read(i32 752, i64 %143, i8* getelementptr inbounds ([7 x i8], [7 x i8]* @.str.99, i32 0, i32 0))
  %144 = load %struct._IO_FILE*, %struct._IO_FILE** @stderr, align 8, !dbg !3342, !dp.md.instr.id !3344
  %nodes52 = getelementptr inbounds %struct.ECLgraph, %struct.ECLgraph* %g, i32 0, i32 0, !dbg !3345, !dp.md.instr.id !3346
  %145 = ptrtoint i32* %nodes52 to i64
  call void @__dp_read(i32 754, i64 %145, i8* getelementptr inbounds ([12 x i8], [12 x i8]* @.str.144, i32 0, i32 0))
  %146 = load i32, i32* %nodes52, align 8, !dbg !3345, !dp.md.instr.id !3347
  call void @__dp_call(i32 32914), !dbg !3348
  %call53 = call i32 (%struct._IO_FILE*, i8*, ...) @fprintf(%struct._IO_FILE* %144, i8* getelementptr inbounds ([52 x i8], [52 x i8]* @.str.23, i64 0, i64 0), i32 %146), !dbg !3348, !dp.md.instr.id !3349
  call void @__dp_finalize(i32 32914), !dbg !3350
  call void @exit(i32 -1) #15, !dbg !3350, !dp.md.instr.id !3351
  unreachable, !dbg !3350, !dp.md.instr.id !3352

if.end54:                                         ; preds = %lor.lhs.false
  %147 = ptrtoint i32* %source to i64
  %148 = load i32, i32* %source, align 4, !dbg !3353, !dp.md.instr.id !3354
  call void @__dp_call(i32 32915), !dbg !3355
  %call55 = call i32 (i8*, ...) @printf(i8* getelementptr inbounds ([12 x i8], [12 x i8]* @.str.24, i64 0, i64 0), i32 %148), !dbg !3355, !dp.md.instr.id !3356
  call void @llvm.dbg.declare(metadata i32* %runveri, metadata !3357, metadata !DIExpression()), !dbg !3358, !dp.md.instr.id !3359
  %149 = ptrtoint i8*** %argv.addr to i64
  %150 = load i8**, i8*** %argv.addr, align 8, !dbg !3360, !dp.md.instr.id !3361
  %arrayidx56 = getelementptr inbounds i8*, i8** %150, i64 3, !dbg !3360, !dp.md.instr.id !3362
  %151 = ptrtoint i8** %arrayidx56 to i64
  call void @__dp_read(i32 763, i64 %151, i8* getelementptr inbounds ([15 x i8], [15 x i8]* @.str.515, i32 0, i32 0))
  %152 = load i8*, i8** %arrayidx56, align 8, !dbg !3360, !dp.md.instr.id !3363
  call void @__dp_call(i32 32916), !dbg !3364
  %call57 = call i32 @atoi(i8* %152) #17, !dbg !3364, !dp.md.instr.id !3365
  %153 = ptrtoint i32* %runveri to i64
  store i32 %call57, i32* %runveri, align 4, !dbg !3358, !dp.md.instr.id !3366
  %154 = ptrtoint i32* %runveri to i64
  %155 = load i32, i32* %runveri, align 4, !dbg !3367, !dp.md.instr.id !3369
  %cmp58 = icmp ne i32 %155, 0, !dbg !3370, !dp.md.instr.id !3371
  call void @__dp_incr_taken_branch_counter(i8* getelementptr inbounds ([12 x i8], [12 x i8]* @.str.195, i32 0, i32 0), i1 %cmp58, i32 1), !dbg !3372, !dp.md.instr.id !3373
  call void @__dp_incr_taken_branch_counter(i8* getelementptr inbounds ([12 x i8], [12 x i8]* @.str.196, i32 0, i32 0), i1 %cmp58, i32 0), !dbg !3372, !dp.md.instr.id !3374
  call void @__dp_incr_taken_branch_counter(i8* getelementptr inbounds ([12 x i8], [12 x i8]* @.str.197, i32 0, i32 0), i1 %cmp58, i32 0), !dbg !3372, !dp.md.instr.id !3375
  call void @__dp_incr_taken_branch_counter(i8* getelementptr inbounds ([12 x i8], [12 x i8]* @.str.198, i32 0, i32 0), i1 %cmp58, i32 1), !dbg !3372, !dp.md.instr.id !3376
  call void @__dp_incr_taken_branch_counter(i8* getelementptr inbounds ([12 x i8], [12 x i8]* @.str.199, i32 0, i32 0), i1 %cmp58, i32 0), !dbg !3372, !dp.md.instr.id !3377
  call void @__dp_incr_taken_branch_counter(i8* getelementptr inbounds ([12 x i8], [12 x i8]* @.str.200, i32 0, i32 0), i1 %cmp58, i32 0), !dbg !3372, !dp.md.instr.id !3378
  call void @__dp_report_bb(i32 286)
  br i1 %cmp58, label %land.lhs.true59, label %if.end63, !dbg !3372, !dp.md.instr.id !3379

land.lhs.true59:                                  ; preds = %if.end54
  %156 = ptrtoint i32* %runveri to i64
  %157 = load i32, i32* %runveri, align 4, !dbg !3380, !dp.md.instr.id !3381
  %cmp60 = icmp ne i32 %157, 1, !dbg !3382, !dp.md.instr.id !3383
  call void @__dp_incr_taken_branch_counter(i8* getelementptr inbounds ([12 x i8], [12 x i8]* @.str.201, i32 0, i32 0), i1 %cmp60, i32 1), !dbg !3384, !dp.md.instr.id !3385
  call void @__dp_incr_taken_branch_counter(i8* getelementptr inbounds ([12 x i8], [12 x i8]* @.str.202, i32 0, i32 0), i1 %cmp60, i32 0), !dbg !3384, !dp.md.instr.id !3386
  call void @__dp_incr_taken_branch_counter(i8* getelementptr inbounds ([12 x i8], [12 x i8]* @.str.203, i32 0, i32 0), i1 %cmp60, i32 0), !dbg !3384, !dp.md.instr.id !3387
  call void @__dp_report_bb(i32 289)
  br i1 %cmp60, label %if.then61, label %if.end63, !dbg !3384, !dp.md.instr.id !3388

if.then61:                                        ; preds = %land.lhs.true59
  call void @__dp_call(i32 32918), !dbg !3389
  %call62 = call i32 (i8*, ...) @printf(i8* getelementptr inbounds ([51 x i8], [51 x i8]* @.str.25, i64 0, i64 0)), !dbg !3389, !dp.md.instr.id !3391
  br label %if.end63, !dbg !3392, !dp.md.instr.id !3393

if.end63:                                         ; preds = %if.then61, %land.lhs.true59, %if.end54
  call void @llvm.dbg.declare(metadata i32* %threadCount, metadata !3394, metadata !DIExpression()), !dbg !3395, !dp.md.instr.id !3396
  call void @__dp_call(i32 32921), !dbg !3397
  %call64 = call i32 @_ZNSt6thread20hardware_concurrencyEv() #14, !dbg !3397, !dp.md.instr.id !3398
  %158 = ptrtoint i32* %threadCount to i64
  store i32 %call64, i32* %threadCount, align 4, !dbg !3395, !dp.md.instr.id !3399
  %159 = ptrtoint i32* %argc.addr to i64
  %160 = load i32, i32* %argc.addr, align 4, !dbg !3400, !dp.md.instr.id !3402
  %cmp65 = icmp eq i32 %160, 5, !dbg !3403, !dp.md.instr.id !3404
  call void @__dp_incr_taken_branch_counter(i8* getelementptr inbounds ([12 x i8], [12 x i8]* @.str.204, i32 0, i32 0), i1 %cmp65, i32 1), !dbg !3405, !dp.md.instr.id !3406
  call void @__dp_incr_taken_branch_counter(i8* getelementptr inbounds ([12 x i8], [12 x i8]* @.str.205, i32 0, i32 0), i1 %cmp65, i32 1), !dbg !3405, !dp.md.instr.id !3407
  call void @__dp_incr_taken_branch_counter(i8* getelementptr inbounds ([12 x i8], [12 x i8]* @.str.206, i32 0, i32 0), i1 %cmp65, i32 0), !dbg !3405, !dp.md.instr.id !3408
  call void @__dp_incr_taken_branch_counter(i8* getelementptr inbounds ([12 x i8], [12 x i8]* @.str.207, i32 0, i32 0), i1 %cmp65, i32 0), !dbg !3405, !dp.md.instr.id !3409
  call void @__dp_incr_taken_branch_counter(i8* getelementptr inbounds ([12 x i8], [12 x i8]* @.str.208, i32 0, i32 0), i1 %cmp65, i32 1), !dbg !3405, !dp.md.instr.id !3410
  call void @__dp_incr_taken_branch_counter(i8* getelementptr inbounds ([12 x i8], [12 x i8]* @.str.209, i32 0, i32 0), i1 %cmp65, i32 1), !dbg !3405, !dp.md.instr.id !3411
  call void @__dp_incr_taken_branch_counter(i8* getelementptr inbounds ([12 x i8], [12 x i8]* @.str.210, i32 0, i32 0), i1 %cmp65, i32 0), !dbg !3405, !dp.md.instr.id !3412
  call void @__dp_incr_taken_branch_counter(i8* getelementptr inbounds ([12 x i8], [12 x i8]* @.str.211, i32 0, i32 0), i1 %cmp65, i32 0), !dbg !3405, !dp.md.instr.id !3413
  call void @__dp_report_bb(i32 288)
  br i1 %cmp65, label %if.then66, label %if.end71, !dbg !3405, !dp.md.instr.id !3414

if.then66:                                        ; preds = %if.end63
  call void @llvm.dbg.declare(metadata i32* %countInt, metadata !3415, metadata !DIExpression()), !dbg !3417, !dp.md.instr.id !3418
  %161 = ptrtoint i8*** %argv.addr to i64
  %162 = load i8**, i8*** %argv.addr, align 8, !dbg !3419, !dp.md.instr.id !3420
  %arrayidx67 = getelementptr inbounds i8*, i8** %162, i64 4, !dbg !3419, !dp.md.instr.id !3421
  %163 = ptrtoint i8** %arrayidx67 to i64
  call void @__dp_read(i32 800, i64 %163, i8* getelementptr inbounds ([15 x i8], [15 x i8]* @.str.515, i32 0, i32 0))
  %164 = load i8*, i8** %arrayidx67, align 8, !dbg !3419, !dp.md.instr.id !3422
  call void @__dp_call(i32 32923), !dbg !3423
  %call68 = call i32 @atoi(i8* %164) #17, !dbg !3423, !dp.md.instr.id !3424
  %165 = ptrtoint i32* %countInt to i64
  store i32 %call68, i32* %countInt, align 4, !dbg !3417, !dp.md.instr.id !3425
  %166 = ptrtoint i32* %countInt to i64
  %167 = load i32, i32* %countInt, align 4, !dbg !3417, !dp.md.instr.id !3426
  %tobool = icmp ne i32 %167, 0, !dbg !3417, !dp.md.instr.id !3427
  call void @__dp_incr_taken_branch_counter(i8* getelementptr inbounds ([12 x i8], [12 x i8]* @.str.212, i32 0, i32 0), i1 %tobool, i32 1), !dbg !3428, !dp.md.instr.id !3429
  call void @__dp_incr_taken_branch_counter(i8* getelementptr inbounds ([12 x i8], [12 x i8]* @.str.213, i32 0, i32 0), i1 %tobool, i32 0), !dbg !3428, !dp.md.instr.id !3430
  call void @__dp_incr_taken_branch_counter(i8* getelementptr inbounds ([12 x i8], [12 x i8]* @.str.214, i32 0, i32 0), i1 %tobool, i32 1), !dbg !3428, !dp.md.instr.id !3431
  call void @__dp_incr_taken_branch_counter(i8* getelementptr inbounds ([12 x i8], [12 x i8]* @.str.215, i32 0, i32 0), i1 %tobool, i32 0), !dbg !3428, !dp.md.instr.id !3432
  call void @__dp_report_bb(i32 290)
  br i1 %tobool, label %if.then69, label %if.end70, !dbg !3428, !dp.md.instr.id !3433

if.then69:                                        ; preds = %if.then66
  %168 = ptrtoint i32* %countInt to i64
  %169 = load i32, i32* %countInt, align 4, !dbg !3434, !dp.md.instr.id !3435
  %170 = ptrtoint i32* %threadCount to i64
  store i32 %169, i32* %threadCount, align 4, !dbg !3436, !dp.md.instr.id !3437
  call void @__dp_report_bb(i32 292)
  store i32 1, i32* %__dp_bb171, align 4
  br label %if.end70, !dbg !3438, !dp.md.instr.id !3439

if.end70:                                         ; preds = %if.then69, %if.then66
  br label %if.end71, !dbg !3417, !dp.md.instr.id !3440

if.end71:                                         ; preds = %if.end70, %if.end63
  %171 = ptrtoint i32* %threadCount to i64
  %172 = load i32, i32* %threadCount, align 4, !dbg !3441, !dp.md.instr.id !3442
  call void @__dp_call(i32 32925), !dbg !3443
  %call72 = call i32 (i8*, ...) @printf(i8* getelementptr inbounds ([13 x i8], [13 x i8]* @.str.26, i64 0, i64 0), i32 %172), !dbg !3443, !dp.md.instr.id !3444
  call void @llvm.dbg.declare(metadata i32** %sp, metadata !3445, metadata !DIExpression()), !dbg !3447, !dp.md.instr.id !3448
  %edges73 = getelementptr inbounds %struct.ECLgraph, %struct.ECLgraph* %g, i32 0, i32 1, !dbg !3449, !dp.md.instr.id !3450
  %173 = ptrtoint i32* %edges73 to i64
  call void @__dp_read(i32 818, i64 %173, i8* getelementptr inbounds ([12 x i8], [12 x i8]* @.str.144, i32 0, i32 0))
  %174 = load i32, i32* %edges73, align 4, !dbg !3449, !dp.md.instr.id !3451
  %conv74 = sext i32 %174 to i64, !dbg !3452, !dp.md.instr.id !3453
  call void @__dp_call(i32 32928), !dbg !3454
  %175 = call { i64, i1 } @llvm.umul.with.overflow.i64(i64 %conv74, i64 4), !dbg !3454, !dp.md.instr.id !3455
  %176 = extractvalue { i64, i1 } %175, 1, !dbg !3454, !dp.md.instr.id !3456
  %177 = extractvalue { i64, i1 } %175, 0, !dbg !3454, !dp.md.instr.id !3457
  %178 = select i1 %176, i64 -1, i64 %177, !dbg !3454, !dp.md.instr.id !3458
  %call75 = call noalias nonnull i8* @_Znam(i64 %178) #16, !dbg !3454, !heapallocsite !26, !dp.md.instr.id !3459
  %179 = ptrtoint i8* %call75 to i64, !dp.md.instr.id !3460
  call void @__dp_new(i32 32928, i64 %179, i64 %179, i64 %178), !dbg !3454, !dp.md.instr.id !3461
  %180 = bitcast i8* %call75 to i32*, !dbg !3454, !dp.md.instr.id !3462
  %181 = ptrtoint i32** %sp to i64
  store i32* %180, i32** %sp, align 8, !dbg !3447, !dp.md.instr.id !3463
  call void @llvm.dbg.declare(metadata i32* %i76, metadata !3464, metadata !DIExpression()), !dbg !3466, !dp.md.instr.id !3467
  %182 = ptrtoint i32* %i76 to i64
  store i32 0, i32* %i76, align 4, !dbg !3466, !dp.md.instr.id !3468
  call void @__dp_report_bb(i32 291)
  %183 = load i32, i32* %__dp_bb171, align 4
  call void @__dp_report_bb_pair(i32 %183, i32 325)
  br label %for.cond77, !dbg !3469, !dp.md.instr.id !3470

for.cond77:                                       ; preds = %for.inc97, %if.end71
  call void @__dp_loop_entry(i32 32929, i32 2), !dp.md.instr.id !3471
  %184 = ptrtoint i32* %i76 to i64
  %185 = load i32, i32* %i76, align 4, !dbg !3472, !dp.md.instr.id !3474
  %nodes78 = getelementptr inbounds %struct.ECLgraph, %struct.ECLgraph* %g, i32 0, i32 0, !dbg !3475, !dp.md.instr.id !3476
  %186 = ptrtoint i32* %nodes78 to i64
  call void @__dp_read(i32 835, i64 %186, i8* getelementptr inbounds ([12 x i8], [12 x i8]* @.str.144, i32 0, i32 0))
  %187 = load i32, i32* %nodes78, align 8, !dbg !3475, !dp.md.instr.id !3477
  %cmp79 = icmp slt i32 %185, %187, !dbg !3478, !dp.md.instr.id !3479
  call void @__dp_incr_taken_branch_counter(i8* getelementptr inbounds ([12 x i8], [12 x i8]* @.str.216, i32 0, i32 0), i1 %cmp79, i32 1), !dbg !3480, !dp.md.instr.id !3481
  call void @__dp_incr_taken_branch_counter(i8* getelementptr inbounds ([12 x i8], [12 x i8]* @.str.217, i32 0, i32 0), i1 %cmp79, i32 0), !dbg !3480, !dp.md.instr.id !3482
  call void @__dp_incr_taken_branch_counter(i8* getelementptr inbounds ([12 x i8], [12 x i8]* @.str.218, i32 0, i32 0), i1 %cmp79, i32 0), !dbg !3480, !dp.md.instr.id !3483
  call void @__dp_report_bb(i32 294)
  %188 = load i32, i32* %__dp_bb172, align 4
  call void @__dp_report_bb_pair(i32 %188, i32 326)
  br i1 %cmp79, label %for.body80, label %for.end99, !dbg !3480, !dp.md.instr.id !3484

for.body80:                                       ; preds = %for.cond77
  call void @__dp_loop_incr(i32 4)
  call void @llvm.dbg.declare(metadata i32* %j81, metadata !3485, metadata !DIExpression()), !dbg !3488, !dp.md.instr.id !3489
  %nindex82 = getelementptr inbounds %struct.ECLgraph, %struct.ECLgraph* %g, i32 0, i32 2, !dbg !3490, !dp.md.instr.id !3491
  %189 = ptrtoint i32** %nindex82 to i64
  call void @__dp_read(i32 843, i64 %189, i8* getelementptr inbounds ([12 x i8], [12 x i8]* @.str.144, i32 0, i32 0))
  %190 = load i32*, i32** %nindex82, align 8, !dbg !3490, !dp.md.instr.id !3492
  %191 = ptrtoint i32* %i76 to i64
  %192 = load i32, i32* %i76, align 4, !dbg !3493, !dp.md.instr.id !3494
  %idxprom83 = sext i32 %192 to i64, !dbg !3495, !dp.md.instr.id !3496
  %arrayidx84 = getelementptr inbounds i32, i32* %190, i64 %idxprom83, !dbg !3495, !dp.md.instr.id !3497
  %193 = ptrtoint i32* %arrayidx84 to i64
  call void @__dp_read(i32 847, i64 %193, i8* getelementptr inbounds ([22 x i8], [22 x i8]* @.str.516, i32 0, i32 0))
  %194 = load i32, i32* %arrayidx84, align 4, !dbg !3495, !dp.md.instr.id !3498
  %195 = ptrtoint i32* %j81 to i64
  store i32 %194, i32* %j81, align 4, !dbg !3488, !dp.md.instr.id !3499
  call void @__dp_report_bb(i32 296)
  %196 = load i32, i32* %__dp_bb172, align 4
  call void @__dp_report_bb_pair(i32 %196, i32 328)
  %197 = load i32, i32* %__dp_bb173, align 4
  call void @__dp_report_bb_pair(i32 %197, i32 331)
  br label %for.cond85, !dbg !3500, !dp.md.instr.id !3501

for.cond85:                                       ; preds = %for.inc94, %for.body80
  call void @__dp_loop_entry(i32 32930, i32 3), !dp.md.instr.id !3502
  %198 = ptrtoint i32* %j81 to i64
  %199 = load i32, i32* %j81, align 4, !dbg !3503, !dp.md.instr.id !3505
  %nindex86 = getelementptr inbounds %struct.ECLgraph, %struct.ECLgraph* %g, i32 0, i32 2, !dbg !3506, !dp.md.instr.id !3507
  %200 = ptrtoint i32** %nindex86 to i64
  call void @__dp_read(i32 853, i64 %200, i8* getelementptr inbounds ([12 x i8], [12 x i8]* @.str.144, i32 0, i32 0))
  %201 = load i32*, i32** %nindex86, align 8, !dbg !3506, !dp.md.instr.id !3508
  %202 = ptrtoint i32* %i76 to i64
  %203 = load i32, i32* %i76, align 4, !dbg !3509, !dp.md.instr.id !3510
  %add87 = add nsw i32 %203, 1, !dbg !3511, !dp.md.instr.id !3512
  %idxprom88 = sext i32 %add87 to i64, !dbg !3513, !dp.md.instr.id !3514
  %arrayidx89 = getelementptr inbounds i32, i32* %201, i64 %idxprom88, !dbg !3513, !dp.md.instr.id !3515
  %204 = ptrtoint i32* %arrayidx89 to i64
  call void @__dp_read(i32 858, i64 %204, i8* getelementptr inbounds ([22 x i8], [22 x i8]* @.str.516, i32 0, i32 0))
  %205 = load i32, i32* %arrayidx89, align 4, !dbg !3513, !dp.md.instr.id !3516
  %cmp90 = icmp slt i32 %199, %205, !dbg !3517, !dp.md.instr.id !3518
  call void @__dp_incr_taken_branch_counter(i8* getelementptr inbounds ([12 x i8], [12 x i8]* @.str.219, i32 0, i32 0), i1 %cmp90, i32 1), !dbg !3519, !dp.md.instr.id !3520
  call void @__dp_incr_taken_branch_counter(i8* getelementptr inbounds ([12 x i8], [12 x i8]* @.str.220, i32 0, i32 0), i1 %cmp90, i32 0), !dbg !3519, !dp.md.instr.id !3521
  call void @__dp_report_bb(i32 297)
  %206 = load i32, i32* %__dp_bb172, align 4
  call void @__dp_report_bb_pair(i32 %206, i32 329)
  store i32 1, i32* %__dp_bb173, align 4
  %207 = load i32, i32* %__dp_bb174, align 4
  call void @__dp_report_bb_pair(i32 %207, i32 332)
  br i1 %cmp90, label %for.body91, label %for.end96, !dbg !3519, !dp.md.instr.id !3522

for.body91:                                       ; preds = %for.cond85
  call void @__dp_loop_incr(i32 5)
  %208 = ptrtoint i32* %i76 to i64
  %209 = load i32, i32* %i76, align 4, !dbg !3523, !dp.md.instr.id !3525
  %210 = ptrtoint i32** %sp to i64
  %211 = load i32*, i32** %sp, align 8, !dbg !3526, !dp.md.instr.id !3527
  %212 = ptrtoint i32* %j81 to i64
  %213 = load i32, i32* %j81, align 4, !dbg !3528, !dp.md.instr.id !3529
  %idxprom92 = sext i32 %213 to i64, !dbg !3526, !dp.md.instr.id !3530
  %arrayidx93 = getelementptr inbounds i32, i32* %211, i64 %idxprom92, !dbg !3526, !dp.md.instr.id !3531
  %214 = ptrtoint i32* %arrayidx93 to i64
  call void @__dp_write(i32 868, i64 %214, i8* getelementptr inbounds ([13 x i8], [13 x i8]* @.str.517, i32 0, i32 0))
  store i32 %209, i32* %arrayidx93, align 4, !dbg !3532, !dp.md.instr.id !3533
  call void @__dp_report_bb(i32 299)
  %215 = load i32, i32* %__dp_bb172, align 4
  call void @__dp_report_bb_pair(i32 %215, i32 330)
  %216 = load i32, i32* %__dp_bb174, align 4
  call void @__dp_report_bb_pair(i32 %216, i32 334)
  br label %for.inc94, !dbg !3534, !dp.md.instr.id !3535

for.inc94:                                        ; preds = %for.body91
  %217 = ptrtoint i32* %j81 to i64
  %218 = load i32, i32* %j81, align 4, !dbg !3536, !dp.md.instr.id !3537
  %inc95 = add nsw i32 %218, 1, !dbg !3536, !dp.md.instr.id !3538
  %219 = ptrtoint i32* %j81 to i64
  store i32 %inc95, i32* %j81, align 4, !dbg !3536, !dp.md.instr.id !3539
  call void @__dp_report_bb(i32 298)
  %220 = load i32, i32* %__dp_bb174, align 4
  call void @__dp_report_bb_pair(i32 %220, i32 333)
  store i32 1, i32* %__dp_bb174, align 4
  br label %for.cond85, !dbg !3540, !llvm.loop !3541, !dp.md.instr.id !3543

for.end96:                                        ; preds = %for.cond85
  call void @__dp_loop_exit(i32 32933, i32 3), !dp.md.instr.id !3544
  br label %for.inc97, !dbg !3545, !dp.md.instr.id !3546

for.inc97:                                        ; preds = %for.end96
  %221 = ptrtoint i32* %i76 to i64
  %222 = load i32, i32* %i76, align 4, !dbg !3547, !dp.md.instr.id !3548
  %inc98 = add nsw i32 %222, 1, !dbg !3547, !dp.md.instr.id !3549
  %223 = ptrtoint i32* %i76 to i64
  store i32 %inc98, i32* %i76, align 4, !dbg !3547, !dp.md.instr.id !3550
  call void @__dp_report_bb(i32 295)
  %224 = load i32, i32* %__dp_bb172, align 4
  call void @__dp_report_bb_pair(i32 %224, i32 327)
  store i32 1, i32* %__dp_bb172, align 4
  br label %for.cond77, !dbg !3551, !llvm.loop !3552, !dp.md.instr.id !3554

for.end99:                                        ; preds = %for.cond77
  call void @__dp_loop_exit(i32 32936, i32 2), !dp.md.instr.id !3555
  call void @llvm.dbg.declare(metadata i32** %distance, metadata !3556, metadata !DIExpression()), !dbg !3559, !dp.md.instr.id !3560
  %nodes100 = getelementptr inbounds %struct.ECLgraph, %struct.ECLgraph* %g, i32 0, i32 0, !dbg !3561, !dp.md.instr.id !3562
  %225 = ptrtoint i32* %nodes100 to i64
  call void @__dp_read(i32 883, i64 %225, i8* getelementptr inbounds ([12 x i8], [12 x i8]* @.str.144, i32 0, i32 0))
  %226 = load i32, i32* %nodes100, align 8, !dbg !3561, !dp.md.instr.id !3563
  %conv101 = sext i32 %226 to i64, !dbg !3564, !dp.md.instr.id !3565
  call void @__dp_call(i32 32936), !dbg !3566
  %227 = call { i64, i1 } @llvm.umul.with.overflow.i64(i64 %conv101, i64 4), !dbg !3566, !dp.md.instr.id !3567
  %228 = extractvalue { i64, i1 } %227, 1, !dbg !3566, !dp.md.instr.id !3568
  %229 = extractvalue { i64, i1 } %227, 0, !dbg !3566, !dp.md.instr.id !3569
  %230 = select i1 %228, i64 -1, i64 %229, !dbg !3566, !dp.md.instr.id !3570
  %call102 = call noalias nonnull i8* @_Znam(i64 %230) #16, !dbg !3566, !heapallocsite !1405, !dp.md.instr.id !3571
  %231 = ptrtoint i8* %call102 to i64, !dp.md.instr.id !3572
  call void @__dp_new(i32 32936, i64 %231, i64 %231, i64 %230), !dbg !3566, !dp.md.instr.id !3573
  %232 = bitcast i8* %call102 to i32*, !dbg !3566, !dp.md.instr.id !3574
  %233 = ptrtoint i32** %distance to i64
  store i32* %232, i32** %distance, align 8, !dbg !3559, !dp.md.instr.id !3575
  call void @llvm.dbg.declare(metadata i32* %runs, metadata !3576, metadata !DIExpression()), !dbg !3577, !dp.md.instr.id !3578
  %234 = ptrtoint i32* %runs to i64
  store i32 3, i32* %runs, align 4, !dbg !3577, !dp.md.instr.id !3579
  call void @llvm.dbg.declare(metadata [3 x double]* %runtimes, metadata !3580, metadata !DIExpression()), !dbg !3584, !dp.md.instr.id !3585
  call void @llvm.dbg.declare(metadata i32* %i103, metadata !3586, metadata !DIExpression()), !dbg !3588, !dp.md.instr.id !3589
  %235 = ptrtoint i32* %i103 to i64
  store i32 0, i32* %i103, align 4, !dbg !3588, !dp.md.instr.id !3590
  call void @__dp_report_bb(i32 293)
  br label %for.cond104, !dbg !3591, !dp.md.instr.id !3592

for.cond104:                                      ; preds = %for.inc110, %for.end99
  call void @__dp_loop_entry(i32 32941, i32 4), !dp.md.instr.id !3593
  %236 = ptrtoint i32* %i103 to i64
  %237 = load i32, i32* %i103, align 4, !dbg !3594, !dp.md.instr.id !3596
  %cmp105 = icmp slt i32 %237, 3, !dbg !3597, !dp.md.instr.id !3598
  call void @__dp_incr_taken_branch_counter(i8* getelementptr inbounds ([12 x i8], [12 x i8]* @.str.221, i32 0, i32 0), i1 %cmp105, i32 1), !dbg !3599, !dp.md.instr.id !3600
  call void @__dp_incr_taken_branch_counter(i8* getelementptr inbounds ([12 x i8], [12 x i8]* @.str.222, i32 0, i32 0), i1 %cmp105, i32 0), !dbg !3599, !dp.md.instr.id !3601
  call void @__dp_incr_taken_branch_counter(i8* getelementptr inbounds ([12 x i8], [12 x i8]* @.str.223, i32 0, i32 0), i1 %cmp105, i32 0), !dbg !3599, !dp.md.instr.id !3602
  call void @__dp_incr_taken_branch_counter(i8* getelementptr inbounds ([12 x i8], [12 x i8]* @.str.224, i32 0, i32 0), i1 %cmp105, i32 0), !dbg !3599, !dp.md.instr.id !3603
  call void @__dp_report_bb(i32 269)
  %238 = load i32, i32* %__dp_bb, align 4
  call void @__dp_report_bb_pair(i32 %238, i32 310)
  br i1 %cmp105, label %for.body106, label %for.end112, !dbg !3599, !dp.md.instr.id !3604

for.body106:                                      ; preds = %for.cond104
  call void @__dp_loop_incr(i32 3)
  %239 = ptrtoint i32* %source to i64
  %240 = load i32, i32* %source, align 4, !dbg !3605, !dp.md.instr.id !3607
  %241 = ptrtoint i32** %distance to i64
  %242 = load i32*, i32** %distance, align 8, !dbg !3608, !dp.md.instr.id !3609
  %243 = ptrtoint i32** %sp to i64
  %244 = load i32*, i32** %sp, align 8, !dbg !3610, !dp.md.instr.id !3611
  %245 = ptrtoint i32* %threadCount to i64
  %246 = load i32, i32* %threadCount, align 4, !dbg !3612, !dp.md.instr.id !3613
  call void @__dp_call(i32 32942), !dbg !3614
  %call107 = call double @_ZL12CPUsssp_edgeiRK8ECLgraphPiPKii(i32 %240, %struct.ECLgraph* nonnull align 8 dereferenceable(32) %g, i32* %242, i32* %244, i32 %246), !dbg !3614, !dp.md.instr.id !3615
  %247 = ptrtoint i32* %i103 to i64
  %248 = load i32, i32* %i103, align 4, !dbg !3616, !dp.md.instr.id !3617
  %idxprom108 = sext i32 %248 to i64, !dbg !3618, !dp.md.instr.id !3619
  %arrayidx109 = getelementptr inbounds [3 x double], [3 x double]* %runtimes, i64 0, i64 %idxprom108, !dbg !3618, !dp.md.instr.id !3620
  %249 = ptrtoint double* %arrayidx109 to i64
  call void @__dp_write(i32 916, i64 %249, i8* getelementptr inbounds ([19 x i8], [19 x i8]* @.str.518, i32 0, i32 0))
  store double %call107, double* %arrayidx109, align 8, !dbg !3621, !dp.md.instr.id !3622
  call void @__dp_report_bb(i32 271)
  %250 = load i32, i32* %__dp_bb, align 4
  call void @__dp_report_bb_pair(i32 %250, i32 312)
  %251 = load i32, i32* %__dp_bb171, align 4
  call void @__dp_report_bb_pair(i32 %251, i32 324)
  br label %for.inc110, !dbg !3623, !dp.md.instr.id !3624

for.inc110:                                       ; preds = %for.body106
  %252 = ptrtoint i32* %i103 to i64
  %253 = load i32, i32* %i103, align 4, !dbg !3625, !dp.md.instr.id !3626
  %inc111 = add nsw i32 %253, 1, !dbg !3625, !dp.md.instr.id !3627
  %254 = ptrtoint i32* %i103 to i64
  store i32 %inc111, i32* %i103, align 4, !dbg !3625, !dp.md.instr.id !3628
  call void @__dp_report_bb(i32 270)
  %255 = load i32, i32* %__dp_bb, align 4
  call void @__dp_report_bb_pair(i32 %255, i32 311)
  store i32 1, i32* %__dp_bb, align 4
  br label %for.cond104, !dbg !3629, !llvm.loop !3630, !dp.md.instr.id !3632

for.end112:                                       ; preds = %for.cond104
  call void @__dp_loop_exit(i32 32944, i32 4), !dp.md.instr.id !3633
  call void @llvm.dbg.declare(metadata double* %med, metadata !3634, metadata !DIExpression()), !dbg !3636, !dp.md.instr.id !3637
  %arraydecay = getelementptr inbounds [3 x double], [3 x double]* %runtimes, i64 0, i64 0, !dbg !3638, !dp.md.instr.id !3639
  call void @__dp_call(i32 32944), !dbg !3640
  %call113 = call double @_ZL6medianPdi(double* %arraydecay, i32 3), !dbg !3640, !dp.md.instr.id !3641
  %256 = ptrtoint double* %med to i64
  store double %call113, double* %med, align 8, !dbg !3636, !dp.md.instr.id !3642
  %257 = ptrtoint double* %med to i64
  %258 = load double, double* %med, align 8, !dbg !3643, !dp.md.instr.id !3644
  call void @__dp_call(i32 32945), !dbg !3645
  %call114 = call i32 (i8*, ...) @printf(i8* getelementptr inbounds ([16 x i8], [16 x i8]* @.str.27, i64 0, i64 0), double %258), !dbg !3645, !dp.md.instr.id !3646
  %edges115 = getelementptr inbounds %struct.ECLgraph, %struct.ECLgraph* %g, i32 0, i32 1, !dbg !3647, !dp.md.instr.id !3648
  %259 = ptrtoint i32* %edges115 to i64
  call void @__dp_read(i32 930, i64 %259, i8* getelementptr inbounds ([12 x i8], [12 x i8]* @.str.144, i32 0, i32 0))
  %260 = load i32, i32* %edges115, align 4, !dbg !3647, !dp.md.instr.id !3649
  %conv116 = sitofp i32 %260 to double, !dbg !3650, !dp.md.instr.id !3651
  %mul117 = fmul double 1.000000e-09, %conv116, !dbg !3652, !dp.md.instr.id !3653
  %261 = ptrtoint double* %med to i64
  %262 = load double, double* %med, align 8, !dbg !3654, !dp.md.instr.id !3655
  %div = fdiv double %mul117, %262, !dbg !3656, !dp.md.instr.id !3657
  call void @__dp_call(i32 32946), !dbg !3658
  %call118 = call i32 (i8*, ...) @printf(i8* getelementptr inbounds ([30 x i8], [30 x i8]* @.str.28, i64 0, i64 0), double %div), !dbg !3658, !dp.md.instr.id !3659
  call void @llvm.dbg.declare(metadata i32* %maxnode, metadata !3660, metadata !DIExpression()), !dbg !3661, !dp.md.instr.id !3662
  %263 = ptrtoint i32* %maxnode to i64
  store i32 0, i32* %maxnode, align 4, !dbg !3661, !dp.md.instr.id !3663
  call void @llvm.dbg.declare(metadata i32* %v, metadata !3664, metadata !DIExpression()), !dbg !3666, !dp.md.instr.id !3667
  %264 = ptrtoint i32* %v to i64
  store i32 1, i32* %v, align 4, !dbg !3666, !dp.md.instr.id !3668
  call void @__dp_report_bb(i32 268)
  br label %for.cond119, !dbg !3669, !dp.md.instr.id !3670

for.cond119:                                      ; preds = %for.inc130, %for.end112
  call void @__dp_loop_entry(i32 32950, i32 5), !dp.md.instr.id !3671
  %265 = ptrtoint i32* %v to i64
  %266 = load i32, i32* %v, align 4, !dbg !3672, !dp.md.instr.id !3674
  %nodes120 = getelementptr inbounds %struct.ECLgraph, %struct.ECLgraph* %g, i32 0, i32 0, !dbg !3675, !dp.md.instr.id !3676
  %267 = ptrtoint i32* %nodes120 to i64
  call void @__dp_read(i32 944, i64 %267, i8* getelementptr inbounds ([12 x i8], [12 x i8]* @.str.144, i32 0, i32 0))
  %268 = load i32, i32* %nodes120, align 8, !dbg !3675, !dp.md.instr.id !3677
  %cmp121 = icmp slt i32 %266, %268, !dbg !3678, !dp.md.instr.id !3679
  call void @__dp_incr_taken_branch_counter(i8* getelementptr inbounds ([12 x i8], [12 x i8]* @.str.225, i32 0, i32 0), i1 %cmp121, i32 1), !dbg !3680, !dp.md.instr.id !3681
  call void @__dp_incr_taken_branch_counter(i8* getelementptr inbounds ([12 x i8], [12 x i8]* @.str.226, i32 0, i32 0), i1 %cmp121, i32 0), !dbg !3680, !dp.md.instr.id !3682
  call void @__dp_incr_taken_branch_counter(i8* getelementptr inbounds ([12 x i8], [12 x i8]* @.str.227, i32 0, i32 0), i1 %cmp121, i32 0), !dbg !3680, !dp.md.instr.id !3683
  call void @__dp_report_bb(i32 300)
  %269 = load i32, i32* %__dp_bb175, align 4
  call void @__dp_report_bb_pair(i32 %269, i32 335)
  br i1 %cmp121, label %for.body122, label %for.end132, !dbg !3680, !dp.md.instr.id !3684

for.body122:                                      ; preds = %for.cond119
  call void @__dp_loop_incr(i32 2)
  %270 = ptrtoint i32** %distance to i64
  %271 = load i32*, i32** %distance, align 8, !dbg !3685, !dp.md.instr.id !3688
  %272 = ptrtoint i32* %maxnode to i64
  %273 = load i32, i32* %maxnode, align 4, !dbg !3689, !dp.md.instr.id !3690
  %idxprom123 = sext i32 %273 to i64, !dbg !3685, !dp.md.instr.id !3691
  %arrayidx124 = getelementptr inbounds i32, i32* %271, i64 %idxprom123, !dbg !3685, !dp.md.instr.id !3692
  %274 = ptrtoint i32* %arrayidx124 to i64
  call void @__dp_read(i32 954, i64 %274, i8* getelementptr inbounds ([19 x i8], [19 x i8]* @.str.519, i32 0, i32 0))
  %275 = load i32, i32* %arrayidx124, align 4, !dbg !3685, !dp.md.instr.id !3693
  %276 = ptrtoint i32** %distance to i64
  %277 = load i32*, i32** %distance, align 8, !dbg !3694, !dp.md.instr.id !3695
  %278 = ptrtoint i32* %v to i64
  %279 = load i32, i32* %v, align 4, !dbg !3696, !dp.md.instr.id !3697
  %idxprom125 = sext i32 %279 to i64, !dbg !3694, !dp.md.instr.id !3698
  %arrayidx126 = getelementptr inbounds i32, i32* %277, i64 %idxprom125, !dbg !3694, !dp.md.instr.id !3699
  %280 = ptrtoint i32* %arrayidx126 to i64
  call void @__dp_read(i32 959, i64 %280, i8* getelementptr inbounds ([19 x i8], [19 x i8]* @.str.519, i32 0, i32 0))
  %281 = load i32, i32* %arrayidx126, align 4, !dbg !3694, !dp.md.instr.id !3700
  %cmp127 = icmp slt i32 %275, %281, !dbg !3701, !dp.md.instr.id !3702
  call void @__dp_incr_taken_branch_counter(i8* getelementptr inbounds ([12 x i8], [12 x i8]* @.str.228, i32 0, i32 0), i1 %cmp127, i32 1), !dbg !3703, !dp.md.instr.id !3704
  call void @__dp_incr_taken_branch_counter(i8* getelementptr inbounds ([12 x i8], [12 x i8]* @.str.229, i32 0, i32 0), i1 %cmp127, i32 0), !dbg !3703, !dp.md.instr.id !3705
  call void @__dp_report_bb(i32 302)
  %282 = load i32, i32* %__dp_bb175, align 4
  call void @__dp_report_bb_pair(i32 %282, i32 337)
  %283 = load i32, i32* %__dp_bb176, align 4
  call void @__dp_report_bb_pair(i32 %283, i32 340)
  br i1 %cmp127, label %if.then128, label %if.end129, !dbg !3703, !dp.md.instr.id !3706

if.then128:                                       ; preds = %for.body122
  %284 = ptrtoint i32* %v to i64
  %285 = load i32, i32* %v, align 4, !dbg !3707, !dp.md.instr.id !3708
  %286 = ptrtoint i32* %maxnode to i64
  store i32 %285, i32* %maxnode, align 4, !dbg !3709, !dp.md.instr.id !3710
  call void @__dp_report_bb(i32 303)
  %287 = load i32, i32* %__dp_bb175, align 4
  call void @__dp_report_bb_pair(i32 %287, i32 338)
  store i32 1, i32* %__dp_bb176, align 4
  br label %if.end129, !dbg !3711, !dp.md.instr.id !3712

if.end129:                                        ; preds = %if.then128, %for.body122
  br label %for.inc130, !dbg !3713, !dp.md.instr.id !3714

for.inc130:                                       ; preds = %if.end129
  %288 = ptrtoint i32* %v to i64
  %289 = load i32, i32* %v, align 4, !dbg !3715, !dp.md.instr.id !3716
  %inc131 = add nsw i32 %289, 1, !dbg !3715, !dp.md.instr.id !3717
  %290 = ptrtoint i32* %v to i64
  store i32 %inc131, i32* %v, align 4, !dbg !3715, !dp.md.instr.id !3718
  call void @__dp_report_bb(i32 301)
  %291 = load i32, i32* %__dp_bb175, align 4
  call void @__dp_report_bb_pair(i32 %291, i32 336)
  store i32 1, i32* %__dp_bb175, align 4
  br label %for.cond119, !dbg !3719, !llvm.loop !3720, !dp.md.instr.id !3722

for.end132:                                       ; preds = %for.cond119
  call void @__dp_loop_exit(i32 32953, i32 5), !dp.md.instr.id !3723
  %292 = ptrtoint i32* %maxnode to i64
  %293 = load i32, i32* %maxnode, align 4, !dbg !3724, !dp.md.instr.id !3725
  %294 = ptrtoint i32** %distance to i64
  %295 = load i32*, i32** %distance, align 8, !dbg !3726, !dp.md.instr.id !3727
  %296 = ptrtoint i32* %maxnode to i64
  %297 = load i32, i32* %maxnode, align 4, !dbg !3728, !dp.md.instr.id !3729
  %idxprom133 = sext i32 %297 to i64, !dbg !3726, !dp.md.instr.id !3730
  %arrayidx134 = getelementptr inbounds i32, i32* %295, i64 %idxprom133, !dbg !3726, !dp.md.instr.id !3731
  %298 = ptrtoint i32* %arrayidx134 to i64
  call void @__dp_read(i32 978, i64 %298, i8* getelementptr inbounds ([19 x i8], [19 x i8]* @.str.519, i32 0, i32 0))
  %299 = load i32, i32* %arrayidx134, align 4, !dbg !3726, !dp.md.instr.id !3732
  call void @__dp_call(i32 32953), !dbg !3733
  %call135 = call i32 (i8*, ...) @printf(i8* getelementptr inbounds ([35 x i8], [35 x i8]* @.str.29, i64 0, i64 0), i32 %293, i32 %299), !dbg !3733, !dp.md.instr.id !3734
  %300 = ptrtoint i32* %runveri to i64
  %301 = load i32, i32* %runveri, align 4, !dbg !3735, !dp.md.instr.id !3737
  %tobool136 = icmp ne i32 %301, 0, !dbg !3735, !dp.md.instr.id !3738
  call void @__dp_incr_taken_branch_counter(i8* getelementptr inbounds ([12 x i8], [12 x i8]* @.str.230, i32 0, i32 0), i1 %tobool136, i32 1), !dbg !3739, !dp.md.instr.id !3740
  call void @__dp_incr_taken_branch_counter(i8* getelementptr inbounds ([12 x i8], [12 x i8]* @.str.231, i32 0, i32 0), i1 %tobool136, i32 1), !dbg !3739, !dp.md.instr.id !3741
  call void @__dp_incr_taken_branch_counter(i8* getelementptr inbounds ([12 x i8], [12 x i8]* @.str.232, i32 0, i32 0), i1 %tobool136, i32 1), !dbg !3739, !dp.md.instr.id !3742
  call void @__dp_incr_taken_branch_counter(i8* getelementptr inbounds ([12 x i8], [12 x i8]* @.str.233, i32 0, i32 0), i1 %tobool136, i32 0), !dbg !3739, !dp.md.instr.id !3743
  call void @__dp_incr_taken_branch_counter(i8* getelementptr inbounds ([12 x i8], [12 x i8]* @.str.234, i32 0, i32 0), i1 %tobool136, i32 1), !dbg !3739, !dp.md.instr.id !3744
  call void @__dp_incr_taken_branch_counter(i8* getelementptr inbounds ([12 x i8], [12 x i8]* @.str.235, i32 0, i32 0), i1 %tobool136, i32 1), !dbg !3739, !dp.md.instr.id !3745
  call void @__dp_incr_taken_branch_counter(i8* getelementptr inbounds ([12 x i8], [12 x i8]* @.str.236, i32 0, i32 0), i1 %tobool136, i32 1), !dbg !3739, !dp.md.instr.id !3746
  call void @__dp_incr_taken_branch_counter(i8* getelementptr inbounds ([12 x i8], [12 x i8]* @.str.237, i32 0, i32 0), i1 %tobool136, i32 0), !dbg !3739, !dp.md.instr.id !3747
  call void @__dp_report_bb(i32 267)
  %302 = load i32, i32* %__dp_bb176, align 4
  call void @__dp_report_bb_pair(i32 %302, i32 339)
  br i1 %tobool136, label %if.then137, label %if.else, !dbg !3739, !dp.md.instr.id !3748

if.then137:                                       ; preds = %for.end132
  call void @llvm.dbg.declare(metadata i32** %verify, metadata !3749, metadata !DIExpression()), !dbg !3751, !dp.md.instr.id !3752
  %nodes138 = getelementptr inbounds %struct.ECLgraph, %struct.ECLgraph* %g, i32 0, i32 0, !dbg !3753, !dp.md.instr.id !3754
  %303 = ptrtoint i32* %nodes138 to i64
  call void @__dp_read(i32 993, i64 %303, i8* getelementptr inbounds ([12 x i8], [12 x i8]* @.str.144, i32 0, i32 0))
  %304 = load i32, i32* %nodes138, align 8, !dbg !3753, !dp.md.instr.id !3755
  %conv139 = sext i32 %304 to i64, !dbg !3756, !dp.md.instr.id !3757
  call void @__dp_call(i32 32957), !dbg !3758
  %305 = call { i64, i1 } @llvm.umul.with.overflow.i64(i64 %conv139, i64 4), !dbg !3758, !dp.md.instr.id !3759
  %306 = extractvalue { i64, i1 } %305, 1, !dbg !3758, !dp.md.instr.id !3760
  %307 = extractvalue { i64, i1 } %305, 0, !dbg !3758, !dp.md.instr.id !3761
  %308 = select i1 %306, i64 -1, i64 %307, !dbg !3758, !dp.md.instr.id !3762
  %call140 = call noalias nonnull i8* @_Znam(i64 %308) #16, !dbg !3758, !heapallocsite !1405, !dp.md.instr.id !3763
  %309 = ptrtoint i8* %call140 to i64, !dp.md.instr.id !3764
  call void @__dp_new(i32 32957, i64 %309, i64 %309, i64 %308), !dbg !3758, !dp.md.instr.id !3765
  %310 = bitcast i8* %call140 to i32*, !dbg !3758, !dp.md.instr.id !3766
  %311 = ptrtoint i32** %verify to i64
  store i32* %310, i32** %verify, align 8, !dbg !3751, !dp.md.instr.id !3767
  %312 = ptrtoint i32* %source to i64
  %313 = load i32, i32* %source, align 4, !dbg !3768, !dp.md.instr.id !3769
  %314 = ptrtoint i32** %verify to i64
  %315 = load i32*, i32** %verify, align 8, !dbg !3770, !dp.md.instr.id !3771
  call void @__dp_call(i32 32958), !dbg !3772
  call void @_ZL17CPUserialDijkstraiRK8ECLgraphPi(i32 %313, %struct.ECLgraph* nonnull align 8 dereferenceable(32) %g, i32* %315), !dbg !3772, !dp.md.instr.id !3773
  call void @llvm.dbg.declare(metadata i32* %v141, metadata !3774, metadata !DIExpression()), !dbg !3776, !dp.md.instr.id !3777
  %316 = ptrtoint i32* %v141 to i64
  store i32 0, i32* %v141, align 4, !dbg !3776, !dp.md.instr.id !3778
  call void @__dp_report_bb(i32 304)
  br label %for.cond142, !dbg !3779, !dp.md.instr.id !3780

for.cond142:                                      ; preds = %for.inc158, %if.then137
  call void @__dp_loop_entry(i32 32959, i32 6), !dp.md.instr.id !3781
  %317 = ptrtoint i32* %v141 to i64
  %318 = load i32, i32* %v141, align 4, !dbg !3782, !dp.md.instr.id !3784
  %nodes143 = getelementptr inbounds %struct.ECLgraph, %struct.ECLgraph* %g, i32 0, i32 0, !dbg !3785, !dp.md.instr.id !3786
  %319 = ptrtoint i32* %nodes143 to i64
  call void @__dp_read(i32 1013, i64 %319, i8* getelementptr inbounds ([12 x i8], [12 x i8]* @.str.144, i32 0, i32 0))
  %320 = load i32, i32* %nodes143, align 8, !dbg !3785, !dp.md.instr.id !3787
  %cmp144 = icmp slt i32 %318, %320, !dbg !3788, !dp.md.instr.id !3789
  call void @__dp_incr_taken_branch_counter(i8* getelementptr inbounds ([12 x i8], [12 x i8]* @.str.238, i32 0, i32 0), i1 %cmp144, i32 1), !dbg !3790, !dp.md.instr.id !3791
  call void @__dp_incr_taken_branch_counter(i8* getelementptr inbounds ([12 x i8], [12 x i8]* @.str.239, i32 0, i32 0), i1 %cmp144, i32 0), !dbg !3790, !dp.md.instr.id !3792
  call void @__dp_report_bb(i32 307)
  %321 = load i32, i32* %__dp_bb177, align 4
  call void @__dp_report_bb_pair(i32 %321, i32 342)
  br i1 %cmp144, label %for.body145, label %for.end160, !dbg !3790, !dp.md.instr.id !3793

for.body145:                                      ; preds = %for.cond142
  call void @__dp_loop_incr(i32 1)
  %322 = ptrtoint i32** %distance to i64
  %323 = load i32*, i32** %distance, align 8, !dbg !3794, !dp.md.instr.id !3797
  %324 = ptrtoint i32* %v141 to i64
  %325 = load i32, i32* %v141, align 4, !dbg !3798, !dp.md.instr.id !3799
  %idxprom146 = sext i32 %325 to i64, !dbg !3794, !dp.md.instr.id !3800
  %arrayidx147 = getelementptr inbounds i32, i32* %323, i64 %idxprom146, !dbg !3794, !dp.md.instr.id !3801
  %326 = ptrtoint i32* %arrayidx147 to i64
  call void @__dp_read(i32 1022, i64 %326, i8* getelementptr inbounds ([19 x i8], [19 x i8]* @.str.519, i32 0, i32 0))
  %327 = load i32, i32* %arrayidx147, align 4, !dbg !3794, !dp.md.instr.id !3802
  %328 = ptrtoint i32** %verify to i64
  %329 = load i32*, i32** %verify, align 8, !dbg !3803, !dp.md.instr.id !3804
  %330 = ptrtoint i32* %v141 to i64
  %331 = load i32, i32* %v141, align 4, !dbg !3805, !dp.md.instr.id !3806
  %idxprom148 = sext i32 %331 to i64, !dbg !3803, !dp.md.instr.id !3807
  %arrayidx149 = getelementptr inbounds i32, i32* %329, i64 %idxprom148, !dbg !3803, !dp.md.instr.id !3808
  %332 = ptrtoint i32* %arrayidx149 to i64
  call void @__dp_read(i32 1027, i64 %332, i8* getelementptr inbounds ([17 x i8], [17 x i8]* @.str.520, i32 0, i32 0))
  %333 = load i32, i32* %arrayidx149, align 4, !dbg !3803, !dp.md.instr.id !3809
  %cmp150 = icmp ne i32 %327, %333, !dbg !3810, !dp.md.instr.id !3811
  call void @__dp_incr_taken_branch_counter(i8* getelementptr inbounds ([12 x i8], [12 x i8]* @.str.240, i32 0, i32 0), i1 %cmp150, i32 1), !dbg !3812, !dp.md.instr.id !3813
  call void @__dp_incr_taken_branch_counter(i8* getelementptr inbounds ([12 x i8], [12 x i8]* @.str.241, i32 0, i32 0), i1 %cmp150, i32 0), !dbg !3812, !dp.md.instr.id !3814
  call void @__dp_report_bb(i32 309)
  %334 = load i32, i32* %__dp_bb177, align 4
  call void @__dp_report_bb_pair(i32 %334, i32 344)
  br i1 %cmp150, label %if.then151, label %if.end157, !dbg !3812, !dp.md.instr.id !3815

if.then151:                                       ; preds = %for.body145
  %335 = ptrtoint %struct._IO_FILE** @stderr to i64
  call void @__dp_read(i32 1032, i64 %335, i8* getelementptr inbounds ([7 x i8], [7 x i8]* @.str.99, i32 0, i32 0))
  %336 = load %struct._IO_FILE*, %struct._IO_FILE** @stderr, align 8, !dbg !3816, !dp.md.instr.id !3818
  %337 = ptrtoint i32* %v141 to i64
  %338 = load i32, i32* %v141, align 4, !dbg !3819, !dp.md.instr.id !3820
  %339 = ptrtoint i32** %distance to i64
  %340 = load i32*, i32** %distance, align 8, !dbg !3821, !dp.md.instr.id !3822
  %341 = ptrtoint i32* %v141 to i64
  %342 = load i32, i32* %v141, align 4, !dbg !3823, !dp.md.instr.id !3824
  %idxprom152 = sext i32 %342 to i64, !dbg !3821, !dp.md.instr.id !3825
  %arrayidx153 = getelementptr inbounds i32, i32* %340, i64 %idxprom152, !dbg !3821, !dp.md.instr.id !3826
  %343 = ptrtoint i32* %arrayidx153 to i64
  call void @__dp_read(i32 1038, i64 %343, i8* getelementptr inbounds ([19 x i8], [19 x i8]* @.str.519, i32 0, i32 0))
  %344 = load i32, i32* %arrayidx153, align 4, !dbg !3821, !dp.md.instr.id !3827
  %345 = ptrtoint i32** %verify to i64
  %346 = load i32*, i32** %verify, align 8, !dbg !3828, !dp.md.instr.id !3829
  %347 = ptrtoint i32* %v141 to i64
  %348 = load i32, i32* %v141, align 4, !dbg !3830, !dp.md.instr.id !3831
  %idxprom154 = sext i32 %348 to i64, !dbg !3828, !dp.md.instr.id !3832
  %arrayidx155 = getelementptr inbounds i32, i32* %346, i64 %idxprom154, !dbg !3828, !dp.md.instr.id !3833
  %349 = ptrtoint i32* %arrayidx155 to i64
  call void @__dp_read(i32 1043, i64 %349, i8* getelementptr inbounds ([17 x i8], [17 x i8]* @.str.520, i32 0, i32 0))
  %350 = load i32, i32* %arrayidx155, align 4, !dbg !3828, !dp.md.instr.id !3834
  call void @__dp_call(i32 32960), !dbg !3835
  %call156 = call i32 (%struct._IO_FILE*, i8*, ...) @fprintf(%struct._IO_FILE* %336, i8* getelementptr inbounds ([60 x i8], [60 x i8]* @.str.30, i64 0, i64 0), i32 %338, i32 %344, i32 %350), !dbg !3835, !dp.md.instr.id !3836
  call void @__dp_finalize(i32 32960), !dbg !3837
  call void @exit(i32 -1) #15, !dbg !3837, !dp.md.instr.id !3838
  call void @__dp_report_bb(i32 306)
  %351 = load i32, i32* %__dp_bb177, align 4
  call void @__dp_report_bb_pair(i32 %351, i32 341)
  unreachable, !dbg !3837, !dp.md.instr.id !3839

if.end157:                                        ; preds = %for.body145
  br label %for.inc158, !dbg !3840, !dp.md.instr.id !3841

for.inc158:                                       ; preds = %if.end157
  %352 = ptrtoint i32* %v141 to i64
  %353 = load i32, i32* %v141, align 4, !dbg !3842, !dp.md.instr.id !3843
  %inc159 = add nsw i32 %353, 1, !dbg !3842, !dp.md.instr.id !3844
  %354 = ptrtoint i32* %v141 to i64
  store i32 %inc159, i32* %v141, align 4, !dbg !3842, !dp.md.instr.id !3845
  call void @__dp_report_bb(i32 308)
  %355 = load i32, i32* %__dp_bb177, align 4
  call void @__dp_report_bb_pair(i32 %355, i32 343)
  store i32 1, i32* %__dp_bb177, align 4
  br label %for.cond142, !dbg !3846, !llvm.loop !3847, !dp.md.instr.id !3849

for.end160:                                       ; preds = %for.cond142
  call void @__dp_loop_exit(i32 32962, i32 6), !dp.md.instr.id !3850
  call void @__dp_call(i32 32962), !dbg !3851
  %call161 = call i32 (i8*, ...) @printf(i8* getelementptr inbounds ([22 x i8], [22 x i8]* @.str.31, i64 0, i64 0)), !dbg !3851, !dp.md.instr.id !3852
  %356 = ptrtoint i32** %verify to i64
  %357 = load i32*, i32** %verify, align 8, !dbg !3853, !dp.md.instr.id !3854
  %isnull = icmp eq i32* %357, null, !dbg !3855, !dp.md.instr.id !3856
  call void @__dp_incr_taken_branch_counter(i8* getelementptr inbounds ([12 x i8], [12 x i8]* @.str.242, i32 0, i32 0), i1 %isnull, i32 1), !dbg !3855, !dp.md.instr.id !3857
  call void @__dp_incr_taken_branch_counter(i8* getelementptr inbounds ([12 x i8], [12 x i8]* @.str.243, i32 0, i32 0), i1 %isnull, i32 0), !dbg !3855, !dp.md.instr.id !3858
  call void @__dp_report_bb(i32 277)
  br i1 %isnull, label %delete.end, label %delete.notnull, !dbg !3855, !dp.md.instr.id !3859

delete.notnull:                                   ; preds = %for.end160
  %358 = bitcast i32* %357 to i8*, !dbg !3855, !dp.md.instr.id !3860
  call void @__dp_call(i32 32963), !dbg !3855
  call void @_ZdaPv(i8* %358) #18, !dbg !3855, !dp.md.instr.id !3861
  br label %delete.end, !dbg !3855, !dp.md.instr.id !3862

delete.end:                                       ; preds = %delete.notnull, %for.end160
  br label %if.end163, !dbg !3863, !dp.md.instr.id !3864

if.else:                                          ; preds = %for.end132
  call void @__dp_call(i32 32965), !dbg !3865
  %call162 = call i32 (i8*, ...) @printf(i8* getelementptr inbounds ([24 x i8], [24 x i8]* @.str.32, i64 0, i64 0)), !dbg !3865, !dp.md.instr.id !3867
  br label %if.end163, !dp.md.instr.id !3868

if.end163:                                        ; preds = %if.else, %delete.end
  %359 = ptrtoint i32** %distance to i64
  %360 = load i32*, i32** %distance, align 8, !dbg !3869, !dp.md.instr.id !3870
  %isnull164 = icmp eq i32* %360, null, !dbg !3871, !dp.md.instr.id !3872
  call void @__dp_incr_taken_branch_counter(i8* getelementptr inbounds ([12 x i8], [12 x i8]* @.str.244, i32 0, i32 0), i1 %isnull164, i32 1), !dbg !3871, !dp.md.instr.id !3873
  call void @__dp_incr_taken_branch_counter(i8* getelementptr inbounds ([12 x i8], [12 x i8]* @.str.245, i32 0, i32 0), i1 %isnull164, i32 0), !dbg !3871, !dp.md.instr.id !3874
  call void @__dp_report_bb(i32 305)
  br i1 %isnull164, label %delete.end166, label %delete.notnull165, !dbg !3871, !dp.md.instr.id !3875

delete.notnull165:                                ; preds = %if.end163
  %361 = bitcast i32* %360 to i8*, !dbg !3871, !dp.md.instr.id !3876
  call void @__dp_call(i32 32968), !dbg !3871
  call void @_ZdaPv(i8* %361) #18, !dbg !3871, !dp.md.instr.id !3877
  br label %delete.end166, !dbg !3871, !dp.md.instr.id !3878

delete.end166:                                    ; preds = %delete.notnull165, %if.end163
  call void @__dp_call(i32 32969), !dbg !3879
  call void @_Z12freeECLgraphR8ECLgraph(%struct.ECLgraph* nonnull align 8 dereferenceable(32) %g), !dbg !3879, !dp.md.instr.id !3880
  call void @__dp_finalize(i32 32970), !dbg !3881
  call void @__dp_loop_output(), !dbg !3881
  call void @__dp_taken_branch_counter_output(), !dbg !3881
  ret i32 0, !dbg !3881, !dp.md.instr.id !3882
}

; Function Attrs: nounwind readnone speculatable willreturn
declare { i64, i1 } @llvm.umul.with.overflow.i64(i64, i64) #1

; Function Attrs: nobuiltin allocsize(0)
declare nonnull i8* @_Znam(i64) #7

; Function Attrs: nounwind readonly
declare i32 @atoi(i8*) #8

; Function Attrs: nounwind
declare i32 @_ZNSt6thread20hardware_concurrencyEv() #4

; Function Attrs: noinline optnone uwtable
define internal double @_ZL12CPUsssp_edgeiRK8ECLgraphPiPKii(i32 %src, %struct.ECLgraph* nonnull align 8 dereferenceable(32) %g, i32* %dist, i32* %sp, i32 %threadCount) #0 personality i8* bitcast (i32 (...)* @__gxx_personality_v0 to i8*) !dbg !3883 {
entry:
  call void @__dp_func_entry(i32 49222, i32 0), !dp.md.instr.id !3888
  %__dp_bb37 = alloca i32, align 4
  store i32 0, i32* %__dp_bb37, align 4
  %__dp_bb36 = alloca i32, align 4
  store i32 0, i32* %__dp_bb36, align 4
  %__dp_bb35 = alloca i32, align 4
  store i32 0, i32* %__dp_bb35, align 4
  %__dp_bb34 = alloca i32, align 4
  store i32 0, i32* %__dp_bb34, align 4
  %__dp_bb = alloca i32, align 4
  store i32 0, i32* %__dp_bb, align 4
  %retval = alloca double, align 8, !dp.md.instr.id !3889
  %0 = ptrtoint double* %retval to i64, !dp.md.instr.id !3890
  %src.addr = alloca i32, align 4, !dp.md.instr.id !3891
  %1 = ptrtoint i32* %src.addr to i64, !dp.md.instr.id !3892
  %g.addr = alloca %struct.ECLgraph*, align 8, !dp.md.instr.id !3893
  %2 = ptrtoint %struct.ECLgraph** %g.addr to i64, !dp.md.instr.id !3894
  %dist.addr = alloca i32*, align 8, !dp.md.instr.id !3895
  %3 = ptrtoint i32** %dist.addr to i64, !dp.md.instr.id !3896
  %sp.addr = alloca i32*, align 8, !dp.md.instr.id !3897
  %4 = ptrtoint i32** %sp.addr to i64, !dp.md.instr.id !3898
  %threadCount.addr = alloca i32, align 4, !dp.md.instr.id !3899
  %5 = ptrtoint i32* %threadCount.addr to i64, !dp.md.instr.id !3900
  %saved_stack = alloca i8*, align 8, !dp.md.instr.id !3901
  %6 = ptrtoint i8** %saved_stack to i64, !dp.md.instr.id !3902
  %__vla_expr0 = alloca i64, align 8, !dp.md.instr.id !3903
  %7 = ptrtoint i64* %__vla_expr0 to i64, !dp.md.instr.id !3904
  %exn.slot = alloca i8*, align 8, !dp.md.instr.id !3905
  %8 = ptrtoint i8** %exn.slot to i64, !dp.md.instr.id !3906
  %ehselector.slot = alloca i32, align 4, !dp.md.instr.id !3907
  %9 = ptrtoint i32* %ehselector.slot to i64, !dp.md.instr.id !3908
  %start = alloca %struct.timeval, align 8, !dp.md.instr.id !3909
  %10 = ptrtoint %struct.timeval* %start to i64, !dp.md.instr.id !3910
  call void @__dp_alloca(i32 49222, i8* getelementptr inbounds ([6 x i8], [6 x i8]* @.str.553, i32 0, i32 0), i64 %10, i64 %10, i64 0, i64 1), !dp.md.instr.id !3911
  %end = alloca %struct.timeval, align 8, !dp.md.instr.id !3912
  %11 = ptrtoint %struct.timeval* %end to i64, !dp.md.instr.id !3913
  call void @__dp_alloca(i32 49222, i8* getelementptr inbounds ([4 x i8], [4 x i8]* @.str.554, i32 0, i32 0), i64 %11, i64 %11, i64 0, i64 1), !dp.md.instr.id !3914
  %goagain = alloca i32, align 4, !dp.md.instr.id !3915
  %12 = ptrtoint i32* %goagain to i64, !dp.md.instr.id !3916
  call void @__dp_alloca(i32 49222, i8* getelementptr inbounds ([8 x i8], [8 x i8]* @.str.555, i32 0, i32 0), i64 %12, i64 %12, i64 4, i64 1), !dp.md.instr.id !3917
  %iter = alloca i32, align 4, !dp.md.instr.id !3918
  %13 = ptrtoint i32* %iter to i64, !dp.md.instr.id !3919
  %i = alloca i32, align 4, !dp.md.instr.id !3920
  %14 = ptrtoint i32* %i to i64, !dp.md.instr.id !3921
  %ref.tmp = alloca %"class.std::thread", align 8, !dp.md.instr.id !3922
  %15 = ptrtoint %"class.std::thread"* %ref.tmp to i64, !dp.md.instr.id !3923
  call void @__dp_alloca(i32 49222, i8* getelementptr inbounds ([8 x i8], [8 x i8]* @.str.557, i32 0, i32 0), i64 %15, i64 %15, i64 0, i64 1), !dp.md.instr.id !3924
  %ref.tmp1 = alloca %"class.std::reference_wrapper", align 8, !dp.md.instr.id !3925
  %16 = ptrtoint %"class.std::reference_wrapper"* %ref.tmp1 to i64, !dp.md.instr.id !3926
  call void @__dp_alloca(i32 49222, i8* getelementptr inbounds ([9 x i8], [9 x i8]* @.str.558, i32 0, i32 0), i64 %16, i64 %16, i64 0, i64 1), !dp.md.instr.id !3927
  %i6 = alloca i32, align 4, !dp.md.instr.id !3928
  %17 = ptrtoint i32* %i6 to i64, !dp.md.instr.id !3929
  %runtime = alloca double, align 8, !dp.md.instr.id !3930
  %18 = ptrtoint double* %runtime to i64, !dp.md.instr.id !3931
  %19 = ptrtoint i32* %src.addr to i64
  store i32 %src, i32* %src.addr, align 4, !dp.md.instr.id !3932
  call void @llvm.dbg.declare(metadata i32* %src.addr, metadata !3933, metadata !DIExpression()), !dbg !3934, !dp.md.instr.id !3935
  %20 = ptrtoint %struct.ECLgraph** %g.addr to i64
  store %struct.ECLgraph* %g, %struct.ECLgraph** %g.addr, align 8, !dp.md.instr.id !3936
  call void @llvm.dbg.declare(metadata %struct.ECLgraph** %g.addr, metadata !3937, metadata !DIExpression()), !dbg !3938, !dp.md.instr.id !3939
  %21 = ptrtoint i32** %dist.addr to i64
  store i32* %dist, i32** %dist.addr, align 8, !dp.md.instr.id !3940
  call void @llvm.dbg.declare(metadata i32** %dist.addr, metadata !3941, metadata !DIExpression()), !dbg !3942, !dp.md.instr.id !3943
  %22 = ptrtoint i32** %sp.addr to i64
  store i32* %sp, i32** %sp.addr, align 8, !dp.md.instr.id !3944
  call void @llvm.dbg.declare(metadata i32** %sp.addr, metadata !3945, metadata !DIExpression()), !dbg !3946, !dp.md.instr.id !3947
  %23 = ptrtoint i32* %threadCount.addr to i64
  store i32 %threadCount, i32* %threadCount.addr, align 4, !dp.md.instr.id !3948
  call void @llvm.dbg.declare(metadata i32* %threadCount.addr, metadata !3949, metadata !DIExpression()), !dbg !3950, !dp.md.instr.id !3951
  %24 = ptrtoint i32* %threadCount.addr to i64
  %25 = load i32, i32* %threadCount.addr, align 4, !dbg !3952, !dp.md.instr.id !3953
  %26 = zext i32 %25 to i64, !dbg !3954, !dp.md.instr.id !3955
  call void @__dp_call(i32 49224), !dbg !3954
  %27 = call i8* @llvm.stacksave(), !dbg !3954, !dp.md.instr.id !3956
  %28 = ptrtoint i8** %saved_stack to i64
  store i8* %27, i8** %saved_stack, align 8, !dbg !3954, !dp.md.instr.id !3957
  %vla = alloca %"class.std::thread", i64 %26, align 16, !dbg !3954, !dp.md.instr.id !3958
  %29 = ptrtoint %"class.std::thread"* %vla to i64, !dbg !3954, !dp.md.instr.id !3959
  %30 = add i64 %29, %26, !dbg !3954, !dp.md.instr.id !3960
  %31 = mul i64 %26, 0, !dbg !3954, !dp.md.instr.id !3961
  call void @__dp_alloca(i32 49224, i8* getelementptr inbounds ([14 x i8], [14 x i8]* @.str.560, i32 0, i32 0), i64 %29, i64 %30, i64 %31, i64 %26), !dbg !3954, !dp.md.instr.id !3962
  %32 = ptrtoint i64* %__vla_expr0 to i64
  store i64 %26, i64* %__vla_expr0, align 8, !dbg !3954, !dp.md.instr.id !3963
  call void @llvm.dbg.declare(metadata i64* %__vla_expr0, metadata !3964, metadata !DIExpression()), !dbg !3965, !dp.md.instr.id !3966
  call void @llvm.dbg.declare(metadata %"class.std::thread"* %vla, metadata !3967, metadata !DIExpression()), !dbg !3971, !dp.md.instr.id !3972
  %isempty = icmp eq i64 %26, 0, !dbg !3971, !dp.md.instr.id !3973
  call void @__dp_incr_taken_branch_counter(i8* getelementptr inbounds ([12 x i8], [12 x i8]* @.str.521, i32 0, i32 0), i1 %isempty, i32 1), !dbg !3971, !dp.md.instr.id !3974
  call void @__dp_incr_taken_branch_counter(i8* getelementptr inbounds ([12 x i8], [12 x i8]* @.str.522, i32 0, i32 0), i1 %isempty, i32 0), !dbg !3971, !dp.md.instr.id !3975
  call void @__dp_incr_taken_branch_counter(i8* getelementptr inbounds ([12 x i8], [12 x i8]* @.str.523, i32 0, i32 0), i1 %isempty, i32 1), !dbg !3971, !dp.md.instr.id !3976
  call void @__dp_incr_taken_branch_counter(i8* getelementptr inbounds ([12 x i8], [12 x i8]* @.str.524, i32 0, i32 0), i1 %isempty, i32 0), !dbg !3971, !dp.md.instr.id !3977
  call void @__dp_incr_taken_branch_counter(i8* getelementptr inbounds ([12 x i8], [12 x i8]* @.str.525, i32 0, i32 0), i1 %isempty, i32 1), !dbg !3971, !dp.md.instr.id !3978
  call void @__dp_incr_taken_branch_counter(i8* getelementptr inbounds ([12 x i8], [12 x i8]* @.str.526, i32 0, i32 0), i1 %isempty, i32 0), !dbg !3971, !dp.md.instr.id !3979
  call void @__dp_report_bb(i32 356)
  br i1 %isempty, label %arrayctor.cont, label %new.ctorloop, !dbg !3971, !dp.md.instr.id !3980

new.ctorloop:                                     ; preds = %entry
  %arrayctor.end = getelementptr inbounds %"class.std::thread", %"class.std::thread"* %vla, i64 %26, !dbg !3971, !dp.md.instr.id !3981
  br label %arrayctor.loop, !dbg !3971, !dp.md.instr.id !3982

arrayctor.loop:                                   ; preds = %arrayctor.loop, %new.ctorloop
  %arrayctor.cur = phi %"class.std::thread"* [ %vla, %new.ctorloop ], [ %arrayctor.next, %arrayctor.loop ], !dbg !3971, !dp.md.instr.id !3983
  call void @__dp_call(i32 49224), !dbg !3971
  call void @_ZNSt6threadC2Ev(%"class.std::thread"* %arrayctor.cur) #14, !dbg !3971, !dp.md.instr.id !3984
  %arrayctor.next = getelementptr inbounds %"class.std::thread", %"class.std::thread"* %arrayctor.cur, i64 1, !dbg !3971, !dp.md.instr.id !3985
  %arrayctor.done = icmp eq %"class.std::thread"* %arrayctor.next, %arrayctor.end, !dbg !3971, !dp.md.instr.id !3986
  call void @__dp_incr_taken_branch_counter(i8* getelementptr inbounds ([12 x i8], [12 x i8]* @.str.545, i32 0, i32 0), i1 %arrayctor.done, i32 1), !dbg !3971, !dp.md.instr.id !3987
  call void @__dp_incr_taken_branch_counter(i8* getelementptr inbounds ([12 x i8], [12 x i8]* @.str.546, i32 0, i32 0), i1 %arrayctor.done, i32 0), !dbg !3971, !dp.md.instr.id !3988
  br i1 %arrayctor.done, label %arrayctor.cont, label %arrayctor.loop, !dbg !3971, !dp.md.instr.id !3989

arrayctor.cont:                                   ; preds = %entry, %arrayctor.loop
  %33 = ptrtoint i32* %src.addr to i64
  %34 = load i32, i32* %src.addr, align 4, !dbg !3990, !dp.md.instr.id !3991
  %35 = ptrtoint i32** %dist.addr to i64
  %36 = load i32*, i32** %dist.addr, align 8, !dbg !3992, !dp.md.instr.id !3993
  %37 = ptrtoint %struct.ECLgraph** %g.addr to i64
  %38 = load %struct.ECLgraph*, %struct.ECLgraph** %g.addr, align 8, !dbg !3994, !dp.md.instr.id !3995
  %nodes = getelementptr inbounds %struct.ECLgraph, %struct.ECLgraph* %38, i32 0, i32 0, !dbg !3996, !dp.md.instr.id !3997
  %39 = ptrtoint i32* %nodes to i64
  call void @__dp_read(i32 1176, i64 %39, i8* getelementptr inbounds ([12 x i8], [12 x i8]* @.str.144, i32 0, i32 0))
  %40 = load i32, i32* %nodes, align 8, !dbg !3996, !dp.md.instr.id !3998
  call void @__dp_call(i32 49226), !dbg !3999
  call void @__dp_report_bb(i32 357)
  invoke void @_ZL4initiPii(i32 %34, i32* %36, i32 %40)
          to label %invoke.cont unwind label %lpad, !dbg !3999, !dp.md.instr.id !4000

invoke.cont:                                      ; preds = %arrayctor.cont
  call void @llvm.dbg.declare(metadata %struct.timeval* %start, metadata !4001, metadata !DIExpression()), !dbg !4008, !dp.md.instr.id !4009
  call void @llvm.dbg.declare(metadata %struct.timeval* %end, metadata !4010, metadata !DIExpression()), !dbg !4011, !dp.md.instr.id !4012
  call void @__dp_call(i32 49229), !dbg !4013
  %call = call i32 @gettimeofday(%struct.timeval* %start, i8* null) #14, !dbg !4013, !dp.md.instr.id !4014
  call void @llvm.dbg.declare(metadata i32* %goagain, metadata !4015, metadata !DIExpression()), !dbg !4016, !dp.md.instr.id !4017
  call void @llvm.dbg.declare(metadata i32* %iter, metadata !4018, metadata !DIExpression()), !dbg !4019, !dp.md.instr.id !4020
  %41 = ptrtoint i32* %iter to i64
  store i32 0, i32* %iter, align 4, !dbg !4019, !dp.md.instr.id !4021
  call void @__dp_report_bb(i32 358)
  br label %do.body, !dbg !4022, !dp.md.instr.id !4023

do.body:                                          ; preds = %do.cond, %invoke.cont
  call void @__dp_loop_entry(i32 49235, i32 7), !dp.md.instr.id !4024
  %42 = ptrtoint i32* %iter to i64
  %43 = load i32, i32* %iter, align 4, !dbg !4025, !dp.md.instr.id !4027
  %inc = add nsw i32 %43, 1, !dbg !4025, !dp.md.instr.id !4028
  %44 = ptrtoint i32* %iter to i64
  store i32 %inc, i32* %iter, align 4, !dbg !4025, !dp.md.instr.id !4029
  %45 = ptrtoint i32* %goagain to i64
  call void @__dp_write(i32 1189, i64 %45, i8* getelementptr inbounds ([8 x i8], [8 x i8]* @.str.555, i32 0, i32 0))
  store i32 0, i32* %goagain, align 4, !dbg !4030, !dp.md.instr.id !4031
  call void @llvm.dbg.declare(metadata i32* %i, metadata !4032, metadata !DIExpression()), !dbg !4034, !dp.md.instr.id !4035
  %46 = ptrtoint i32* %i to i64
  store i32 0, i32* %i, align 4, !dbg !4034, !dp.md.instr.id !4036
  call void @__dp_report_bb(i32 361)
  %47 = load i32, i32* %__dp_bb34, align 4
  call void @__dp_report_bb_pair(i32 %47, i32 365)
  %48 = load i32, i32* %__dp_bb37, align 4
  call void @__dp_report_bb_pair(i32 %48, i32 370)
  store i32 1, i32* %__dp_bb37, align 4
  br label %for.cond, !dbg !4037, !dp.md.instr.id !4038

for.cond:                                         ; preds = %for.inc, %do.body
  call void @__dp_loop_incr(i32 8)
  call void @__dp_loop_entry(i32 49238, i32 8), !dp.md.instr.id !4039
  %49 = ptrtoint i32* %i to i64
  %50 = load i32, i32* %i, align 4, !dbg !4040, !dp.md.instr.id !4042
  %51 = ptrtoint i32* %threadCount.addr to i64
  %52 = load i32, i32* %threadCount.addr, align 4, !dbg !4043, !dp.md.instr.id !4044
  %cmp = icmp slt i32 %50, %52, !dbg !4045, !dp.md.instr.id !4046
  call void @__dp_incr_taken_branch_counter(i8* getelementptr inbounds ([12 x i8], [12 x i8]* @.str.527, i32 0, i32 0), i1 %cmp, i32 1), !dbg !4047, !dp.md.instr.id !4048
  call void @__dp_incr_taken_branch_counter(i8* getelementptr inbounds ([12 x i8], [12 x i8]* @.str.528, i32 0, i32 0), i1 %cmp, i32 0), !dbg !4047, !dp.md.instr.id !4049
  call void @__dp_report_bb(i32 348)
  store i32 1, i32* %__dp_bb34, align 4
  %53 = load i32, i32* %__dp_bb35, align 4
  call void @__dp_report_bb_pair(i32 %53, i32 367)
  br i1 %cmp, label %for.body, label %for.end, !dbg !4047, !dp.md.instr.id !4050

for.body:                                         ; preds = %for.cond
  call void @__dp_loop_incr(i32 9)
  %54 = ptrtoint %struct.ECLgraph** %g.addr to i64
  %55 = load %struct.ECLgraph*, %struct.ECLgraph** %g.addr, align 8, !dbg !4051, !dp.md.instr.id !4053
  call void @__dp_call(i32 49239), !dbg !4054
  %call2 = call i32* @_ZSt3refIiESt17reference_wrapperIT_ERS1_(i32* nonnull align 4 dereferenceable(4) %goagain) #14, !dbg !4054, !dp.md.instr.id !4055
  %coerce.dive = getelementptr inbounds %"class.std::reference_wrapper", %"class.std::reference_wrapper"* %ref.tmp1, i32 0, i32 0, !dbg !4054, !dp.md.instr.id !4056
  %56 = ptrtoint i32** %coerce.dive to i64
  call void @__dp_write(i32 1203, i64 %56, i8* getelementptr inbounds ([19 x i8], [19 x i8]* @.str.561, i32 0, i32 0))
  store i32* %call2, i32** %coerce.dive, align 8, !dbg !4054, !dp.md.instr.id !4057
  call void @__dp_call(i32 49239), !dbg !4058
  call void @__dp_report_bb(i32 350)
  invoke void @_ZNSt6threadC2IRFv8ECLgraphPKiPiRiiiEJRKS1_RKS3_RS4_St17reference_wrapperIiES5_RS2_EvEEOT_DpOT0_(%"class.std::thread"* %ref.tmp, void (%struct.ECLgraph*, i32*, i32*, i32*, i32, i32)* nonnull @_ZL4sssp8ECLgraphPKiPiRiii, %struct.ECLgraph* nonnull align 8 dereferenceable(32) %55, i32** nonnull align 8 dereferenceable(8) %sp.addr, i32** nonnull align 8 dereferenceable(8) %dist.addr, %"class.std::reference_wrapper"* nonnull align 8 dereferenceable(8) %ref.tmp1, i32* nonnull align 4 dereferenceable(4) %i, i32* nonnull align 4 dereferenceable(4) %threadCount.addr)
          to label %invoke.cont3 unwind label %lpad, !dbg !4058, !dp.md.instr.id !4059

invoke.cont3:                                     ; preds = %for.body
  %57 = ptrtoint i32* %i to i64
  %58 = load i32, i32* %i, align 4, !dbg !4060, !dp.md.instr.id !4061
  %idxprom = sext i32 %58 to i64, !dbg !4062, !dp.md.instr.id !4063
  %arrayidx = getelementptr inbounds %"class.std::thread", %"class.std::thread"* %vla, i64 %idxprom, !dbg !4062, !dp.md.instr.id !4064
  call void @__dp_call(i32 49239), !dbg !4065
  %call4 = call nonnull align 8 dereferenceable(8) %"class.std::thread"* @_ZNSt6threadaSEOS_(%"class.std::thread"* %arrayidx, %"class.std::thread"* nonnull align 8 dereferenceable(8) %ref.tmp) #14, !dbg !4065, !dp.md.instr.id !4066
  call void @__dp_call(i32 49239), !dbg !4062
  call void @_ZNSt6threadD2Ev(%"class.std::thread"* %ref.tmp) #14, !dbg !4062, !dp.md.instr.id !4067
  call void @__dp_report_bb(i32 347)
  %59 = load i32, i32* %__dp_bb35, align 4
  call void @__dp_report_bb_pair(i32 %59, i32 366)
  br label %for.inc, !dbg !4068, !dp.md.instr.id !4069

for.inc:                                          ; preds = %invoke.cont3
  %60 = ptrtoint i32* %i to i64
  %61 = load i32, i32* %i, align 4, !dbg !4070, !dp.md.instr.id !4071
  %inc5 = add nsw i32 %61, 1, !dbg !4070, !dp.md.instr.id !4072
  %62 = ptrtoint i32* %i to i64
  store i32 %inc5, i32* %i, align 4, !dbg !4070, !dp.md.instr.id !4073
  call void @__dp_report_bb(i32 349)
  %63 = load i32, i32* %__dp_bb35, align 4
  call void @__dp_report_bb_pair(i32 %63, i32 368)
  store i32 1, i32* %__dp_bb35, align 4
  br label %for.cond, !dbg !4074, !llvm.loop !4075, !dp.md.instr.id !4077

lpad:                                             ; preds = %do.end, %for.body9, %for.body, %arrayctor.cont
  %64 = landingpad { i8*, i32 }
          cleanup, !dbg !4078, !dp.md.instr.id !4079
  %65 = extractvalue { i8*, i32 } %64, 0, !dbg !4078, !dp.md.instr.id !4080
  %66 = ptrtoint i8** %exn.slot to i64
  store i8* %65, i8** %exn.slot, align 8, !dbg !4078, !dp.md.instr.id !4081
  %67 = extractvalue { i8*, i32 } %64, 1, !dbg !4078, !dp.md.instr.id !4082
  %68 = ptrtoint i32* %ehselector.slot to i64
  store i32 %67, i32* %ehselector.slot, align 4, !dbg !4078, !dp.md.instr.id !4083
  %69 = getelementptr inbounds %"class.std::thread", %"class.std::thread"* %vla, i64 %26, !dbg !4078, !dp.md.instr.id !4084
  %arraydestroy.isempty27 = icmp eq %"class.std::thread"* %vla, %69, !dbg !4078, !dp.md.instr.id !4085
  call void @__dp_incr_taken_branch_counter(i8* getelementptr inbounds ([12 x i8], [12 x i8]* @.str.529, i32 0, i32 0), i1 %arraydestroy.isempty27, i32 1), !dbg !4078, !dp.md.instr.id !4086
  call void @__dp_incr_taken_branch_counter(i8* getelementptr inbounds ([12 x i8], [12 x i8]* @.str.530, i32 0, i32 0), i1 %arraydestroy.isempty27, i32 0), !dbg !4078, !dp.md.instr.id !4087
  call void @__dp_report_bb(i32 345)
  br i1 %arraydestroy.isempty27, label %arraydestroy.done32, label %arraydestroy.body28, !dbg !4078, !dp.md.instr.id !4088

for.end:                                          ; preds = %for.cond
  call void @__dp_loop_exit(i32 49241, i32 8), !dp.md.instr.id !4089
  call void @llvm.dbg.declare(metadata i32* %i6, metadata !4090, metadata !DIExpression()), !dbg !4092, !dp.md.instr.id !4093
  %70 = ptrtoint i32* %i6 to i64
  store i32 0, i32* %i6, align 4, !dbg !4092, !dp.md.instr.id !4094
  call void @__dp_report_bb(i32 359)
  %71 = load i32, i32* %__dp_bb36, align 4
  call void @__dp_report_bb_pair(i32 %71, i32 369)
  br label %for.cond7, !dbg !4095, !dp.md.instr.id !4096

for.cond7:                                        ; preds = %for.inc13, %for.end
  call void @__dp_loop_entry(i32 49241, i32 9), !dp.md.instr.id !4097
  %72 = ptrtoint i32* %i6 to i64
