; ModuleID = 'codes/cpp/pr-cpp/PR_CPP_Push_FloatType_AtomicAdd_Block.cpp'
source_filename = "codes/cpp/pr-cpp/PR_CPP_Push_FloatType_AtomicAdd_Block.cpp"
target datalayout = "e-m:e-p270:32:32-p271:32:32-p272:64:64-i64:64-f80:128-n8:16:32:64-S128"
target triple = "x86_64-unknown-linux-gnu"

%struct._IO_FILE = type { i32, i8*, i8*, i8*, i8*, i8*, i8*, i8*, i8*, i8*, i8*, i8*, %struct._IO_marker*, %struct._IO_FILE*, i32, i32, i64, i16, i8, [1 x i8], i8*, i64, %struct._IO_codecvt*, %struct._IO_wide_data*, %struct._IO_FILE*, i8*, i64, i32, [20 x i8] }
%struct._IO_marker = type opaque
%struct._IO_codecvt = type opaque
%struct._IO_wide_data = type opaque
%struct.ECLgraph = type { i32, i32, i32*, i32*, i32* }
%struct.timeval = type { i64, i64 }
%"class.std::thread" = type { %"class.std::thread::id" }
%"class.std::thread::id" = type { i64 }
%"class.std::reference_wrapper" = type { double* }
%"class.std::unique_ptr" = type { %"struct.std::__uniq_ptr_data" }
%"struct.std::__uniq_ptr_data" = type { %"class.std::__uniq_ptr_impl" }
%"class.std::__uniq_ptr_impl" = type { %"class.std::tuple" }
%"class.std::tuple" = type { %"struct.std::_Tuple_impl" }
%"struct.std::_Tuple_impl" = type { %"struct.std::_Head_base.1" }
%"struct.std::_Head_base.1" = type { %"struct.std::thread::_State"* }
%"struct.std::thread::_State" = type { i32 (...)** }
%"struct.std::thread::_State_impl" = type { %"struct.std::thread::_State", %"struct.std::thread::_Invoker" }
%"struct.std::thread::_Invoker" = type { %"class.std::tuple.2" }
%"class.std::tuple.2" = type { %"struct.std::_Tuple_impl.3" }
%"struct.std::_Tuple_impl.3" = type { %"struct.std::_Tuple_impl.4", %"struct.std::_Head_base.14" }
%"struct.std::_Tuple_impl.4" = type { %"struct.std::_Tuple_impl.5", %"struct.std::_Head_base.13" }
%"struct.std::_Tuple_impl.5" = type { %"struct.std::_Tuple_impl.6", %"struct.std::_Head_base.12" }
%"struct.std::_Tuple_impl.6" = type { %"struct.std::_Tuple_impl.7", %"struct.std::_Head_base.11" }
%"struct.std::_Tuple_impl.7" = type { %"struct.std::_Tuple_impl.8", %"struct.std::_Head_base.10" }
%"struct.std::_Tuple_impl.8" = type { %"struct.std::_Head_base.9" }
%"struct.std::_Head_base.9" = type { i32 }
%"struct.std::_Head_base.10" = type { i32 }
%"struct.std::_Head_base.11" = type { float* }
%"struct.std::_Head_base.12" = type { float* }
%"struct.std::_Head_base.13" = type { %struct.ECLgraph }
%"struct.std::_Head_base.14" = type { void (%struct.ECLgraph*, float*, float*, i32, i32)* }
%"struct.std::thread::_State_impl.16" = type { %"struct.std::thread::_State", %"struct.std::thread::_Invoker.17" }
%"struct.std::thread::_Invoker.17" = type { %"class.std::tuple.18" }
%"class.std::tuple.18" = type { %"struct.std::_Tuple_impl.19" }
%"struct.std::_Tuple_impl.19" = type { %"struct.std::_Tuple_impl.base", %"struct.std::_Head_base.35" }
%"struct.std::_Tuple_impl.base" = type <{ %"struct.std::_Tuple_impl.21", %"struct.std::_Head_base.34" }>
%"struct.std::_Tuple_impl.21" = type { %"struct.std::_Tuple_impl.22", %"struct.std::_Head_base.33" }
%"struct.std::_Tuple_impl.22" = type { %"struct.std::_Tuple_impl.23", %"struct.std::_Head_base.11" }
%"struct.std::_Tuple_impl.23" = type { %"struct.std::_Tuple_impl.24", %"struct.std::_Head_base.32" }
%"struct.std::_Tuple_impl.24" = type { %"struct.std::_Tuple_impl.25", %"struct.std::_Head_base.31" }
%"struct.std::_Tuple_impl.25" = type { %"struct.std::_Tuple_impl.26", %"struct.std::_Head_base.30" }
%"struct.std::_Tuple_impl.26" = type { %"struct.std::_Tuple_impl.27", %"struct.std::_Head_base.29" }
%"struct.std::_Tuple_impl.27" = type { %"struct.std::_Head_base.28" }
%"struct.std::_Head_base.28" = type { i32 }
%"struct.std::_Head_base.29" = type { i32 }
%"struct.std::_Head_base.30" = type { float }
%"struct.std::_Head_base.31" = type { float* }
%"struct.std::_Head_base.32" = type { float* }
%"struct.std::_Head_base.33" = type { %"class.std::reference_wrapper" }
%"struct.std::_Head_base.34" = type { i32 }
%"struct.std::_Head_base.35" = type { void (i32, double*, float*, float*, float*, float, i32, i32)* }
%"struct.std::atomic" = type { float }
%"struct.std::default_delete" = type { i8 }
%"struct.std::_Index_tuple" = type { i8 }
%"struct.std::__invoke_other" = type { i8 }
%"struct.std::_Tuple_impl.0" = type { i8 }
%"struct.std::_Head_base" = type { i8 }
%"struct.std::atomic.15" = type { double }
%"struct.std::_Reference_wrapper_base_memfun" = type { i8 }
%"struct.std::_Tuple_impl.20" = type <{ %"struct.std::_Tuple_impl.21", %"struct.std::_Head_base.34", [4 x i8] }>
%"struct.std::_Index_tuple.36" = type { i8 }

$_ZSt4fillIPffEvT_S1_RKT0_ = comdat any

$_ZSt4fabsf = comdat any

$_ZNSt6threadC2Ev = comdat any

$_ZNSt6threadC2IRFv8ECLgraphPfS2_iiEJRKS1_RS2_S7_RiRKiEvEEOT_DpOT0_ = comdat any

$_ZNSt6threadaSEOS_ = comdat any

$_ZNSt6threadD2Ev = comdat any

$_ZSt3refIdESt17reference_wrapperIT_ERS1_ = comdat any

$_ZNSt6threadC2IRFviRdPfS2_S2_fiiEJRKiSt17reference_wrapperIdERS2_S9_S9_RKfRiS6_EvEEOT_DpOT0_ = comdat any

$_ZNSt6thread2idC2Ev = comdat any

$_ZNKSt6atomicIfE4loadESt12memory_order = comdat any

$_ZNSt6atomicIfE21compare_exchange_weakERffSt12memory_order = comdat any

$_ZSt11__addressofIKfEPT_RS1_ = comdat any

$_ZNSt6atomicIfE21compare_exchange_weakERffSt12memory_orderS2_ = comdat any

$_ZSt23__cmpexch_failure_orderSt12memory_order = comdat any

$_ZSt11__addressofIfEPT_RS0_ = comdat any

$_ZStorSt12memory_orderSt23__memory_order_modifier = comdat any

$_ZSt24__cmpexch_failure_order2St12memory_order = comdat any

$_ZStanSt12memory_orderSt23__memory_order_modifier = comdat any

$__clang_call_terminate = comdat any

$_ZSt7forwardIRFv8ECLgraphPfS1_iiEEOT_RNSt16remove_referenceIS4_E4typeE = comdat any

$_ZSt7forwardIRK8ECLgraphEOT_RNSt16remove_referenceIS3_E4typeE = comdat any

$_ZSt7forwardIRPfEOT_RNSt16remove_referenceIS2_E4typeE = comdat any

$_ZSt7forwardIRiEOT_RNSt16remove_referenceIS1_E4typeE = comdat any

$_ZSt7forwardIRKiEOT_RNSt16remove_referenceIS2_E4typeE = comdat any

$_ZNSt6thread11_State_implINS_8_InvokerISt5tupleIJPFv8ECLgraphPfS4_iiES3_S4_S4_iiEEEEEC2IJRS5_RKS3_RS4_SE_RiRKiEEEDpOT_ = comdat any

$_ZNSt10unique_ptrINSt6thread6_StateESt14default_deleteIS1_EEC2IS3_vEEPS1_ = comdat any

$_ZNSt10unique_ptrINSt6thread6_StateESt14default_deleteIS1_EED2Ev = comdat any

$_ZNSt6thread6_StateC2Ev = comdat any

$_ZNSt6thread8_InvokerISt5tupleIJPFv8ECLgraphPfS3_iiES2_S3_S3_iiEEEC2IJRS4_RKS2_RS3_SC_RiRKiEEEDpOT_ = comdat any

$_ZNSt6thread11_State_implINS_8_InvokerISt5tupleIJPFv8ECLgraphPfS4_iiES3_S4_S4_iiEEEEED2Ev = comdat any

$_ZNSt6thread11_State_implINS_8_InvokerISt5tupleIJPFv8ECLgraphPfS4_iiES3_S4_S4_iiEEEEED0Ev = comdat any

$_ZNSt6thread11_State_implINS_8_InvokerISt5tupleIJPFv8ECLgraphPfS4_iiES3_S4_S4_iiEEEEE6_M_runEv = comdat any

$_ZNSt5tupleIJPFv8ECLgraphPfS1_iiES0_S1_S1_iiEEC2IJRS2_RKS0_RS1_S9_RiRKiELb1ELb1EEEDpOT_ = comdat any

$_ZNSt11_Tuple_implILm0EJPFv8ECLgraphPfS1_iiES0_S1_S1_iiEEC2IRS2_JRKS0_RS1_S9_RiRKiEvEEOT_DpOT0_ = comdat any

$_ZNSt11_Tuple_implILm1EJ8ECLgraphPfS1_iiEEC2IRKS0_JRS1_S6_RiRKiEvEEOT_DpOT0_ = comdat any

$_ZNSt10_Head_baseILm0EPFv8ECLgraphPfS1_iiELb0EEC2ERKS3_ = comdat any

$_ZNSt11_Tuple_implILm2EJPfS0_iiEEC2IRS0_JS3_RiRKiEvEEOT_DpOT0_ = comdat any

$_ZNSt10_Head_baseILm1E8ECLgraphLb0EEC2ERKS0_ = comdat any

$_ZNSt11_Tuple_implILm3EJPfiiEEC2IRS0_JRiRKiEvEEOT_DpOT0_ = comdat any

$_ZNSt10_Head_baseILm2EPfLb0EEC2IRS0_EEOT_ = comdat any

$_ZNSt11_Tuple_implILm4EJiiEEC2IRiJRKiEvEEOT_DpOT0_ = comdat any

$_ZNSt10_Head_baseILm3EPfLb0EEC2IRS0_EEOT_ = comdat any

$_ZNSt11_Tuple_implILm5EJiEEC2ERKi = comdat any

$_ZNSt10_Head_baseILm4EiLb0EEC2IRiEEOT_ = comdat any

$_ZNSt10_Head_baseILm5EiLb0EEC2ERKi = comdat any

$_ZNSt6thread8_InvokerISt5tupleIJPFv8ECLgraphPfS3_iiES2_S3_S3_iiEEEclEv = comdat any

$_ZNSt6thread8_InvokerISt5tupleIJPFv8ECLgraphPfS3_iiES2_S3_S3_iiEEE9_M_invokeIJLm0ELm1ELm2ELm3ELm4ELm5EEEEvSt12_Index_tupleIJXspT_EEE = comdat any

$_ZSt8__invokeIPFv8ECLgraphPfS1_iiEJS0_S1_S1_iiEENSt15__invoke_resultIT_JDpT0_EE4typeEOS5_DpOS6_ = comdat any

$_ZSt3getILm0EJPFv8ECLgraphPfS1_iiES0_S1_S1_iiEEONSt13tuple_elementIXT_ESt5tupleIJDpT0_EEE4typeEOS8_ = comdat any

$_ZSt4moveIRSt5tupleIJPFv8ECLgraphPfS2_iiES1_S2_S2_iiEEEONSt16remove_referenceIT_E4typeEOS8_ = comdat any

$_ZSt3getILm1EJPFv8ECLgraphPfS1_iiES0_S1_S1_iiEEONSt13tuple_elementIXT_ESt5tupleIJDpT0_EEE4typeEOS8_ = comdat any

$_ZSt3getILm2EJPFv8ECLgraphPfS1_iiES0_S1_S1_iiEEONSt13tuple_elementIXT_ESt5tupleIJDpT0_EEE4typeEOS8_ = comdat any

$_ZSt3getILm3EJPFv8ECLgraphPfS1_iiES0_S1_S1_iiEEONSt13tuple_elementIXT_ESt5tupleIJDpT0_EEE4typeEOS8_ = comdat any

$_ZSt3getILm4EJPFv8ECLgraphPfS1_iiES0_S1_S1_iiEEONSt13tuple_elementIXT_ESt5tupleIJDpT0_EEE4typeEOS8_ = comdat any

$_ZSt3getILm5EJPFv8ECLgraphPfS1_iiES0_S1_S1_iiEEONSt13tuple_elementIXT_ESt5tupleIJDpT0_EEE4typeEOS8_ = comdat any

$_ZSt13__invoke_implIvPFv8ECLgraphPfS1_iiEJS0_S1_S1_iiEET_St14__invoke_otherOT0_DpOT1_ = comdat any

$_ZSt7forwardIPFv8ECLgraphPfS1_iiEEOT_RNSt16remove_referenceIS4_E4typeE = comdat any

$_ZSt7forwardI8ECLgraphEOT_RNSt16remove_referenceIS1_E4typeE = comdat any

$_ZSt7forwardIPfEOT_RNSt16remove_referenceIS1_E4typeE = comdat any

$_ZSt7forwardIiEOT_RNSt16remove_referenceIS0_E4typeE = comdat any

$_ZSt12__get_helperILm0EPFv8ECLgraphPfS1_iiEJS0_S1_S1_iiEERT0_RSt11_Tuple_implIXT_EJS4_DpT1_EE = comdat any

$_ZNSt11_Tuple_implILm0EJPFv8ECLgraphPfS1_iiES0_S1_S1_iiEE7_M_headERS4_ = comdat any

$_ZNSt10_Head_baseILm0EPFv8ECLgraphPfS1_iiELb0EE7_M_headERS4_ = comdat any

$_ZSt12__get_helperILm1E8ECLgraphJPfS1_iiEERT0_RSt11_Tuple_implIXT_EJS2_DpT1_EE = comdat any

$_ZNSt11_Tuple_implILm1EJ8ECLgraphPfS1_iiEE7_M_headERS2_ = comdat any

$_ZNSt10_Head_baseILm1E8ECLgraphLb0EE7_M_headERS1_ = comdat any

$_ZSt12__get_helperILm2EPfJS0_iiEERT0_RSt11_Tuple_implIXT_EJS1_DpT1_EE = comdat any

$_ZNSt11_Tuple_implILm2EJPfS0_iiEE7_M_headERS1_ = comdat any

$_ZNSt10_Head_baseILm2EPfLb0EE7_M_headERS1_ = comdat any

$_ZSt12__get_helperILm3EPfJiiEERT0_RSt11_Tuple_implIXT_EJS1_DpT1_EE = comdat any

$_ZNSt11_Tuple_implILm3EJPfiiEE7_M_headERS1_ = comdat any

$_ZNSt10_Head_baseILm3EPfLb0EE7_M_headERS1_ = comdat any

$_ZSt12__get_helperILm4EiJiEERT0_RSt11_Tuple_implIXT_EJS0_DpT1_EE = comdat any

$_ZNSt11_Tuple_implILm4EJiiEE7_M_headERS0_ = comdat any

$_ZNSt10_Head_baseILm4EiLb0EE7_M_headERS0_ = comdat any

$_ZSt12__get_helperILm5EiJEERT0_RSt11_Tuple_implIXT_EJS0_DpT1_EE = comdat any

$_ZNSt11_Tuple_implILm5EJiEE7_M_headERS0_ = comdat any

$_ZNSt10_Head_baseILm5EiLb0EE7_M_headERS0_ = comdat any

$_ZNSt15__uniq_ptr_dataINSt6thread6_StateESt14default_deleteIS1_ELb1ELb1EECI2St15__uniq_ptr_implIS1_S3_EEPS1_ = comdat any

$_ZNSt15__uniq_ptr_implINSt6thread6_StateESt14default_deleteIS1_EEC2EPS1_ = comdat any

$_ZNSt5tupleIJPNSt6thread6_StateESt14default_deleteIS1_EEEC2ILb1ELb1EEEv = comdat any

$_ZNSt15__uniq_ptr_implINSt6thread6_StateESt14default_deleteIS1_EE6_M_ptrEv = comdat any

$_ZNSt11_Tuple_implILm0EJPNSt6thread6_StateESt14default_deleteIS1_EEEC2Ev = comdat any

$_ZNSt11_Tuple_implILm1EJSt14default_deleteINSt6thread6_StateEEEEC2Ev = comdat any

$_ZNSt10_Head_baseILm0EPNSt6thread6_StateELb0EEC2Ev = comdat any

$_ZNSt10_Head_baseILm1ESt14default_deleteINSt6thread6_StateEELb1EEC2Ev = comdat any

$_ZSt3getILm0EJPNSt6thread6_StateESt14default_deleteIS1_EEERNSt13tuple_elementIXT_ESt5tupleIJDpT0_EEE4typeERS9_ = comdat any

$_ZSt12__get_helperILm0EPNSt6thread6_StateEJSt14default_deleteIS1_EEERT0_RSt11_Tuple_implIXT_EJS5_DpT1_EE = comdat any

$_ZNSt11_Tuple_implILm0EJPNSt6thread6_StateESt14default_deleteIS1_EEE7_M_headERS5_ = comdat any

$_ZNSt10_Head_baseILm0EPNSt6thread6_StateELb0EE7_M_headERS3_ = comdat any

$_ZNSt10unique_ptrINSt6thread6_StateESt14default_deleteIS1_EE11get_deleterEv = comdat any

$_ZNKSt14default_deleteINSt6thread6_StateEEclEPS1_ = comdat any

$_ZSt4moveIRPNSt6thread6_StateEEONSt16remove_referenceIT_E4typeEOS5_ = comdat any

$_ZNSt15__uniq_ptr_implINSt6thread6_StateESt14default_deleteIS1_EE10_M_deleterEv = comdat any

$_ZSt3getILm1EJPNSt6thread6_StateESt14default_deleteIS1_EEERNSt13tuple_elementIXT_ESt5tupleIJDpT0_EEE4typeERS9_ = comdat any

$_ZSt12__get_helperILm1ESt14default_deleteINSt6thread6_StateEEJEERT0_RSt11_Tuple_implIXT_EJS4_DpT1_EE = comdat any

$_ZNSt11_Tuple_implILm1EJSt14default_deleteINSt6thread6_StateEEEE7_M_headERS4_ = comdat any

$_ZNSt10_Head_baseILm1ESt14default_deleteINSt6thread6_StateEELb1EE7_M_headERS4_ = comdat any

$_ZNKSt6thread8joinableEv = comdat any

$_ZNSt6thread4swapERS_ = comdat any

$_ZSteqNSt6thread2idES0_ = comdat any

$_ZSt4swapINSt6thread2idEENSt9enable_ifIXsr6__and_ISt6__not_ISt15__is_tuple_likeIT_EESt21is_move_constructibleIS5_ESt18is_move_assignableIS5_EEE5valueEvE4typeERS5_SE_ = comdat any

$_ZSt4moveIRNSt6thread2idEEONSt16remove_referenceIT_E4typeEOS4_ = comdat any

$_ZNKSt6atomicIdE4loadESt12memory_order = comdat any

$_ZNSt6atomicIdE21compare_exchange_weakERddSt12memory_order = comdat any

$_ZSt11__addressofIKdEPT_RS1_ = comdat any

$_ZNSt6atomicIdE21compare_exchange_weakERddSt12memory_orderS2_ = comdat any

$_ZSt11__addressofIdEPT_RS0_ = comdat any

$_ZNSt17reference_wrapperIdEC2IRdvPdEEOT_ = comdat any

$_ZNSt17reference_wrapperIdE6_S_funERd = comdat any

$_ZSt7forwardIRdEOT_RNSt16remove_referenceIS1_E4typeE = comdat any

$_ZSt7forwardIRFviRdPfS1_S1_fiiEEOT_RNSt16remove_referenceIS4_E4typeE = comdat any

$_ZSt7forwardISt17reference_wrapperIdEEOT_RNSt16remove_referenceIS2_E4typeE = comdat any

$_ZSt7forwardIRKfEOT_RNSt16remove_referenceIS2_E4typeE = comdat any

$_ZNSt6thread11_State_implINS_8_InvokerISt5tupleIJPFviRdPfS4_S4_fiiEiSt17reference_wrapperIdES4_S4_S4_fiiEEEEEC2IJRS5_RKiS8_RS4_SG_SG_RKfRiSF_EEEDpOT_ = comdat any

$_ZNSt6thread8_InvokerISt5tupleIJPFviRdPfS3_S3_fiiEiSt17reference_wrapperIdES3_S3_S3_fiiEEEC2IJRS4_RKiS7_RS3_SE_SE_RKfRiSD_EEEDpOT_ = comdat any

$_ZNSt6thread11_State_implINS_8_InvokerISt5tupleIJPFviRdPfS4_S4_fiiEiSt17reference_wrapperIdES4_S4_S4_fiiEEEEED2Ev = comdat any

$_ZNSt6thread11_State_implINS_8_InvokerISt5tupleIJPFviRdPfS4_S4_fiiEiSt17reference_wrapperIdES4_S4_S4_fiiEEEEED0Ev = comdat any

$_ZNSt6thread11_State_implINS_8_InvokerISt5tupleIJPFviRdPfS4_S4_fiiEiSt17reference_wrapperIdES4_S4_S4_fiiEEEEE6_M_runEv = comdat any

$_ZNSt5tupleIJPFviRdPfS1_S1_fiiEiSt17reference_wrapperIdES1_S1_S1_fiiEEC2IJRS2_RKiS5_RS1_SB_SB_RKfRiSA_ELb1ELb1EEEDpOT_ = comdat any

$_ZNSt11_Tuple_implILm0EJPFviRdPfS1_S1_fiiEiSt17reference_wrapperIdES1_S1_S1_fiiEEC2IRS2_JRKiS5_RS1_SB_SB_RKfRiSA_EvEEOT_DpOT0_ = comdat any

$_ZNSt11_Tuple_implILm1EJiSt17reference_wrapperIdEPfS2_S2_fiiEEC2IRKiJS1_RS2_S7_S7_RKfRiS6_EvEEOT_DpOT0_ = comdat any

$_ZNSt10_Head_baseILm0EPFviRdPfS1_S1_fiiELb0EEC2ERKS3_ = comdat any

$_ZNSt11_Tuple_implILm2EJSt17reference_wrapperIdEPfS2_S2_fiiEEC2IS1_JRS2_S5_S5_RKfRiRKiEvEEOT_DpOT0_ = comdat any

$_ZNSt10_Head_baseILm1EiLb0EEC2ERKi = comdat any

$_ZNSt11_Tuple_implILm3EJPfS0_S0_fiiEEC2IRS0_JS3_S3_RKfRiRKiEvEEOT_DpOT0_ = comdat any

$_ZNSt10_Head_baseILm2ESt17reference_wrapperIdELb0EEC2IS1_EEOT_ = comdat any

$_ZNSt11_Tuple_implILm4EJPfS0_fiiEEC2IRS0_JS3_RKfRiRKiEvEEOT_DpOT0_ = comdat any

$_ZNSt11_Tuple_implILm5EJPffiiEEC2IRS0_JRKfRiRKiEvEEOT_DpOT0_ = comdat any

$_ZNSt10_Head_baseILm4EPfLb0EEC2IRS0_EEOT_ = comdat any

$_ZNSt11_Tuple_implILm6EJfiiEEC2IRKfJRiRKiEvEEOT_DpOT0_ = comdat any

$_ZNSt10_Head_baseILm5EPfLb0EEC2IRS0_EEOT_ = comdat any

$_ZNSt11_Tuple_implILm7EJiiEEC2IRiJRKiEvEEOT_DpOT0_ = comdat any

$_ZNSt10_Head_baseILm6EfLb0EEC2ERKf = comdat any

$_ZNSt11_Tuple_implILm8EJiEEC2ERKi = comdat any

$_ZNSt10_Head_baseILm7EiLb0EEC2IRiEEOT_ = comdat any

$_ZNSt10_Head_baseILm8EiLb0EEC2ERKi = comdat any

$_ZNSt6thread8_InvokerISt5tupleIJPFviRdPfS3_S3_fiiEiSt17reference_wrapperIdES3_S3_S3_fiiEEEclEv = comdat any

$_ZNSt6thread8_InvokerISt5tupleIJPFviRdPfS3_S3_fiiEiSt17reference_wrapperIdES3_S3_S3_fiiEEE9_M_invokeIJLm0ELm1ELm2ELm3ELm4ELm5ELm6ELm7ELm8EEEEvSt12_Index_tupleIJXspT_EEE = comdat any

$_ZSt8__invokeIPFviRdPfS1_S1_fiiEJiSt17reference_wrapperIdES1_S1_S1_fiiEENSt15__invoke_resultIT_JDpT0_EE4typeEOS7_DpOS8_ = comdat any

$_ZSt3getILm0EJPFviRdPfS1_S1_fiiEiSt17reference_wrapperIdES1_S1_S1_fiiEEONSt13tuple_elementIXT_ESt5tupleIJDpT0_EEE4typeEOSA_ = comdat any

$_ZSt4moveIRSt5tupleIJPFviRdPfS2_S2_fiiEiSt17reference_wrapperIdES2_S2_S2_fiiEEEONSt16remove_referenceIT_E4typeEOSA_ = comdat any

$_ZSt3getILm1EJPFviRdPfS1_S1_fiiEiSt17reference_wrapperIdES1_S1_S1_fiiEEONSt13tuple_elementIXT_ESt5tupleIJDpT0_EEE4typeEOSA_ = comdat any

$_ZSt3getILm2EJPFviRdPfS1_S1_fiiEiSt17reference_wrapperIdES1_S1_S1_fiiEEONSt13tuple_elementIXT_ESt5tupleIJDpT0_EEE4typeEOSA_ = comdat any

$_ZSt3getILm3EJPFviRdPfS1_S1_fiiEiSt17reference_wrapperIdES1_S1_S1_fiiEEONSt13tuple_elementIXT_ESt5tupleIJDpT0_EEE4typeEOSA_ = comdat any

$_ZSt3getILm4EJPFviRdPfS1_S1_fiiEiSt17reference_wrapperIdES1_S1_S1_fiiEEONSt13tuple_elementIXT_ESt5tupleIJDpT0_EEE4typeEOSA_ = comdat any

$_ZSt3getILm5EJPFviRdPfS1_S1_fiiEiSt17reference_wrapperIdES1_S1_S1_fiiEEONSt13tuple_elementIXT_ESt5tupleIJDpT0_EEE4typeEOSA_ = comdat any

$_ZSt3getILm6EJPFviRdPfS1_S1_fiiEiSt17reference_wrapperIdES1_S1_S1_fiiEEONSt13tuple_elementIXT_ESt5tupleIJDpT0_EEE4typeEOSA_ = comdat any

$_ZSt3getILm7EJPFviRdPfS1_S1_fiiEiSt17reference_wrapperIdES1_S1_S1_fiiEEONSt13tuple_elementIXT_ESt5tupleIJDpT0_EEE4typeEOSA_ = comdat any

$_ZSt3getILm8EJPFviRdPfS1_S1_fiiEiSt17reference_wrapperIdES1_S1_S1_fiiEEONSt13tuple_elementIXT_ESt5tupleIJDpT0_EEE4typeEOSA_ = comdat any

$_ZSt13__invoke_implIvPFviRdPfS1_S1_fiiEJiSt17reference_wrapperIdES1_S1_S1_fiiEET_St14__invoke_otherOT0_DpOT1_ = comdat any

$_ZSt7forwardIPFviRdPfS1_S1_fiiEEOT_RNSt16remove_referenceIS4_E4typeE = comdat any

$_ZSt7forwardIfEOT_RNSt16remove_referenceIS0_E4typeE = comdat any

$_ZNKSt17reference_wrapperIdEcvRdEv = comdat any

$_ZNKSt17reference_wrapperIdE3getEv = comdat any

$_ZSt12__get_helperILm0EPFviRdPfS1_S1_fiiEJiSt17reference_wrapperIdES1_S1_S1_fiiEERT0_RSt11_Tuple_implIXT_EJS6_DpT1_EE = comdat any

$_ZNSt11_Tuple_implILm0EJPFviRdPfS1_S1_fiiEiSt17reference_wrapperIdES1_S1_S1_fiiEE7_M_headERS6_ = comdat any

$_ZNSt10_Head_baseILm0EPFviRdPfS1_S1_fiiELb0EE7_M_headERS4_ = comdat any

$_ZSt12__get_helperILm1EiJSt17reference_wrapperIdEPfS2_S2_fiiEERT0_RSt11_Tuple_implIXT_EJS3_DpT1_EE = comdat any

$_ZNSt11_Tuple_implILm1EJiSt17reference_wrapperIdEPfS2_S2_fiiEE7_M_headERS3_ = comdat any

$_ZNSt10_Head_baseILm1EiLb0EE7_M_headERS0_ = comdat any

$_ZSt12__get_helperILm2ESt17reference_wrapperIdEJPfS2_S2_fiiEERT0_RSt11_Tuple_implIXT_EJS3_DpT1_EE = comdat any

$_ZNSt11_Tuple_implILm2EJSt17reference_wrapperIdEPfS2_S2_fiiEE7_M_headERS3_ = comdat any

$_ZNSt10_Head_baseILm2ESt17reference_wrapperIdELb0EE7_M_headERS2_ = comdat any

$_ZSt12__get_helperILm3EPfJS0_S0_fiiEERT0_RSt11_Tuple_implIXT_EJS1_DpT1_EE = comdat any

$_ZNSt11_Tuple_implILm3EJPfS0_S0_fiiEE7_M_headERS1_ = comdat any

$_ZSt12__get_helperILm4EPfJS0_fiiEERT0_RSt11_Tuple_implIXT_EJS1_DpT1_EE = comdat any

$_ZNSt11_Tuple_implILm4EJPfS0_fiiEE7_M_headERS1_ = comdat any

$_ZNSt10_Head_baseILm4EPfLb0EE7_M_headERS1_ = comdat any

$_ZSt12__get_helperILm5EPfJfiiEERT0_RSt11_Tuple_implIXT_EJS1_DpT1_EE = comdat any

$_ZNSt11_Tuple_implILm5EJPffiiEE7_M_headERS1_ = comdat any

$_ZNSt10_Head_baseILm5EPfLb0EE7_M_headERS1_ = comdat any

$_ZSt12__get_helperILm6EfJiiEERT0_RSt11_Tuple_implIXT_EJS0_DpT1_EE = comdat any

$_ZNSt11_Tuple_implILm6EJfiiEE7_M_headERS0_ = comdat any

$_ZNSt10_Head_baseILm6EfLb0EE7_M_headERS0_ = comdat any

$_ZSt12__get_helperILm7EiJiEERT0_RSt11_Tuple_implIXT_EJS0_DpT1_EE = comdat any

$_ZNSt11_Tuple_implILm7EJiiEE7_M_headERS0_ = comdat any

$_ZNSt10_Head_baseILm7EiLb0EE7_M_headERS0_ = comdat any

$_ZSt12__get_helperILm8EiJEERT0_RSt11_Tuple_implIXT_EJS0_DpT1_EE = comdat any

$_ZNSt11_Tuple_implILm8EJiEE7_M_headERS0_ = comdat any

$_ZNSt10_Head_baseILm8EiLb0EE7_M_headERS0_ = comdat any

$_ZSt8__fill_aIPffEvT_S1_RKT0_ = comdat any

$_ZSt9__fill_a1IPffEN9__gnu_cxx11__enable_ifIXsr11__is_scalarIT0_EE7__valueEvE6__typeET_S6_RKS3_ = comdat any

$_ZTVNSt6thread11_State_implINS_8_InvokerISt5tupleIJPFv8ECLgraphPfS4_iiES3_S4_S4_iiEEEEEE = comdat any

$_ZTSNSt6thread11_State_implINS_8_InvokerISt5tupleIJPFv8ECLgraphPfS4_iiES3_S4_S4_iiEEEEEE = comdat any

$_ZTINSt6thread11_State_implINS_8_InvokerISt5tupleIJPFv8ECLgraphPfS4_iiES3_S4_S4_iiEEEEEE = comdat any

$_ZTVNSt6thread11_State_implINS_8_InvokerISt5tupleIJPFviRdPfS4_S4_fiiEiSt17reference_wrapperIdES4_S4_S4_fiiEEEEEE = comdat any

$_ZTSNSt6thread11_State_implINS_8_InvokerISt5tupleIJPFviRdPfS4_S4_fiiEiSt17reference_wrapperIdES4_S4_S4_fiiEEEEEE = comdat any

$_ZTINSt6thread11_State_implINS_8_InvokerISt5tupleIJPFviRdPfS4_S4_fiiEiSt17reference_wrapperIdES4_S4_S4_fiiEEEEEE = comdat any

@.str = private unnamed_addr constant [3 x i8] c"rb\00", align 1
@stderr = external global %struct._IO_FILE*, align 8
@.str.1 = private unnamed_addr constant [32 x i8] c"ERROR: could not open file %s\0A\0A\00", align 1
@.str.2 = private unnamed_addr constant [30 x i8] c"ERROR: failed to read nodes\0A\0A\00", align 1
@.str.3 = private unnamed_addr constant [30 x i8] c"ERROR: failed to read edges\0A\0A\00", align 1
@.str.4 = private unnamed_addr constant [36 x i8] c"input graph: %d nodes and %d edges\0A\00", align 1
@.str.5 = private unnamed_addr constant [36 x i8] c"ERROR: node or edge count too low\0A\0A\00", align 1
@.str.6 = private unnamed_addr constant [34 x i8] c"ERROR: memory allocation failed\0A\0A\00", align 1
@.str.7 = private unnamed_addr constant [44 x i8] c"ERROR: failed to read neighbor index list\0A\0A\00", align 1
@.str.8 = private unnamed_addr constant [38 x i8] c"ERROR: failed to read neighbor list\0A\0A\00", align 1
@.str.9 = private unnamed_addr constant [37 x i8] c"ERROR: failed to read edge weights\0A\0A\00", align 1
@.str.10 = private unnamed_addr constant [3 x i8] c"wb\00", align 1
@.str.11 = private unnamed_addr constant [31 x i8] c"ERROR: failed to write nodes\0A\0A\00", align 1
@.str.12 = private unnamed_addr constant [31 x i8] c"ERROR: failed to write edges\0A\0A\00", align 1
@.str.13 = private unnamed_addr constant [45 x i8] c"ERROR: failed to write neighbor index list\0A\0A\00", align 1
@.str.14 = private unnamed_addr constant [39 x i8] c"ERROR: failed to write neighbor list\0A\0A\00", align 1
@.str.15 = private unnamed_addr constant [38 x i8] c"ERROR: failed to write edge weights\0A\0A\00", align 1
@.str.16 = private unnamed_addr constant [24 x i8] c"PageRank CPP v0.1 (%s)\0A\00", align 1
@.str.17 = private unnamed_addr constant [75 x i8] c"/home/lukasrothenberger/git/Parallelization-Artifact-SC23/include/pr_cpp.h\00", align 1
@.str.18 = private unnamed_addr constant [40 x i8] c"Copyright 2022 Texas State University\0A\0A\00", align 1
@.str.19 = private unnamed_addr constant [47 x i8] c"USAGE: %s input_graph thread_count(optional)\0A\0A\00", align 1
@.str.20 = private unnamed_addr constant [11 x i8] c"graph: %s\0A\00", align 1
@.str.21 = private unnamed_addr constant [11 x i8] c"nodes: %d\0A\00", align 1
@.str.22 = private unnamed_addr constant [11 x i8] c"edges: %d\0A\00", align 1
@.str.23 = private unnamed_addr constant [18 x i8] c"avg degree: %.2f\0A\00", align 1
@.str.24 = private unnamed_addr constant [14 x i8] c"Threads: %d\0A\0A\00", align 1
@.str.25 = private unnamed_addr constant [21 x i8] c"CPU runtime: %.6fs\0A\0A\00", align 1
@.str.26 = private unnamed_addr constant [30 x i8] c"Throughput: %.6f gigaedges/s\0A\00", align 1
@.str.27 = private unnamed_addr constant [11 x i8] c"All good.\0A\00", align 1
@.str.28 = private unnamed_addr constant [17 x i8] c"Total Error: %f\0A\00", align 1
@.str.29 = private unnamed_addr constant [22 x i8] c"CPU iterations = %d.\0A\00", align 1
@_ZTVNSt6thread11_State_implINS_8_InvokerISt5tupleIJPFv8ECLgraphPfS4_iiES3_S4_S4_iiEEEEEE = linkonce_odr unnamed_addr constant { [5 x i8*] } { [5 x i8*] [i8* null, i8* bitcast ({ i8*, i8*, i8* }* @_ZTINSt6thread11_State_implINS_8_InvokerISt5tupleIJPFv8ECLgraphPfS4_iiES3_S4_S4_iiEEEEEE to i8*), i8* bitcast (void (%"struct.std::thread::_State_impl"*)* @_ZNSt6thread11_State_implINS_8_InvokerISt5tupleIJPFv8ECLgraphPfS4_iiES3_S4_S4_iiEEEEED2Ev to i8*), i8* bitcast (void (%"struct.std::thread::_State_impl"*)* @_ZNSt6thread11_State_implINS_8_InvokerISt5tupleIJPFv8ECLgraphPfS4_iiES3_S4_S4_iiEEEEED0Ev to i8*), i8* bitcast (void (%"struct.std::thread::_State_impl"*)* @_ZNSt6thread11_State_implINS_8_InvokerISt5tupleIJPFv8ECLgraphPfS4_iiES3_S4_S4_iiEEEEE6_M_runEv to i8*)] }, comdat, align 8
@_ZTVN10__cxxabiv120__si_class_type_infoE = external global i8*
@_ZTSNSt6thread11_State_implINS_8_InvokerISt5tupleIJPFv8ECLgraphPfS4_iiES3_S4_S4_iiEEEEEE = linkonce_odr constant [85 x i8] c"NSt6thread11_State_implINS_8_InvokerISt5tupleIJPFv8ECLgraphPfS4_iiES3_S4_S4_iiEEEEEE\00", comdat, align 1
@_ZTINSt6thread6_StateE = external constant i8*
@_ZTINSt6thread11_State_implINS_8_InvokerISt5tupleIJPFv8ECLgraphPfS4_iiES3_S4_S4_iiEEEEEE = linkonce_odr constant { i8*, i8*, i8* } { i8* bitcast (i8** getelementptr inbounds (i8*, i8** @_ZTVN10__cxxabiv120__si_class_type_infoE, i64 2) to i8*), i8* getelementptr inbounds ([85 x i8], [85 x i8]* @_ZTSNSt6thread11_State_implINS_8_InvokerISt5tupleIJPFv8ECLgraphPfS4_iiES3_S4_S4_iiEEEEEE, i32 0, i32 0), i8* bitcast (i8** @_ZTINSt6thread6_StateE to i8*) }, comdat, align 8
@_ZTVNSt6thread6_StateE = external unnamed_addr constant { [5 x i8*] }, align 8
@_ZTVNSt6thread11_State_implINS_8_InvokerISt5tupleIJPFviRdPfS4_S4_fiiEiSt17reference_wrapperIdES4_S4_S4_fiiEEEEEE = linkonce_odr unnamed_addr constant { [5 x i8*] } { [5 x i8*] [i8* null, i8* bitcast ({ i8*, i8*, i8* }* @_ZTINSt6thread11_State_implINS_8_InvokerISt5tupleIJPFviRdPfS4_S4_fiiEiSt17reference_wrapperIdES4_S4_S4_fiiEEEEEE to i8*), i8* bitcast (void (%"struct.std::thread::_State_impl.16"*)* @_ZNSt6thread11_State_implINS_8_InvokerISt5tupleIJPFviRdPfS4_S4_fiiEiSt17reference_wrapperIdES4_S4_S4_fiiEEEEED2Ev to i8*), i8* bitcast (void (%"struct.std::thread::_State_impl.16"*)* @_ZNSt6thread11_State_implINS_8_InvokerISt5tupleIJPFviRdPfS4_S4_fiiEiSt17reference_wrapperIdES4_S4_S4_fiiEEEEED0Ev to i8*), i8* bitcast (void (%"struct.std::thread::_State_impl.16"*)* @_ZNSt6thread11_State_implINS_8_InvokerISt5tupleIJPFviRdPfS4_S4_fiiEiSt17reference_wrapperIdES4_S4_S4_fiiEEEEE6_M_runEv to i8*)] }, comdat, align 8
@_ZTSNSt6thread11_State_implINS_8_InvokerISt5tupleIJPFviRdPfS4_S4_fiiEiSt17reference_wrapperIdES4_S4_S4_fiiEEEEEE = linkonce_odr constant [109 x i8] c"NSt6thread11_State_implINS_8_InvokerISt5tupleIJPFviRdPfS4_S4_fiiEiSt17reference_wrapperIdES4_S4_S4_fiiEEEEEE\00", comdat, align 1
@_ZTINSt6thread11_State_implINS_8_InvokerISt5tupleIJPFviRdPfS4_S4_fiiEiSt17reference_wrapperIdES4_S4_S4_fiiEEEEEE = linkonce_odr constant { i8*, i8*, i8* } { i8* bitcast (i8** getelementptr inbounds (i8*, i8** @_ZTVN10__cxxabiv120__si_class_type_infoE, i64 2) to i8*), i8* getelementptr inbounds ([109 x i8], [109 x i8]* @_ZTSNSt6thread11_State_implINS_8_InvokerISt5tupleIJPFviRdPfS4_S4_fiiEiSt17reference_wrapperIdES4_S4_S4_fiiEEEEEE, i32 0, i32 0), i8* bitcast (i8** @_ZTINSt6thread6_StateE to i8*) }, comdat, align 8
@.str.30 = private unnamed_addr constant [6 x i8] c"fname\00", align 1
@.str.31 = private unnamed_addr constant [4 x i8] c"cnt\00", align 1
@.str.32 = private unnamed_addr constant [2 x i8] c"f\00", align 1
@.str.33 = private unnamed_addr constant [7 x i8] c"stderr\00", align 1
@.str.34 = private unnamed_addr constant [21 x i8] c"GEPRESULT_agg.result\00", align 1
@.str.35 = private unnamed_addr constant [1 x i8] zeroinitializer, align 1
@.str.36 = private unnamed_addr constant [12 x i8] c"GEPRESULT_g\00", align 1
@.str.37 = private unnamed_addr constant [2 x i8] c"g\00", align 1
@.str.38 = private unnamed_addr constant [5 x i8] c".str\00", align 1
@.str.39 = private unnamed_addr constant [7 x i8] c".str.1\00", align 1
@.str.40 = private unnamed_addr constant [7 x i8] c".str.2\00", align 1
@.str.41 = private unnamed_addr constant [7 x i8] c".str.3\00", align 1
@.str.42 = private unnamed_addr constant [7 x i8] c".str.4\00", align 1
@.str.43 = private unnamed_addr constant [7 x i8] c".str.5\00", align 1
@.str.44 = private unnamed_addr constant [7 x i8] c".str.6\00", align 1
@.str.45 = private unnamed_addr constant [7 x i8] c".str.7\00", align 1
@.str.46 = private unnamed_addr constant [7 x i8] c".str.8\00", align 1
@.str.47 = private unnamed_addr constant [7 x i8] c".str.9\00", align 1
@.str.48 = private unnamed_addr constant [8 x i8] c".str.10\00", align 1
@.str.49 = private unnamed_addr constant [8 x i8] c".str.11\00", align 1
@.str.50 = private unnamed_addr constant [8 x i8] c".str.12\00", align 1
@.str.51 = private unnamed_addr constant [8 x i8] c".str.13\00", align 1
@.str.52 = private unnamed_addr constant [8 x i8] c".str.14\00", align 1
@.str.53 = private unnamed_addr constant [8 x i8] c".str.15\00", align 1
@.str.54 = private unnamed_addr constant [8 x i8] c".str.16\00", align 1
@.str.55 = private unnamed_addr constant [8 x i8] c".str.17\00", align 1
@.str.56 = private unnamed_addr constant [8 x i8] c".str.18\00", align 1
@.str.57 = private unnamed_addr constant [8 x i8] c".str.19\00", align 1
@.str.58 = private unnamed_addr constant [8 x i8] c".str.20\00", align 1
@.str.59 = private unnamed_addr constant [8 x i8] c".str.21\00", align 1
@.str.60 = private unnamed_addr constant [8 x i8] c".str.22\00", align 1
@.str.61 = private unnamed_addr constant [8 x i8] c".str.23\00", align 1
@.str.62 = private unnamed_addr constant [8 x i8] c".str.24\00", align 1
@.str.63 = private unnamed_addr constant [8 x i8] c".str.25\00", align 1
@.str.64 = private unnamed_addr constant [8 x i8] c".str.26\00", align 1
@.str.65 = private unnamed_addr constant [8 x i8] c".str.27\00", align 1
@.str.66 = private unnamed_addr constant [8 x i8] c".str.28\00", align 1
@.str.67 = private unnamed_addr constant [8 x i8] c".str.29\00", align 1
@.str.68 = private unnamed_addr constant [89 x i8] c"_ZTVNSt6thread11_State_implINS_8_InvokerISt5tupleIJPFv8ECLgraphPfS4_iiES3_S4_S4_iiEEEEEE\00", align 1
@.str.69 = private unnamed_addr constant [41 x i8] c"_ZTVN10__cxxabiv120__si_class_type_infoE\00", align 1
@.str.70 = private unnamed_addr constant [89 x i8] c"_ZTSNSt6thread11_State_implINS_8_InvokerISt5tupleIJPFv8ECLgraphPfS4_iiES3_S4_S4_iiEEEEEE\00", align 1
@.str.71 = private unnamed_addr constant [23 x i8] c"_ZTINSt6thread6_StateE\00", align 1
@.str.72 = private unnamed_addr constant [89 x i8] c"_ZTINSt6thread11_State_implINS_8_InvokerISt5tupleIJPFv8ECLgraphPfS4_iiES3_S4_S4_iiEEEEEE\00", align 1
@.str.73 = private unnamed_addr constant [23 x i8] c"_ZTVNSt6thread6_StateE\00", align 1
@.str.74 = private unnamed_addr constant [113 x i8] c"_ZTVNSt6thread11_State_implINS_8_InvokerISt5tupleIJPFviRdPfS4_S4_fiiEiSt17reference_wrapperIdES4_S4_S4_fiiEEEEEE\00", align 1
@.str.75 = private unnamed_addr constant [113 x i8] c"_ZTSNSt6thread11_State_implINS_8_InvokerISt5tupleIJPFviRdPfS4_S4_fiiEiSt17reference_wrapperIdES4_S4_S4_fiiEEEEEE\00", align 1
@.str.76 = private unnamed_addr constant [113 x i8] c"_ZTINSt6thread11_State_implINS_8_InvokerISt5tupleIJPFviRdPfS4_S4_fiiEiSt17reference_wrapperIdES4_S4_S4_fiiEEEEEE\00", align 1
@.str.77 = private unnamed_addr constant [8 x i8] c".str.30\00", align 1
@.str.78 = private unnamed_addr constant [8 x i8] c".str.31\00", align 1
@.str.79 = private unnamed_addr constant [8 x i8] c".str.32\00", align 1
@.str.80 = private unnamed_addr constant [8 x i8] c".str.33\00", align 1
@.str.81 = private unnamed_addr constant [8 x i8] c".str.34\00", align 1
@.str.82 = private unnamed_addr constant [8 x i8] c".str.35\00", align 1
@.str.83 = private unnamed_addr constant [8 x i8] c".str.36\00", align 1
@.str.84 = private unnamed_addr constant [7 x i8] c"retval\00", align 1
@.str.85 = private unnamed_addr constant [5 x i8] c"argc\00", align 1
@.str.86 = private unnamed_addr constant [5 x i8] c"argv\00", align 1
@.str.87 = private unnamed_addr constant [7 x i8] c"degree\00", align 1
@.str.88 = private unnamed_addr constant [2 x i8] c"i\00", align 1
@.str.89 = private unnamed_addr constant [12 x i8] c"threadCount\00", align 1
@.str.90 = private unnamed_addr constant [9 x i8] c"countInt\00", align 1
@.str.91 = private unnamed_addr constant [11 x i8] c"init_score\00", align 1
@.str.92 = private unnamed_addr constant [7 x i8] c"scores\00", align 1
@.str.93 = private unnamed_addr constant [8 x i8] c"runtime\00", align 1
@.str.94 = private unnamed_addr constant [8 x i8] c"agg.tmp\00", align 1
@.str.95 = private unnamed_addr constant [11 x i8] c"base_score\00", align 1
@.str.96 = private unnamed_addr constant [15 x i8] c"incomming_sums\00", align 1
@.str.97 = private unnamed_addr constant [6 x i8] c"error\00", align 1
@.str.98 = private unnamed_addr constant [4 x i8] c"src\00", align 1
@.str.99 = private unnamed_addr constant [9 x i8] c"outgoing\00", align 1
@.str.100 = private unnamed_addr constant [10 x i8] c"new_score\00", align 1
@.str.101 = private unnamed_addr constant [15 x i8] c"GEPRESULT_argv\00", align 1
@.str.102 = private unnamed_addr constant [22 x i8] c"GEPRESULT_GEPRESULT_g\00", align 1
@.str.103 = private unnamed_addr constant [17 x i8] c"GEPRESULT_degree\00", align 1
@.str.104 = private unnamed_addr constant [25 x i8] c"GEPRESULT_incomming_sums\00", align 1
@.str.105 = private unnamed_addr constant [17 x i8] c"GEPRESULT_scores\00", align 1
@.str.106 = private unnamed_addr constant [17 x i8] c"outgoing_contrib\00", align 1
@.str.107 = private unnamed_addr constant [15 x i8] c"incoming_total\00", align 1
@.str.108 = private unnamed_addr constant [12 x i8] c"saved_stack\00", align 1
@.str.109 = private unnamed_addr constant [12 x i8] c"__vla_expr0\00", align 1
@.str.110 = private unnamed_addr constant [5 x i8] c"iter\00", align 1
@.str.111 = private unnamed_addr constant [6 x i8] c"start\00", align 1
@.str.112 = private unnamed_addr constant [4 x i8] c"end\00", align 1
@.str.113 = private unnamed_addr constant [8 x i8] c"ref.tmp\00", align 1
@.str.114 = private unnamed_addr constant [9 x i8] c"exn.slot\00", align 1
@.str.115 = private unnamed_addr constant [16 x i8] c"ehselector.slot\00", align 1
@.str.116 = private unnamed_addr constant [10 x i8] c"ref.tmp44\00", align 1
@.str.117 = private unnamed_addr constant [10 x i8] c"ref.tmp46\00", align 1
@.str.118 = private unnamed_addr constant [14 x i8] c"threadHandles\00", align 1
@.str.119 = private unnamed_addr constant [27 x i8] c"GEPRESULT_outgoing_contrib\00", align 1
@.str.120 = private unnamed_addr constant [25 x i8] c"GEPRESULT_incoming_total\00", align 1
@.str.121 = private unnamed_addr constant [20 x i8] c"GEPRESULT_ref.tmp46\00", align 1
@.str.122 = private unnamed_addr constant [14 x i8] c"GEPRESULT_end\00", align 1
@.str.123 = private unnamed_addr constant [16 x i8] c"GEPRESULT_start\00", align 1
@.str.124 = private unnamed_addr constant [9 x i8] c"threadID\00", align 1
@.str.125 = private unnamed_addr constant [8 x i8] c"begNode\00", align 1
@.str.126 = private unnamed_addr constant [8 x i8] c"endNode\00", align 1
@.str.127 = private unnamed_addr constant [2 x i8] c"j\00", align 1
@.str.128 = private unnamed_addr constant [4 x i8] c"nei\00", align 1
@.str.129 = private unnamed_addr constant [6 x i8] c"nodes\00", align 1
@.str.130 = private unnamed_addr constant [12 x i8] c"local_error\00", align 1
@.str.131 = private unnamed_addr constant [9 x i8] c"incoming\00", align 1
@.str.132 = private unnamed_addr constant [10 x i8] c"old_score\00", align 1
@.str.133 = private unnamed_addr constant [6 x i8] c"value\00", align 1
@.str.134 = private unnamed_addr constant [5 x i8] c"addr\00", align 1
@.str.135 = private unnamed_addr constant [4 x i8] c"val\00", align 1
@.str.136 = private unnamed_addr constant [4 x i8] c"old\00", align 1

; Function Attrs: noinline optnone uwtable
define void @_Z12readECLgraphPKc(%struct.ECLgraph* noalias sret align 8 %agg.result, i8* %fname) #0 !dbg !1853 {
entry:
  call void @__dp_func_entry(i32 16436, i32 0), !dp.md.instr.id !1857
  %fname.addr = alloca i8*, align 8, !dp.md.instr.id !1858
  %0 = ptrtoint i8** %fname.addr to i64, !dp.md.instr.id !1859
  %cnt = alloca i32, align 4, !dp.md.instr.id !1860
  %1 = ptrtoint i32* %cnt to i64, !dp.md.instr.id !1861
  %f = alloca %struct._IO_FILE*, align 8, !dp.md.instr.id !1862
  %2 = ptrtoint %struct._IO_FILE** %f to i64, !dp.md.instr.id !1863
  %3 = ptrtoint i8** %fname.addr to i64
  store i8* %fname, i8** %fname.addr, align 8, !dp.md.instr.id !1864
  call void @llvm.dbg.declare(metadata i8** %fname.addr, metadata !1865, metadata !DIExpression()), !dbg !1866, !dp.md.instr.id !1867
  call void @llvm.dbg.declare(metadata %struct.ECLgraph* %agg.result, metadata !1868, metadata !DIExpression()), !dbg !1869, !dp.md.instr.id !1870
  call void @llvm.dbg.declare(metadata i32* %cnt, metadata !1871, metadata !DIExpression()), !dbg !1872, !dp.md.instr.id !1873
  call void @llvm.dbg.declare(metadata %struct._IO_FILE** %f, metadata !1874, metadata !DIExpression()), !dbg !1875, !dp.md.instr.id !1876
  %4 = ptrtoint i8** %fname.addr to i64
  %5 = load i8*, i8** %fname.addr, align 8, !dbg !1877, !dp.md.instr.id !1878
  call void @__dp_call(i32 16441), !dbg !1879
  %call = call noalias %struct._IO_FILE* @fopen(i8* %5, i8* getelementptr inbounds ([3 x i8], [3 x i8]* @.str, i64 0, i64 0)), !dbg !1879, !dp.md.instr.id !1880
  %6 = ptrtoint %struct._IO_FILE** %f to i64
  store %struct._IO_FILE* %call, %struct._IO_FILE** %f, align 8, !dbg !1875, !dp.md.instr.id !1881
  %7 = ptrtoint %struct._IO_FILE** %f to i64
  %8 = load %struct._IO_FILE*, %struct._IO_FILE** %f, align 8, !dbg !1882, !dp.md.instr.id !1884
  %cmp = icmp eq %struct._IO_FILE* %8, null, !dbg !1885, !dp.md.instr.id !1886
  call void @__dp_report_bb(i32 0)
  br i1 %cmp, label %if.then, label %if.end, !dbg !1887, !dp.md.instr.id !1888

if.then:                                          ; preds = %entry
  %9 = ptrtoint %struct._IO_FILE** @stderr to i64
  call void @__dp_read(i32 22, i64 %9, i8* getelementptr inbounds ([7 x i8], [7 x i8]* @.str.33, i32 0, i32 0))
  %10 = load %struct._IO_FILE*, %struct._IO_FILE** @stderr, align 8, !dbg !1889, !dp.md.instr.id !1891
  %11 = ptrtoint i8** %fname.addr to i64
  %12 = load i8*, i8** %fname.addr, align 8, !dbg !1892, !dp.md.instr.id !1893
  call void @__dp_call(i32 16441), !dbg !1894
  %call1 = call i32 (%struct._IO_FILE*, i8*, ...) @fprintf(%struct._IO_FILE* %10, i8* getelementptr inbounds ([32 x i8], [32 x i8]* @.str.1, i64 0, i64 0), i8* %12), !dbg !1894, !dp.md.instr.id !1895
  call void @__dp_finalize(i32 16441), !dbg !1896
  call void @exit(i32 -1) #13, !dbg !1896, !dp.md.instr.id !1897
  call void @__dp_report_bb(i32 1)
  unreachable, !dbg !1896, !dp.md.instr.id !1898

if.end:                                           ; preds = %entry
  %nodes = getelementptr inbounds %struct.ECLgraph, %struct.ECLgraph* %agg.result, i32 0, i32 0, !dbg !1899, !dp.md.instr.id !1900
  %13 = bitcast i32* %nodes to i8*, !dbg !1901, !dp.md.instr.id !1902
  %14 = ptrtoint %struct._IO_FILE** %f to i64
  %15 = load %struct._IO_FILE*, %struct._IO_FILE** %f, align 8, !dbg !1903, !dp.md.instr.id !1904
  call void @__dp_call(i32 16442), !dbg !1905
  %call2 = call i64 @fread(i8* %13, i64 4, i64 1, %struct._IO_FILE* %15), !dbg !1905, !dp.md.instr.id !1906
  %conv = trunc i64 %call2 to i32, !dbg !1905, !dp.md.instr.id !1907
  %16 = ptrtoint i32* %cnt to i64
  store i32 %conv, i32* %cnt, align 4, !dbg !1908, !dp.md.instr.id !1909
  %17 = ptrtoint i32* %cnt to i64
  %18 = load i32, i32* %cnt, align 4, !dbg !1910, !dp.md.instr.id !1912
  %cmp3 = icmp ne i32 %18, 1, !dbg !1913, !dp.md.instr.id !1914
  call void @__dp_report_bb(i32 2)
  br i1 %cmp3, label %if.then4, label %if.end6, !dbg !1915, !dp.md.instr.id !1916

if.then4:                                         ; preds = %if.end
  %19 = ptrtoint %struct._IO_FILE** @stderr to i64
  call void @__dp_read(i32 36, i64 %19, i8* getelementptr inbounds ([7 x i8], [7 x i8]* @.str.33, i32 0, i32 0))
  %20 = load %struct._IO_FILE*, %struct._IO_FILE** @stderr, align 8, !dbg !1917, !dp.md.instr.id !1919
  call void @__dp_call(i32 16442), !dbg !1920
  %call5 = call i32 (%struct._IO_FILE*, i8*, ...) @fprintf(%struct._IO_FILE* %20, i8* getelementptr inbounds ([30 x i8], [30 x i8]* @.str.2, i64 0, i64 0)), !dbg !1920, !dp.md.instr.id !1921
  call void @__dp_finalize(i32 16442), !dbg !1922
  call void @exit(i32 -1) #13, !dbg !1922, !dp.md.instr.id !1923
  unreachable, !dbg !1922, !dp.md.instr.id !1924

if.end6:                                          ; preds = %if.end
  %edges = getelementptr inbounds %struct.ECLgraph, %struct.ECLgraph* %agg.result, i32 0, i32 1, !dbg !1925, !dp.md.instr.id !1926
  %21 = bitcast i32* %edges to i8*, !dbg !1927, !dp.md.instr.id !1928
  %22 = ptrtoint %struct._IO_FILE** %f to i64
  %23 = load %struct._IO_FILE*, %struct._IO_FILE** %f, align 8, !dbg !1929, !dp.md.instr.id !1930
  call void @__dp_call(i32 16443), !dbg !1931
  %call7 = call i64 @fread(i8* %21, i64 4, i64 1, %struct._IO_FILE* %23), !dbg !1931, !dp.md.instr.id !1932
  %conv8 = trunc i64 %call7 to i32, !dbg !1931, !dp.md.instr.id !1933
  %24 = ptrtoint i32* %cnt to i64
  store i32 %conv8, i32* %cnt, align 4, !dbg !1934, !dp.md.instr.id !1935
  %25 = ptrtoint i32* %cnt to i64
  %26 = load i32, i32* %cnt, align 4, !dbg !1936, !dp.md.instr.id !1938
  %cmp9 = icmp ne i32 %26, 1, !dbg !1939, !dp.md.instr.id !1940
  call void @__dp_report_bb(i32 3)
  br i1 %cmp9, label %if.then10, label %if.end12, !dbg !1941, !dp.md.instr.id !1942

if.then10:                                        ; preds = %if.end6
  %27 = ptrtoint %struct._IO_FILE** @stderr to i64
  call void @__dp_read(i32 49, i64 %27, i8* getelementptr inbounds ([7 x i8], [7 x i8]* @.str.33, i32 0, i32 0))
  %28 = load %struct._IO_FILE*, %struct._IO_FILE** @stderr, align 8, !dbg !1943, !dp.md.instr.id !1945
  call void @__dp_call(i32 16443), !dbg !1946
  %call11 = call i32 (%struct._IO_FILE*, i8*, ...) @fprintf(%struct._IO_FILE* %28, i8* getelementptr inbounds ([30 x i8], [30 x i8]* @.str.3, i64 0, i64 0)), !dbg !1946, !dp.md.instr.id !1947
  call void @__dp_finalize(i32 16443), !dbg !1948
  call void @exit(i32 -1) #13, !dbg !1948, !dp.md.instr.id !1949
  unreachable, !dbg !1948, !dp.md.instr.id !1950

if.end12:                                         ; preds = %if.end6
  %nodes13 = getelementptr inbounds %struct.ECLgraph, %struct.ECLgraph* %agg.result, i32 0, i32 0, !dbg !1951, !dp.md.instr.id !1952
  %29 = ptrtoint i32* %nodes13 to i64
  call void @__dp_read(i32 54, i64 %29, i8* getelementptr inbounds ([21 x i8], [21 x i8]* @.str.34, i32 0, i32 0))
  %30 = load i32, i32* %nodes13, align 8, !dbg !1951, !dp.md.instr.id !1953
  %edges14 = getelementptr inbounds %struct.ECLgraph, %struct.ECLgraph* %agg.result, i32 0, i32 1, !dbg !1954, !dp.md.instr.id !1955
  %31 = ptrtoint i32* %edges14 to i64
  call void @__dp_read(i32 56, i64 %31, i8* getelementptr inbounds ([21 x i8], [21 x i8]* @.str.34, i32 0, i32 0))
  %32 = load i32, i32* %edges14, align 4, !dbg !1954, !dp.md.instr.id !1956
  call void @__dp_call(i32 16444), !dbg !1957
  %call15 = call i32 (i8*, ...) @printf(i8* getelementptr inbounds ([36 x i8], [36 x i8]* @.str.4, i64 0, i64 0), i32 %30, i32 %32), !dbg !1957, !dp.md.instr.id !1958
  %nodes16 = getelementptr inbounds %struct.ECLgraph, %struct.ECLgraph* %agg.result, i32 0, i32 0, !dbg !1959, !dp.md.instr.id !1961
  %33 = ptrtoint i32* %nodes16 to i64
  call void @__dp_read(i32 59, i64 %33, i8* getelementptr inbounds ([21 x i8], [21 x i8]* @.str.34, i32 0, i32 0))
  %34 = load i32, i32* %nodes16, align 8, !dbg !1959, !dp.md.instr.id !1962
  %cmp17 = icmp slt i32 %34, 1, !dbg !1963, !dp.md.instr.id !1964
  br i1 %cmp17, label %if.then20, label %lor.lhs.false, !dbg !1965, !dp.md.instr.id !1966

lor.lhs.false:                                    ; preds = %if.end12
  %edges18 = getelementptr inbounds %struct.ECLgraph, %struct.ECLgraph* %agg.result, i32 0, i32 1, !dbg !1967, !dp.md.instr.id !1968
  %35 = ptrtoint i32* %edges18 to i64
  call void @__dp_read(i32 63, i64 %35, i8* getelementptr inbounds ([21 x i8], [21 x i8]* @.str.34, i32 0, i32 0))
  %36 = load i32, i32* %edges18, align 4, !dbg !1967, !dp.md.instr.id !1969
  %cmp19 = icmp slt i32 %36, 0, !dbg !1970, !dp.md.instr.id !1971
  br i1 %cmp19, label %if.then20, label %if.end22, !dbg !1972, !dp.md.instr.id !1973

if.then20:                                        ; preds = %lor.lhs.false, %if.end12
  %37 = ptrtoint %struct._IO_FILE** @stderr to i64
  call void @__dp_read(i32 66, i64 %37, i8* getelementptr inbounds ([7 x i8], [7 x i8]* @.str.33, i32 0, i32 0))
  %38 = load %struct._IO_FILE*, %struct._IO_FILE** @stderr, align 8, !dbg !1974, !dp.md.instr.id !1976
  call void @__dp_call(i32 16445), !dbg !1977
  %call21 = call i32 (%struct._IO_FILE*, i8*, ...) @fprintf(%struct._IO_FILE* %38, i8* getelementptr inbounds ([36 x i8], [36 x i8]* @.str.5, i64 0, i64 0)), !dbg !1977, !dp.md.instr.id !1978
  call void @__dp_finalize(i32 16445), !dbg !1979
  call void @exit(i32 -1) #13, !dbg !1979, !dp.md.instr.id !1980
  unreachable, !dbg !1979, !dp.md.instr.id !1981

if.end22:                                         ; preds = %lor.lhs.false
  %nodes23 = getelementptr inbounds %struct.ECLgraph, %struct.ECLgraph* %agg.result, i32 0, i32 0, !dbg !1982, !dp.md.instr.id !1983
  %39 = ptrtoint i32* %nodes23 to i64
  call void @__dp_read(i32 71, i64 %39, i8* getelementptr inbounds ([21 x i8], [21 x i8]* @.str.34, i32 0, i32 0))
  %40 = load i32, i32* %nodes23, align 8, !dbg !1982, !dp.md.instr.id !1984
  %add = add nsw i32 %40, 1, !dbg !1985, !dp.md.instr.id !1986
  %conv24 = sext i32 %add to i64, !dbg !1987, !dp.md.instr.id !1988
  %mul = mul i64 %conv24, 4, !dbg !1989, !dp.md.instr.id !1990
  %call25 = call noalias i8* @malloc(i64 %mul) #9, !dbg !1991, !dp.md.instr.id !1992
  %41 = ptrtoint i8* %call25 to i64, !dp.md.instr.id !1993
  call void @__dp_new(i32 16447, i64 %41, i64 %41, i64 %mul), !dbg !1994, !dp.md.instr.id !1995
  %42 = bitcast i8* %call25 to i32*, !dbg !1994, !dp.md.instr.id !1996
  %nindex = getelementptr inbounds %struct.ECLgraph, %struct.ECLgraph* %agg.result, i32 0, i32 2, !dbg !1997, !dp.md.instr.id !1998
  %43 = ptrtoint i32** %nindex to i64
  call void @__dp_write(i32 80, i64 %43, i8* getelementptr inbounds ([21 x i8], [21 x i8]* @.str.34, i32 0, i32 0))
  store i32* %42, i32** %nindex, align 8, !dbg !1999, !dp.md.instr.id !2000
  %edges26 = getelementptr inbounds %struct.ECLgraph, %struct.ECLgraph* %agg.result, i32 0, i32 1, !dbg !2001, !dp.md.instr.id !2002
  %44 = ptrtoint i32* %edges26 to i64
  call void @__dp_read(i32 82, i64 %44, i8* getelementptr inbounds ([21 x i8], [21 x i8]* @.str.34, i32 0, i32 0))
  %45 = load i32, i32* %edges26, align 4, !dbg !2001, !dp.md.instr.id !2003
  %conv27 = sext i32 %45 to i64, !dbg !2004, !dp.md.instr.id !2005
  %mul28 = mul i64 %conv27, 4, !dbg !2006, !dp.md.instr.id !2007
  %call29 = call noalias i8* @malloc(i64 %mul28) #9, !dbg !2008, !dp.md.instr.id !2009
  %46 = ptrtoint i8* %call29 to i64, !dp.md.instr.id !2010
  call void @__dp_new(i32 16448, i64 %46, i64 %46, i64 %mul28), !dbg !2011, !dp.md.instr.id !2012
  %47 = bitcast i8* %call29 to i32*, !dbg !2011, !dp.md.instr.id !2013
  %nlist = getelementptr inbounds %struct.ECLgraph, %struct.ECLgraph* %agg.result, i32 0, i32 3, !dbg !2014, !dp.md.instr.id !2015
  %48 = ptrtoint i32** %nlist to i64
  call void @__dp_write(i32 90, i64 %48, i8* getelementptr inbounds ([21 x i8], [21 x i8]* @.str.34, i32 0, i32 0))
  store i32* %47, i32** %nlist, align 8, !dbg !2016, !dp.md.instr.id !2017
  %edges30 = getelementptr inbounds %struct.ECLgraph, %struct.ECLgraph* %agg.result, i32 0, i32 1, !dbg !2018, !dp.md.instr.id !2019
  %49 = ptrtoint i32* %edges30 to i64
  call void @__dp_read(i32 92, i64 %49, i8* getelementptr inbounds ([21 x i8], [21 x i8]* @.str.34, i32 0, i32 0))
  %50 = load i32, i32* %edges30, align 4, !dbg !2018, !dp.md.instr.id !2020
  %conv31 = sext i32 %50 to i64, !dbg !2021, !dp.md.instr.id !2022
  %mul32 = mul i64 %conv31, 4, !dbg !2023, !dp.md.instr.id !2024
  %call33 = call noalias i8* @malloc(i64 %mul32) #9, !dbg !2025, !dp.md.instr.id !2026
  %51 = ptrtoint i8* %call33 to i64, !dp.md.instr.id !2027
  call void @__dp_new(i32 16449, i64 %51, i64 %51, i64 %mul32), !dbg !2028, !dp.md.instr.id !2029
  %52 = bitcast i8* %call33 to i32*, !dbg !2028, !dp.md.instr.id !2030
  %eweight = getelementptr inbounds %struct.ECLgraph, %struct.ECLgraph* %agg.result, i32 0, i32 4, !dbg !2031, !dp.md.instr.id !2032
  %53 = ptrtoint i32** %eweight to i64
  call void @__dp_write(i32 100, i64 %53, i8* getelementptr inbounds ([21 x i8], [21 x i8]* @.str.34, i32 0, i32 0))
  store i32* %52, i32** %eweight, align 8, !dbg !2033, !dp.md.instr.id !2034
  %nindex34 = getelementptr inbounds %struct.ECLgraph, %struct.ECLgraph* %agg.result, i32 0, i32 2, !dbg !2035, !dp.md.instr.id !2037
  %54 = ptrtoint i32** %nindex34 to i64
  call void @__dp_read(i32 102, i64 %54, i8* getelementptr inbounds ([21 x i8], [21 x i8]* @.str.34, i32 0, i32 0))
  %55 = load i32*, i32** %nindex34, align 8, !dbg !2035, !dp.md.instr.id !2038
  %cmp35 = icmp eq i32* %55, null, !dbg !2039, !dp.md.instr.id !2040
  br i1 %cmp35, label %if.then42, label %lor.lhs.false36, !dbg !2041, !dp.md.instr.id !2042

lor.lhs.false36:                                  ; preds = %if.end22
  %nlist37 = getelementptr inbounds %struct.ECLgraph, %struct.ECLgraph* %agg.result, i32 0, i32 3, !dbg !2043, !dp.md.instr.id !2044
  %56 = ptrtoint i32** %nlist37 to i64
  call void @__dp_read(i32 106, i64 %56, i8* getelementptr inbounds ([21 x i8], [21 x i8]* @.str.34, i32 0, i32 0))
  %57 = load i32*, i32** %nlist37, align 8, !dbg !2043, !dp.md.instr.id !2045
  %cmp38 = icmp eq i32* %57, null, !dbg !2046, !dp.md.instr.id !2047
  br i1 %cmp38, label %if.then42, label %lor.lhs.false39, !dbg !2048, !dp.md.instr.id !2049

lor.lhs.false39:                                  ; preds = %lor.lhs.false36
  %eweight40 = getelementptr inbounds %struct.ECLgraph, %struct.ECLgraph* %agg.result, i32 0, i32 4, !dbg !2050, !dp.md.instr.id !2051
  %58 = ptrtoint i32** %eweight40 to i64
  call void @__dp_read(i32 110, i64 %58, i8* getelementptr inbounds ([21 x i8], [21 x i8]* @.str.34, i32 0, i32 0))
  %59 = load i32*, i32** %eweight40, align 8, !dbg !2050, !dp.md.instr.id !2052
  %cmp41 = icmp eq i32* %59, null, !dbg !2053, !dp.md.instr.id !2054
  br i1 %cmp41, label %if.then42, label %if.end44, !dbg !2055, !dp.md.instr.id !2056

if.then42:                                        ; preds = %lor.lhs.false39, %lor.lhs.false36, %if.end22
  %60 = ptrtoint %struct._IO_FILE** @stderr to i64
  call void @__dp_read(i32 113, i64 %60, i8* getelementptr inbounds ([7 x i8], [7 x i8]* @.str.33, i32 0, i32 0))
  %61 = load %struct._IO_FILE*, %struct._IO_FILE** @stderr, align 8, !dbg !2057, !dp.md.instr.id !2059
  call void @__dp_call(i32 16450), !dbg !2060
  %call43 = call i32 (%struct._IO_FILE*, i8*, ...) @fprintf(%struct._IO_FILE* %61, i8* getelementptr inbounds ([34 x i8], [34 x i8]* @.str.6, i64 0, i64 0)), !dbg !2060, !dp.md.instr.id !2061
  call void @__dp_finalize(i32 16450), !dbg !2062
  call void @exit(i32 -1) #13, !dbg !2062, !dp.md.instr.id !2063
  unreachable, !dbg !2062, !dp.md.instr.id !2064

if.end44:                                         ; preds = %lor.lhs.false39
  %nindex45 = getelementptr inbounds %struct.ECLgraph, %struct.ECLgraph* %agg.result, i32 0, i32 2, !dbg !2065, !dp.md.instr.id !2066
  %62 = ptrtoint i32** %nindex45 to i64
  call void @__dp_read(i32 118, i64 %62, i8* getelementptr inbounds ([21 x i8], [21 x i8]* @.str.34, i32 0, i32 0))
  %63 = load i32*, i32** %nindex45, align 8, !dbg !2065, !dp.md.instr.id !2067
  %64 = bitcast i32* %63 to i8*, !dbg !2068, !dp.md.instr.id !2069
  %nodes46 = getelementptr inbounds %struct.ECLgraph, %struct.ECLgraph* %agg.result, i32 0, i32 0, !dbg !2070, !dp.md.instr.id !2071
  %65 = ptrtoint i32* %nodes46 to i64
  call void @__dp_read(i32 121, i64 %65, i8* getelementptr inbounds ([21 x i8], [21 x i8]* @.str.34, i32 0, i32 0))
  %66 = load i32, i32* %nodes46, align 8, !dbg !2070, !dp.md.instr.id !2072
  %add47 = add nsw i32 %66, 1, !dbg !2073, !dp.md.instr.id !2074
  %conv48 = sext i32 %add47 to i64, !dbg !2075, !dp.md.instr.id !2076
  %67 = ptrtoint %struct._IO_FILE** %f to i64
  %68 = load %struct._IO_FILE*, %struct._IO_FILE** %f, align 8, !dbg !2077, !dp.md.instr.id !2078
  call void @__dp_call(i32 16452), !dbg !2079
  %call49 = call i64 @fread(i8* %64, i64 4, i64 %conv48, %struct._IO_FILE* %68), !dbg !2079, !dp.md.instr.id !2080
  %conv50 = trunc i64 %call49 to i32, !dbg !2079, !dp.md.instr.id !2081
  %69 = ptrtoint i32* %cnt to i64
  store i32 %conv50, i32* %cnt, align 4, !dbg !2082, !dp.md.instr.id !2083
  %70 = ptrtoint i32* %cnt to i64
  %71 = load i32, i32* %cnt, align 4, !dbg !2084, !dp.md.instr.id !2086
  %nodes51 = getelementptr inbounds %struct.ECLgraph, %struct.ECLgraph* %agg.result, i32 0, i32 0, !dbg !2087, !dp.md.instr.id !2088
  %72 = ptrtoint i32* %nodes51 to i64
  call void @__dp_read(i32 130, i64 %72, i8* getelementptr inbounds ([21 x i8], [21 x i8]* @.str.34, i32 0, i32 0))
  %73 = load i32, i32* %nodes51, align 8, !dbg !2087, !dp.md.instr.id !2089
  %add52 = add nsw i32 %73, 1, !dbg !2090, !dp.md.instr.id !2091
  %cmp53 = icmp ne i32 %71, %add52, !dbg !2092, !dp.md.instr.id !2093
  call void @__dp_report_bb(i32 4)
  br i1 %cmp53, label %if.then54, label %if.end56, !dbg !2094, !dp.md.instr.id !2095

if.then54:                                        ; preds = %if.end44
  %74 = ptrtoint %struct._IO_FILE** @stderr to i64
  call void @__dp_read(i32 134, i64 %74, i8* getelementptr inbounds ([7 x i8], [7 x i8]* @.str.33, i32 0, i32 0))
  %75 = load %struct._IO_FILE*, %struct._IO_FILE** @stderr, align 8, !dbg !2096, !dp.md.instr.id !2098
  call void @__dp_call(i32 16452), !dbg !2099
  %call55 = call i32 (%struct._IO_FILE*, i8*, ...) @fprintf(%struct._IO_FILE* %75, i8* getelementptr inbounds ([44 x i8], [44 x i8]* @.str.7, i64 0, i64 0)), !dbg !2099, !dp.md.instr.id !2100
  call void @__dp_finalize(i32 16452), !dbg !2101
  call void @exit(i32 -1) #13, !dbg !2101, !dp.md.instr.id !2102
  unreachable, !dbg !2101, !dp.md.instr.id !2103

if.end56:                                         ; preds = %if.end44
  %nlist57 = getelementptr inbounds %struct.ECLgraph, %struct.ECLgraph* %agg.result, i32 0, i32 3, !dbg !2104, !dp.md.instr.id !2105
  %76 = ptrtoint i32** %nlist57 to i64
  call void @__dp_read(i32 139, i64 %76, i8* getelementptr inbounds ([21 x i8], [21 x i8]* @.str.34, i32 0, i32 0))
  %77 = load i32*, i32** %nlist57, align 8, !dbg !2104, !dp.md.instr.id !2106
  %78 = bitcast i32* %77 to i8*, !dbg !2107, !dp.md.instr.id !2108
  %edges58 = getelementptr inbounds %struct.ECLgraph, %struct.ECLgraph* %agg.result, i32 0, i32 1, !dbg !2109, !dp.md.instr.id !2110
  %79 = ptrtoint i32* %edges58 to i64
  call void @__dp_read(i32 142, i64 %79, i8* getelementptr inbounds ([21 x i8], [21 x i8]* @.str.34, i32 0, i32 0))
  %80 = load i32, i32* %edges58, align 4, !dbg !2109, !dp.md.instr.id !2111
  %conv59 = sext i32 %80 to i64, !dbg !2112, !dp.md.instr.id !2113
  %81 = ptrtoint %struct._IO_FILE** %f to i64
  %82 = load %struct._IO_FILE*, %struct._IO_FILE** %f, align 8, !dbg !2114, !dp.md.instr.id !2115
  call void @__dp_call(i32 16453), !dbg !2116
  %call60 = call i64 @fread(i8* %78, i64 4, i64 %conv59, %struct._IO_FILE* %82), !dbg !2116, !dp.md.instr.id !2117
  %conv61 = trunc i64 %call60 to i32, !dbg !2116, !dp.md.instr.id !2118
  %83 = ptrtoint i32* %cnt to i64
  store i32 %conv61, i32* %cnt, align 4, !dbg !2119, !dp.md.instr.id !2120
  %84 = ptrtoint i32* %cnt to i64
  %85 = load i32, i32* %cnt, align 4, !dbg !2121, !dp.md.instr.id !2123
  %edges62 = getelementptr inbounds %struct.ECLgraph, %struct.ECLgraph* %agg.result, i32 0, i32 1, !dbg !2124, !dp.md.instr.id !2125
  %86 = ptrtoint i32* %edges62 to i64
  call void @__dp_read(i32 150, i64 %86, i8* getelementptr inbounds ([21 x i8], [21 x i8]* @.str.34, i32 0, i32 0))
  %87 = load i32, i32* %edges62, align 4, !dbg !2124, !dp.md.instr.id !2126
  %cmp63 = icmp ne i32 %85, %87, !dbg !2127, !dp.md.instr.id !2128
  call void @__dp_report_bb(i32 6)
  br i1 %cmp63, label %if.then64, label %if.end66, !dbg !2129, !dp.md.instr.id !2130

if.then64:                                        ; preds = %if.end56
  %88 = ptrtoint %struct._IO_FILE** @stderr to i64
  call void @__dp_read(i32 153, i64 %88, i8* getelementptr inbounds ([7 x i8], [7 x i8]* @.str.33, i32 0, i32 0))
  %89 = load %struct._IO_FILE*, %struct._IO_FILE** @stderr, align 8, !dbg !2131, !dp.md.instr.id !2133
  call void @__dp_call(i32 16453), !dbg !2134
  %call65 = call i32 (%struct._IO_FILE*, i8*, ...) @fprintf(%struct._IO_FILE* %89, i8* getelementptr inbounds ([38 x i8], [38 x i8]* @.str.8, i64 0, i64 0)), !dbg !2134, !dp.md.instr.id !2135
  call void @__dp_finalize(i32 16453), !dbg !2136
  call void @exit(i32 -1) #13, !dbg !2136, !dp.md.instr.id !2137
  unreachable, !dbg !2136, !dp.md.instr.id !2138

if.end66:                                         ; preds = %if.end56
  %eweight67 = getelementptr inbounds %struct.ECLgraph, %struct.ECLgraph* %agg.result, i32 0, i32 4, !dbg !2139, !dp.md.instr.id !2140
  %90 = ptrtoint i32** %eweight67 to i64
  call void @__dp_read(i32 158, i64 %90, i8* getelementptr inbounds ([21 x i8], [21 x i8]* @.str.34, i32 0, i32 0))
  %91 = load i32*, i32** %eweight67, align 8, !dbg !2139, !dp.md.instr.id !2141
  %92 = bitcast i32* %91 to i8*, !dbg !2142, !dp.md.instr.id !2143
  %edges68 = getelementptr inbounds %struct.ECLgraph, %struct.ECLgraph* %agg.result, i32 0, i32 1, !dbg !2144, !dp.md.instr.id !2145
  %93 = ptrtoint i32* %edges68 to i64
  call void @__dp_read(i32 161, i64 %93, i8* getelementptr inbounds ([21 x i8], [21 x i8]* @.str.34, i32 0, i32 0))
  %94 = load i32, i32* %edges68, align 4, !dbg !2144, !dp.md.instr.id !2146
  %conv69 = sext i32 %94 to i64, !dbg !2147, !dp.md.instr.id !2148
  %95 = ptrtoint %struct._IO_FILE** %f to i64
  %96 = load %struct._IO_FILE*, %struct._IO_FILE** %f, align 8, !dbg !2149, !dp.md.instr.id !2150
  call void @__dp_call(i32 16454), !dbg !2151
  %call70 = call i64 @fread(i8* %92, i64 4, i64 %conv69, %struct._IO_FILE* %96), !dbg !2151, !dp.md.instr.id !2152
  %conv71 = trunc i64 %call70 to i32, !dbg !2151, !dp.md.instr.id !2153
  %97 = ptrtoint i32* %cnt to i64
  store i32 %conv71, i32* %cnt, align 4, !dbg !2154, !dp.md.instr.id !2155
  %98 = ptrtoint i32* %cnt to i64
  %99 = load i32, i32* %cnt, align 4, !dbg !2156, !dp.md.instr.id !2158
  %cmp72 = icmp eq i32 %99, 0, !dbg !2159, !dp.md.instr.id !2160
  call void @__dp_report_bb(i32 5)
  br i1 %cmp72, label %if.then73, label %if.else, !dbg !2161, !dp.md.instr.id !2162

if.then73:                                        ; preds = %if.end66
  %eweight74 = getelementptr inbounds %struct.ECLgraph, %struct.ECLgraph* %agg.result, i32 0, i32 4, !dbg !2163, !dp.md.instr.id !2165
  %100 = ptrtoint i32** %eweight74 to i64
  call void @__dp_read(i32 171, i64 %100, i8* getelementptr inbounds ([21 x i8], [21 x i8]* @.str.34, i32 0, i32 0))
  %101 = load i32*, i32** %eweight74, align 8, !dbg !2163, !dp.md.instr.id !2166
  %102 = bitcast i32* %101 to i8*, !dbg !2167, !dp.md.instr.id !2168
  call void @free(i8* %102) #9, !dbg !2169, !dp.md.instr.id !2170
  %103 = ptrtoint i8* %102 to i64, !dp.md.instr.id !2171
  call void @__dp_delete(i32 16456, i64 %103), !dbg !2172, !dp.md.instr.id !2173
  %eweight75 = getelementptr inbounds %struct.ECLgraph, %struct.ECLgraph* %agg.result, i32 0, i32 4, !dbg !2172, !dp.md.instr.id !2174
  %104 = ptrtoint i32** %eweight75 to i64
  call void @__dp_write(i32 177, i64 %104, i8* getelementptr inbounds ([21 x i8], [21 x i8]* @.str.34, i32 0, i32 0))
  store i32* null, i32** %eweight75, align 8, !dbg !2175, !dp.md.instr.id !2176
  br label %if.end81, !dbg !2177, !dp.md.instr.id !2178

if.else:                                          ; preds = %if.end66
  %105 = ptrtoint i32* %cnt to i64
  %106 = load i32, i32* %cnt, align 4, !dbg !2179, !dp.md.instr.id !2182
  %edges76 = getelementptr inbounds %struct.ECLgraph, %struct.ECLgraph* %agg.result, i32 0, i32 1, !dbg !2183, !dp.md.instr.id !2184
  %107 = ptrtoint i32* %edges76 to i64
  call void @__dp_read(i32 181, i64 %107, i8* getelementptr inbounds ([21 x i8], [21 x i8]* @.str.34, i32 0, i32 0))
  %108 = load i32, i32* %edges76, align 4, !dbg !2183, !dp.md.instr.id !2185
  %cmp77 = icmp ne i32 %106, %108, !dbg !2186, !dp.md.instr.id !2187
  call void @__dp_report_bb(i32 8)
  br i1 %cmp77, label %if.then78, label %if.end80, !dbg !2188, !dp.md.instr.id !2189

if.then78:                                        ; preds = %if.else
  %109 = ptrtoint %struct._IO_FILE** @stderr to i64
  call void @__dp_read(i32 184, i64 %109, i8* getelementptr inbounds ([7 x i8], [7 x i8]* @.str.33, i32 0, i32 0))
  %110 = load %struct._IO_FILE*, %struct._IO_FILE** @stderr, align 8, !dbg !2190, !dp.md.instr.id !2192
  call void @__dp_call(i32 16459), !dbg !2193
  %call79 = call i32 (%struct._IO_FILE*, i8*, ...) @fprintf(%struct._IO_FILE* %110, i8* getelementptr inbounds ([37 x i8], [37 x i8]* @.str.9, i64 0, i64 0)), !dbg !2193, !dp.md.instr.id !2194
  call void @__dp_finalize(i32 16459), !dbg !2195
  call void @exit(i32 -1) #13, !dbg !2195, !dp.md.instr.id !2196
  unreachable, !dbg !2195, !dp.md.instr.id !2197

if.end80:                                         ; preds = %if.else
  br label %if.end81, !dp.md.instr.id !2198

if.end81:                                         ; preds = %if.end80, %if.then73
  %111 = ptrtoint %struct._IO_FILE** %f to i64
  %112 = load %struct._IO_FILE*, %struct._IO_FILE** %f, align 8, !dbg !2199, !dp.md.instr.id !2200
  call void @__dp_call(i32 16461), !dbg !2201
  %call82 = call i32 @fclose(%struct._IO_FILE* %112), !dbg !2201, !dp.md.instr.id !2202
  call void @__dp_report_bb(i32 7)
  call void @__dp_func_exit(i32 16463, i32 0), !dbg !2203
  ret void, !dbg !2203, !dp.md.instr.id !2204
}

; Function Attrs: nounwind readnone speculatable willreturn
declare void @llvm.dbg.declare(metadata, metadata, metadata) #1

declare noalias %struct._IO_FILE* @fopen(i8*, i8*) #2

declare i32 @fprintf(%struct._IO_FILE*, i8*, ...) #2

; Function Attrs: noreturn nounwind
declare void @exit(i32) #3

declare i64 @fread(i8*, i64, i64, %struct._IO_FILE*) #2

declare i32 @printf(i8*, ...) #2

; Function Attrs: nounwind
declare noalias i8* @malloc(i64) #4

; Function Attrs: nounwind
declare void @free(i8*) #4

declare i32 @fclose(%struct._IO_FILE*) #2

; Function Attrs: noinline optnone uwtable
define void @_Z13writeECLgraph8ECLgraphPKc(%struct.ECLgraph* byval(%struct.ECLgraph) align 8 %g, i8* %fname) #0 !dbg !2205 {
entry:
  call void @__dp_func_entry(i32 16466, i32 0), !dp.md.instr.id !2209
  %fname.addr = alloca i8*, align 8, !dp.md.instr.id !2210
  %0 = ptrtoint i8** %fname.addr to i64, !dp.md.instr.id !2211
  %cnt = alloca i32, align 4, !dp.md.instr.id !2212
  %1 = ptrtoint i32* %cnt to i64, !dp.md.instr.id !2213
  %f = alloca %struct._IO_FILE*, align 8, !dp.md.instr.id !2214
  %2 = ptrtoint %struct._IO_FILE** %f to i64, !dbg !2215, !dp.md.instr.id !2216
  call void @llvm.dbg.declare(metadata %struct.ECLgraph* %g, metadata !2217, metadata !DIExpression()), !dbg !2215, !dp.md.instr.id !2218
  %3 = ptrtoint i8** %fname.addr to i64
  store i8* %fname, i8** %fname.addr, align 8, !dp.md.instr.id !2219
  call void @llvm.dbg.declare(metadata i8** %fname.addr, metadata !2220, metadata !DIExpression()), !dbg !2221, !dp.md.instr.id !2222
  %nodes = getelementptr inbounds %struct.ECLgraph, %struct.ECLgraph* %g, i32 0, i32 0, !dbg !2223, !dp.md.instr.id !2225
  %4 = ptrtoint i32* %nodes to i64
  call void @__dp_read(i32 206, i64 %4, i8* getelementptr inbounds ([12 x i8], [12 x i8]* @.str.36, i32 0, i32 0))
  %5 = load i32, i32* %nodes, align 8, !dbg !2223, !dp.md.instr.id !2226
  %cmp = icmp slt i32 %5, 1, !dbg !2227, !dp.md.instr.id !2228
  call void @__dp_report_bb(i32 9)
  br i1 %cmp, label %if.then, label %lor.lhs.false, !dbg !2229, !dp.md.instr.id !2230

lor.lhs.false:                                    ; preds = %entry
  %edges = getelementptr inbounds %struct.ECLgraph, %struct.ECLgraph* %g, i32 0, i32 1, !dbg !2231, !dp.md.instr.id !2232
  %6 = ptrtoint i32* %edges to i64
  call void @__dp_read(i32 210, i64 %6, i8* getelementptr inbounds ([12 x i8], [12 x i8]* @.str.36, i32 0, i32 0))
  %7 = load i32, i32* %edges, align 4, !dbg !2231, !dp.md.instr.id !2233
  %cmp1 = icmp slt i32 %7, 0, !dbg !2234, !dp.md.instr.id !2235
  br i1 %cmp1, label %if.then, label %if.end, !dbg !2236, !dp.md.instr.id !2237

if.then:                                          ; preds = %lor.lhs.false, %entry
  %8 = ptrtoint %struct._IO_FILE** @stderr to i64
  call void @__dp_read(i32 213, i64 %8, i8* getelementptr inbounds ([7 x i8], [7 x i8]* @.str.33, i32 0, i32 0))
  %9 = load %struct._IO_FILE*, %struct._IO_FILE** @stderr, align 8, !dbg !2238, !dp.md.instr.id !2240
  call void @__dp_call(i32 16468), !dbg !2241
  %call = call i32 (%struct._IO_FILE*, i8*, ...) @fprintf(%struct._IO_FILE* %9, i8* getelementptr inbounds ([36 x i8], [36 x i8]* @.str.5, i64 0, i64 0)), !dbg !2241, !dp.md.instr.id !2242
  call void @__dp_finalize(i32 16468), !dbg !2243
  call void @exit(i32 -1) #13, !dbg !2243, !dp.md.instr.id !2244
  unreachable, !dbg !2243, !dp.md.instr.id !2245

if.end:                                           ; preds = %lor.lhs.false
  call void @llvm.dbg.declare(metadata i32* %cnt, metadata !2246, metadata !DIExpression()), !dbg !2247, !dp.md.instr.id !2248
  call void @llvm.dbg.declare(metadata %struct._IO_FILE** %f, metadata !2249, metadata !DIExpression()), !dbg !2250, !dp.md.instr.id !2251
  %10 = ptrtoint i8** %fname.addr to i64
  %11 = load i8*, i8** %fname.addr, align 8, !dbg !2252, !dp.md.instr.id !2253
  call void @__dp_call(i32 16470), !dbg !2254
  %call2 = call noalias %struct._IO_FILE* @fopen(i8* %11, i8* getelementptr inbounds ([3 x i8], [3 x i8]* @.str.10, i64 0, i64 0)), !dbg !2254, !dp.md.instr.id !2255
  %12 = ptrtoint %struct._IO_FILE** %f to i64
  store %struct._IO_FILE* %call2, %struct._IO_FILE** %f, align 8, !dbg !2250, !dp.md.instr.id !2256
  %13 = ptrtoint %struct._IO_FILE** %f to i64
  %14 = load %struct._IO_FILE*, %struct._IO_FILE** %f, align 8, !dbg !2257, !dp.md.instr.id !2259
  %cmp3 = icmp eq %struct._IO_FILE* %14, null, !dbg !2260, !dp.md.instr.id !2261
  call void @__dp_report_bb(i32 10)
  br i1 %cmp3, label %if.then4, label %if.end6, !dbg !2262, !dp.md.instr.id !2263

if.then4:                                         ; preds = %if.end
  %15 = ptrtoint %struct._IO_FILE** @stderr to i64
  call void @__dp_read(i32 225, i64 %15, i8* getelementptr inbounds ([7 x i8], [7 x i8]* @.str.33, i32 0, i32 0))
  %16 = load %struct._IO_FILE*, %struct._IO_FILE** @stderr, align 8, !dbg !2264, !dp.md.instr.id !2266
  %17 = ptrtoint i8** %fname.addr to i64
  %18 = load i8*, i8** %fname.addr, align 8, !dbg !2267, !dp.md.instr.id !2268
  call void @__dp_call(i32 16470), !dbg !2269
  %call5 = call i32 (%struct._IO_FILE*, i8*, ...) @fprintf(%struct._IO_FILE* %16, i8* getelementptr inbounds ([32 x i8], [32 x i8]* @.str.1, i64 0, i64 0), i8* %18), !dbg !2269, !dp.md.instr.id !2270
  call void @__dp_finalize(i32 16470), !dbg !2271
  call void @exit(i32 -1) #13, !dbg !2271, !dp.md.instr.id !2272
  call void @__dp_report_bb(i32 11)
  unreachable, !dbg !2271, !dp.md.instr.id !2273

if.end6:                                          ; preds = %if.end
  %nodes7 = getelementptr inbounds %struct.ECLgraph, %struct.ECLgraph* %g, i32 0, i32 0, !dbg !2274, !dp.md.instr.id !2275
  %19 = bitcast i32* %nodes7 to i8*, !dbg !2276, !dp.md.instr.id !2277
  %20 = ptrtoint %struct._IO_FILE** %f to i64
  %21 = load %struct._IO_FILE*, %struct._IO_FILE** %f, align 8, !dbg !2278, !dp.md.instr.id !2279
  call void @__dp_call(i32 16471), !dbg !2280
  %call8 = call i64 @fwrite(i8* %19, i64 4, i64 1, %struct._IO_FILE* %21), !dbg !2280, !dp.md.instr.id !2281
  %conv = trunc i64 %call8 to i32, !dbg !2280, !dp.md.instr.id !2282
  %22 = ptrtoint i32* %cnt to i64
  store i32 %conv, i32* %cnt, align 4, !dbg !2283, !dp.md.instr.id !2284
  %23 = ptrtoint i32* %cnt to i64
  %24 = load i32, i32* %cnt, align 4, !dbg !2285, !dp.md.instr.id !2287
  %cmp9 = icmp ne i32 %24, 1, !dbg !2288, !dp.md.instr.id !2289
  call void @__dp_report_bb(i32 12)
  br i1 %cmp9, label %if.then10, label %if.end12, !dbg !2290, !dp.md.instr.id !2291

if.then10:                                        ; preds = %if.end6
  %25 = ptrtoint %struct._IO_FILE** @stderr to i64
  call void @__dp_read(i32 239, i64 %25, i8* getelementptr inbounds ([7 x i8], [7 x i8]* @.str.33, i32 0, i32 0))
  %26 = load %struct._IO_FILE*, %struct._IO_FILE** @stderr, align 8, !dbg !2292, !dp.md.instr.id !2294
  call void @__dp_call(i32 16471), !dbg !2295
  %call11 = call i32 (%struct._IO_FILE*, i8*, ...) @fprintf(%struct._IO_FILE* %26, i8* getelementptr inbounds ([31 x i8], [31 x i8]* @.str.11, i64 0, i64 0)), !dbg !2295, !dp.md.instr.id !2296
  call void @__dp_finalize(i32 16471), !dbg !2297
  call void @exit(i32 -1) #13, !dbg !2297, !dp.md.instr.id !2298
  unreachable, !dbg !2297, !dp.md.instr.id !2299

if.end12:                                         ; preds = %if.end6
  %edges13 = getelementptr inbounds %struct.ECLgraph, %struct.ECLgraph* %g, i32 0, i32 1, !dbg !2300, !dp.md.instr.id !2301
  %27 = bitcast i32* %edges13 to i8*, !dbg !2302, !dp.md.instr.id !2303
  %28 = ptrtoint %struct._IO_FILE** %f to i64
  %29 = load %struct._IO_FILE*, %struct._IO_FILE** %f, align 8, !dbg !2304, !dp.md.instr.id !2305
  call void @__dp_call(i32 16472), !dbg !2306
  %call14 = call i64 @fwrite(i8* %27, i64 4, i64 1, %struct._IO_FILE* %29), !dbg !2306, !dp.md.instr.id !2307
  %conv15 = trunc i64 %call14 to i32, !dbg !2306, !dp.md.instr.id !2308
  %30 = ptrtoint i32* %cnt to i64
  store i32 %conv15, i32* %cnt, align 4, !dbg !2309, !dp.md.instr.id !2310
  %31 = ptrtoint i32* %cnt to i64
  %32 = load i32, i32* %cnt, align 4, !dbg !2311, !dp.md.instr.id !2313
  %cmp16 = icmp ne i32 %32, 1, !dbg !2314, !dp.md.instr.id !2315
  call void @__dp_report_bb(i32 13)
  br i1 %cmp16, label %if.then17, label %if.end19, !dbg !2316, !dp.md.instr.id !2317

if.then17:                                        ; preds = %if.end12
  %33 = ptrtoint %struct._IO_FILE** @stderr to i64
  call void @__dp_read(i32 252, i64 %33, i8* getelementptr inbounds ([7 x i8], [7 x i8]* @.str.33, i32 0, i32 0))
  %34 = load %struct._IO_FILE*, %struct._IO_FILE** @stderr, align 8, !dbg !2318, !dp.md.instr.id !2320
  call void @__dp_call(i32 16472), !dbg !2321
  %call18 = call i32 (%struct._IO_FILE*, i8*, ...) @fprintf(%struct._IO_FILE* %34, i8* getelementptr inbounds ([31 x i8], [31 x i8]* @.str.12, i64 0, i64 0)), !dbg !2321, !dp.md.instr.id !2322
  call void @__dp_finalize(i32 16472), !dbg !2323
  call void @exit(i32 -1) #13, !dbg !2323, !dp.md.instr.id !2324
  unreachable, !dbg !2323, !dp.md.instr.id !2325

if.end19:                                         ; preds = %if.end12
  %nindex = getelementptr inbounds %struct.ECLgraph, %struct.ECLgraph* %g, i32 0, i32 2, !dbg !2326, !dp.md.instr.id !2327
  %35 = ptrtoint i32** %nindex to i64
  call void @__dp_read(i32 257, i64 %35, i8* getelementptr inbounds ([12 x i8], [12 x i8]* @.str.36, i32 0, i32 0))
  %36 = load i32*, i32** %nindex, align 8, !dbg !2326, !dp.md.instr.id !2328
  %37 = bitcast i32* %36 to i8*, !dbg !2329, !dp.md.instr.id !2330
  %nodes20 = getelementptr inbounds %struct.ECLgraph, %struct.ECLgraph* %g, i32 0, i32 0, !dbg !2331, !dp.md.instr.id !2332
  %38 = ptrtoint i32* %nodes20 to i64
  call void @__dp_read(i32 260, i64 %38, i8* getelementptr inbounds ([12 x i8], [12 x i8]* @.str.36, i32 0, i32 0))
  %39 = load i32, i32* %nodes20, align 8, !dbg !2331, !dp.md.instr.id !2333
  %add = add nsw i32 %39, 1, !dbg !2334, !dp.md.instr.id !2335
  %conv21 = sext i32 %add to i64, !dbg !2336, !dp.md.instr.id !2337
  %40 = ptrtoint %struct._IO_FILE** %f to i64
  %41 = load %struct._IO_FILE*, %struct._IO_FILE** %f, align 8, !dbg !2338, !dp.md.instr.id !2339
  call void @__dp_call(i32 16474), !dbg !2340
  %call22 = call i64 @fwrite(i8* %37, i64 4, i64 %conv21, %struct._IO_FILE* %41), !dbg !2340, !dp.md.instr.id !2341
  %conv23 = trunc i64 %call22 to i32, !dbg !2340, !dp.md.instr.id !2342
  %42 = ptrtoint i32* %cnt to i64
  store i32 %conv23, i32* %cnt, align 4, !dbg !2343, !dp.md.instr.id !2344
  %43 = ptrtoint i32* %cnt to i64
  %44 = load i32, i32* %cnt, align 4, !dbg !2345, !dp.md.instr.id !2347
  %nodes24 = getelementptr inbounds %struct.ECLgraph, %struct.ECLgraph* %g, i32 0, i32 0, !dbg !2348, !dp.md.instr.id !2349
  %45 = ptrtoint i32* %nodes24 to i64
  call void @__dp_read(i32 269, i64 %45, i8* getelementptr inbounds ([12 x i8], [12 x i8]* @.str.36, i32 0, i32 0))
  %46 = load i32, i32* %nodes24, align 8, !dbg !2348, !dp.md.instr.id !2350
  %add25 = add nsw i32 %46, 1, !dbg !2351, !dp.md.instr.id !2352
  %cmp26 = icmp ne i32 %44, %add25, !dbg !2353, !dp.md.instr.id !2354
  call void @__dp_report_bb(i32 14)
  br i1 %cmp26, label %if.then27, label %if.end29, !dbg !2355, !dp.md.instr.id !2356

if.then27:                                        ; preds = %if.end19
  %47 = ptrtoint %struct._IO_FILE** @stderr to i64
  call void @__dp_read(i32 273, i64 %47, i8* getelementptr inbounds ([7 x i8], [7 x i8]* @.str.33, i32 0, i32 0))
  %48 = load %struct._IO_FILE*, %struct._IO_FILE** @stderr, align 8, !dbg !2357, !dp.md.instr.id !2359
  call void @__dp_call(i32 16474), !dbg !2360
  %call28 = call i32 (%struct._IO_FILE*, i8*, ...) @fprintf(%struct._IO_FILE* %48, i8* getelementptr inbounds ([45 x i8], [45 x i8]* @.str.13, i64 0, i64 0)), !dbg !2360, !dp.md.instr.id !2361
  call void @__dp_finalize(i32 16474), !dbg !2362
  call void @exit(i32 -1) #13, !dbg !2362, !dp.md.instr.id !2363
  unreachable, !dbg !2362, !dp.md.instr.id !2364

if.end29:                                         ; preds = %if.end19
  %nlist = getelementptr inbounds %struct.ECLgraph, %struct.ECLgraph* %g, i32 0, i32 3, !dbg !2365, !dp.md.instr.id !2366
  %49 = ptrtoint i32** %nlist to i64
  call void @__dp_read(i32 278, i64 %49, i8* getelementptr inbounds ([12 x i8], [12 x i8]* @.str.36, i32 0, i32 0))
  %50 = load i32*, i32** %nlist, align 8, !dbg !2365, !dp.md.instr.id !2367
  %51 = bitcast i32* %50 to i8*, !dbg !2368, !dp.md.instr.id !2369
  %edges30 = getelementptr inbounds %struct.ECLgraph, %struct.ECLgraph* %g, i32 0, i32 1, !dbg !2370, !dp.md.instr.id !2371
  %52 = ptrtoint i32* %edges30 to i64
  call void @__dp_read(i32 281, i64 %52, i8* getelementptr inbounds ([12 x i8], [12 x i8]* @.str.36, i32 0, i32 0))
  %53 = load i32, i32* %edges30, align 4, !dbg !2370, !dp.md.instr.id !2372
  %conv31 = sext i32 %53 to i64, !dbg !2373, !dp.md.instr.id !2374
  %54 = ptrtoint %struct._IO_FILE** %f to i64
  %55 = load %struct._IO_FILE*, %struct._IO_FILE** %f, align 8, !dbg !2375, !dp.md.instr.id !2376
  call void @__dp_call(i32 16475), !dbg !2377
  %call32 = call i64 @fwrite(i8* %51, i64 4, i64 %conv31, %struct._IO_FILE* %55), !dbg !2377, !dp.md.instr.id !2378
  %conv33 = trunc i64 %call32 to i32, !dbg !2377, !dp.md.instr.id !2379
  %56 = ptrtoint i32* %cnt to i64
  store i32 %conv33, i32* %cnt, align 4, !dbg !2380, !dp.md.instr.id !2381
  %57 = ptrtoint i32* %cnt to i64
  %58 = load i32, i32* %cnt, align 4, !dbg !2382, !dp.md.instr.id !2384
  %edges34 = getelementptr inbounds %struct.ECLgraph, %struct.ECLgraph* %g, i32 0, i32 1, !dbg !2385, !dp.md.instr.id !2386
  %59 = ptrtoint i32* %edges34 to i64
  call void @__dp_read(i32 289, i64 %59, i8* getelementptr inbounds ([12 x i8], [12 x i8]* @.str.36, i32 0, i32 0))
  %60 = load i32, i32* %edges34, align 4, !dbg !2385, !dp.md.instr.id !2387
  %cmp35 = icmp ne i32 %58, %60, !dbg !2388, !dp.md.instr.id !2389
  call void @__dp_report_bb(i32 15)
  br i1 %cmp35, label %if.then36, label %if.end38, !dbg !2390, !dp.md.instr.id !2391

if.then36:                                        ; preds = %if.end29
  %61 = ptrtoint %struct._IO_FILE** @stderr to i64
  call void @__dp_read(i32 292, i64 %61, i8* getelementptr inbounds ([7 x i8], [7 x i8]* @.str.33, i32 0, i32 0))
  %62 = load %struct._IO_FILE*, %struct._IO_FILE** @stderr, align 8, !dbg !2392, !dp.md.instr.id !2394
  call void @__dp_call(i32 16475), !dbg !2395
  %call37 = call i32 (%struct._IO_FILE*, i8*, ...) @fprintf(%struct._IO_FILE* %62, i8* getelementptr inbounds ([39 x i8], [39 x i8]* @.str.14, i64 0, i64 0)), !dbg !2395, !dp.md.instr.id !2396
  call void @__dp_finalize(i32 16475), !dbg !2397
  call void @exit(i32 -1) #13, !dbg !2397, !dp.md.instr.id !2398
  unreachable, !dbg !2397, !dp.md.instr.id !2399

if.end38:                                         ; preds = %if.end29
  %eweight = getelementptr inbounds %struct.ECLgraph, %struct.ECLgraph* %g, i32 0, i32 4, !dbg !2400, !dp.md.instr.id !2402
  %63 = ptrtoint i32** %eweight to i64
  call void @__dp_read(i32 297, i64 %63, i8* getelementptr inbounds ([12 x i8], [12 x i8]* @.str.36, i32 0, i32 0))
  %64 = load i32*, i32** %eweight, align 8, !dbg !2400, !dp.md.instr.id !2403
  %cmp39 = icmp ne i32* %64, null, !dbg !2404, !dp.md.instr.id !2405
  br i1 %cmp39, label %if.then40, label %if.end51, !dbg !2406, !dp.md.instr.id !2407

if.then40:                                        ; preds = %if.end38
  %eweight41 = getelementptr inbounds %struct.ECLgraph, %struct.ECLgraph* %g, i32 0, i32 4, !dbg !2408, !dp.md.instr.id !2410
  %65 = ptrtoint i32** %eweight41 to i64
  call void @__dp_read(i32 301, i64 %65, i8* getelementptr inbounds ([12 x i8], [12 x i8]* @.str.36, i32 0, i32 0))
  %66 = load i32*, i32** %eweight41, align 8, !dbg !2408, !dp.md.instr.id !2411
  %67 = bitcast i32* %66 to i8*, !dbg !2412, !dp.md.instr.id !2413
  %edges42 = getelementptr inbounds %struct.ECLgraph, %struct.ECLgraph* %g, i32 0, i32 1, !dbg !2414, !dp.md.instr.id !2415
  %68 = ptrtoint i32* %edges42 to i64
  call void @__dp_read(i32 304, i64 %68, i8* getelementptr inbounds ([12 x i8], [12 x i8]* @.str.36, i32 0, i32 0))
  %69 = load i32, i32* %edges42, align 4, !dbg !2414, !dp.md.instr.id !2416
  %conv43 = sext i32 %69 to i64, !dbg !2417, !dp.md.instr.id !2418
  %70 = ptrtoint %struct._IO_FILE** %f to i64
  %71 = load %struct._IO_FILE*, %struct._IO_FILE** %f, align 8, !dbg !2419, !dp.md.instr.id !2420
  call void @__dp_call(i32 16477), !dbg !2421
  %call44 = call i64 @fwrite(i8* %67, i64 4, i64 %conv43, %struct._IO_FILE* %71), !dbg !2421, !dp.md.instr.id !2422
  %conv45 = trunc i64 %call44 to i32, !dbg !2421, !dp.md.instr.id !2423
  %72 = ptrtoint i32* %cnt to i64
  store i32 %conv45, i32* %cnt, align 4, !dbg !2424, !dp.md.instr.id !2425
  %73 = ptrtoint i32* %cnt to i64
  %74 = load i32, i32* %cnt, align 4, !dbg !2426, !dp.md.instr.id !2428
  %edges46 = getelementptr inbounds %struct.ECLgraph, %struct.ECLgraph* %g, i32 0, i32 1, !dbg !2429, !dp.md.instr.id !2430
  %75 = ptrtoint i32* %edges46 to i64
  call void @__dp_read(i32 312, i64 %75, i8* getelementptr inbounds ([12 x i8], [12 x i8]* @.str.36, i32 0, i32 0))
  %76 = load i32, i32* %edges46, align 4, !dbg !2429, !dp.md.instr.id !2431
  %cmp47 = icmp ne i32 %74, %76, !dbg !2432, !dp.md.instr.id !2433
  call void @__dp_report_bb(i32 16)
  br i1 %cmp47, label %if.then48, label %if.end50, !dbg !2434, !dp.md.instr.id !2435

if.then48:                                        ; preds = %if.then40
  %77 = ptrtoint %struct._IO_FILE** @stderr to i64
  call void @__dp_read(i32 315, i64 %77, i8* getelementptr inbounds ([7 x i8], [7 x i8]* @.str.33, i32 0, i32 0))
  %78 = load %struct._IO_FILE*, %struct._IO_FILE** @stderr, align 8, !dbg !2436, !dp.md.instr.id !2438
  call void @__dp_call(i32 16477), !dbg !2439
  %call49 = call i32 (%struct._IO_FILE*, i8*, ...) @fprintf(%struct._IO_FILE* %78, i8* getelementptr inbounds ([38 x i8], [38 x i8]* @.str.15, i64 0, i64 0)), !dbg !2439, !dp.md.instr.id !2440
  call void @__dp_finalize(i32 16477), !dbg !2441
  call void @exit(i32 -1) #13, !dbg !2441, !dp.md.instr.id !2442
  unreachable, !dbg !2441, !dp.md.instr.id !2443

if.end50:                                         ; preds = %if.then40
  br label %if.end51, !dbg !2444, !dp.md.instr.id !2445

if.end51:                                         ; preds = %if.end50, %if.end38
  %79 = ptrtoint %struct._IO_FILE** %f to i64
  %80 = load %struct._IO_FILE*, %struct._IO_FILE** %f, align 8, !dbg !2446, !dp.md.instr.id !2447
  call void @__dp_call(i32 16479), !dbg !2448
  %call52 = call i32 @fclose(%struct._IO_FILE* %80), !dbg !2448, !dp.md.instr.id !2449
  call void @__dp_report_bb(i32 17)
  call void @__dp_func_exit(i32 16480, i32 0), !dbg !2450
  ret void, !dbg !2450, !dp.md.instr.id !2451
}

declare i64 @fwrite(i8*, i64, i64, %struct._IO_FILE*) #2

; Function Attrs: noinline nounwind optnone uwtable
define void @_Z12freeECLgraphR8ECLgraph(%struct.ECLgraph* nonnull align 8 dereferenceable(32) %g) #5 !dbg !2452 {
entry:
  call void @__dp_func_entry(i32 16482, i32 0), !dp.md.instr.id !2456
  %g.addr = alloca %struct.ECLgraph*, align 8, !dp.md.instr.id !2457
  %0 = ptrtoint %struct.ECLgraph** %g.addr to i64, !dp.md.instr.id !2458
  %1 = ptrtoint %struct.ECLgraph** %g.addr to i64
  store %struct.ECLgraph* %g, %struct.ECLgraph** %g.addr, align 8, !dp.md.instr.id !2459
  call void @llvm.dbg.declare(metadata %struct.ECLgraph** %g.addr, metadata !2460, metadata !DIExpression()), !dbg !2461, !dp.md.instr.id !2462
  %2 = ptrtoint %struct.ECLgraph** %g.addr to i64
  %3 = load %struct.ECLgraph*, %struct.ECLgraph** %g.addr, align 8, !dbg !2463, !dp.md.instr.id !2465
  %nindex = getelementptr inbounds %struct.ECLgraph, %struct.ECLgraph* %3, i32 0, i32 2, !dbg !2466, !dp.md.instr.id !2467
  %4 = ptrtoint i32** %nindex to i64
  call void @__dp_read(i32 331, i64 %4, i8* getelementptr inbounds ([12 x i8], [12 x i8]* @.str.36, i32 0, i32 0))
  %5 = load i32*, i32** %nindex, align 8, !dbg !2466, !dp.md.instr.id !2468
  %cmp = icmp ne i32* %5, null, !dbg !2469, !dp.md.instr.id !2470
  call void @__dp_report_bb(i32 18)
  br i1 %cmp, label %if.then, label %if.end, !dbg !2471, !dp.md.instr.id !2472

if.then:                                          ; preds = %entry
  %6 = ptrtoint %struct.ECLgraph** %g.addr to i64
  %7 = load %struct.ECLgraph*, %struct.ECLgraph** %g.addr, align 8, !dbg !2473, !dp.md.instr.id !2474
  %nindex1 = getelementptr inbounds %struct.ECLgraph, %struct.ECLgraph* %7, i32 0, i32 2, !dbg !2475, !dp.md.instr.id !2476
  %8 = ptrtoint i32** %nindex1 to i64
  call void @__dp_read(i32 336, i64 %8, i8* getelementptr inbounds ([12 x i8], [12 x i8]* @.str.36, i32 0, i32 0))
  %9 = load i32*, i32** %nindex1, align 8, !dbg !2475, !dp.md.instr.id !2477
  %10 = bitcast i32* %9 to i8*, !dbg !2473, !dp.md.instr.id !2478
  call void @free(i8* %10) #9, !dbg !2479, !dp.md.instr.id !2480
  %11 = ptrtoint i8* %10 to i64, !dp.md.instr.id !2481
  call void @__dp_delete(i32 16484, i64 %11), !dbg !2479, !dp.md.instr.id !2482
  call void @__dp_report_bb(i32 20)
  br label %if.end, !dbg !2479, !dp.md.instr.id !2483

if.end:                                           ; preds = %if.then, %entry
  %12 = ptrtoint %struct.ECLgraph** %g.addr to i64
  %13 = load %struct.ECLgraph*, %struct.ECLgraph** %g.addr, align 8, !dbg !2484, !dp.md.instr.id !2486
  %nlist = getelementptr inbounds %struct.ECLgraph, %struct.ECLgraph* %13, i32 0, i32 3, !dbg !2487, !dp.md.instr.id !2488
  %14 = ptrtoint i32** %nlist to i64
  call void @__dp_read(i32 344, i64 %14, i8* getelementptr inbounds ([12 x i8], [12 x i8]* @.str.36, i32 0, i32 0))
  %15 = load i32*, i32** %nlist, align 8, !dbg !2487, !dp.md.instr.id !2489
  %cmp2 = icmp ne i32* %15, null, !dbg !2490, !dp.md.instr.id !2491
  call void @__dp_report_bb(i32 19)
  br i1 %cmp2, label %if.then3, label %if.end5, !dbg !2492, !dp.md.instr.id !2493

if.then3:                                         ; preds = %if.end
  %16 = ptrtoint %struct.ECLgraph** %g.addr to i64
  %17 = load %struct.ECLgraph*, %struct.ECLgraph** %g.addr, align 8, !dbg !2494, !dp.md.instr.id !2495
  %nlist4 = getelementptr inbounds %struct.ECLgraph, %struct.ECLgraph* %17, i32 0, i32 3, !dbg !2496, !dp.md.instr.id !2497
  %18 = ptrtoint i32** %nlist4 to i64
  call void @__dp_read(i32 349, i64 %18, i8* getelementptr inbounds ([12 x i8], [12 x i8]* @.str.36, i32 0, i32 0))
  %19 = load i32*, i32** %nlist4, align 8, !dbg !2496, !dp.md.instr.id !2498
  %20 = bitcast i32* %19 to i8*, !dbg !2494, !dp.md.instr.id !2499
  call void @free(i8* %20) #9, !dbg !2500, !dp.md.instr.id !2501
  %21 = ptrtoint i8* %20 to i64, !dp.md.instr.id !2502
  call void @__dp_delete(i32 16485, i64 %21), !dbg !2500, !dp.md.instr.id !2503
  call void @__dp_report_bb(i32 21)
  br label %if.end5, !dbg !2500, !dp.md.instr.id !2504

if.end5:                                          ; preds = %if.then3, %if.end
  %22 = ptrtoint %struct.ECLgraph** %g.addr to i64
  %23 = load %struct.ECLgraph*, %struct.ECLgraph** %g.addr, align 8, !dbg !2505, !dp.md.instr.id !2507
  %eweight = getelementptr inbounds %struct.ECLgraph, %struct.ECLgraph* %23, i32 0, i32 4, !dbg !2508, !dp.md.instr.id !2509
  %24 = ptrtoint i32** %eweight to i64
  call void @__dp_read(i32 357, i64 %24, i8* getelementptr inbounds ([12 x i8], [12 x i8]* @.str.36, i32 0, i32 0))
  %25 = load i32*, i32** %eweight, align 8, !dbg !2508, !dp.md.instr.id !2510
  %cmp6 = icmp ne i32* %25, null, !dbg !2511, !dp.md.instr.id !2512
  call void @__dp_report_bb(i32 22)
  br i1 %cmp6, label %if.then7, label %if.end9, !dbg !2513, !dp.md.instr.id !2514

if.then7:                                         ; preds = %if.end5
  %26 = ptrtoint %struct.ECLgraph** %g.addr to i64
  %27 = load %struct.ECLgraph*, %struct.ECLgraph** %g.addr, align 8, !dbg !2515, !dp.md.instr.id !2516
  %eweight8 = getelementptr inbounds %struct.ECLgraph, %struct.ECLgraph* %27, i32 0, i32 4, !dbg !2517, !dp.md.instr.id !2518
  %28 = ptrtoint i32** %eweight8 to i64
  call void @__dp_read(i32 362, i64 %28, i8* getelementptr inbounds ([12 x i8], [12 x i8]* @.str.36, i32 0, i32 0))
  %29 = load i32*, i32** %eweight8, align 8, !dbg !2517, !dp.md.instr.id !2519
  %30 = bitcast i32* %29 to i8*, !dbg !2515, !dp.md.instr.id !2520
  call void @free(i8* %30) #9, !dbg !2521, !dp.md.instr.id !2522
  %31 = ptrtoint i8* %30 to i64, !dp.md.instr.id !2523
  call void @__dp_delete(i32 16486, i64 %31), !dbg !2521, !dp.md.instr.id !2524
  call void @__dp_report_bb(i32 23)
  br label %if.end9, !dbg !2521, !dp.md.instr.id !2525

if.end9:                                          ; preds = %if.then7, %if.end5
  %32 = ptrtoint %struct.ECLgraph** %g.addr to i64
  %33 = load %struct.ECLgraph*, %struct.ECLgraph** %g.addr, align 8, !dbg !2526, !dp.md.instr.id !2527
  %nindex10 = getelementptr inbounds %struct.ECLgraph, %struct.ECLgraph* %33, i32 0, i32 2, !dbg !2528, !dp.md.instr.id !2529
  %34 = ptrtoint i32** %nindex10 to i64
  call void @__dp_write(i32 370, i64 %34, i8* getelementptr inbounds ([12 x i8], [12 x i8]* @.str.36, i32 0, i32 0))
  store i32* null, i32** %nindex10, align 8, !dbg !2530, !dp.md.instr.id !2531
  %35 = ptrtoint %struct.ECLgraph** %g.addr to i64
  %36 = load %struct.ECLgraph*, %struct.ECLgraph** %g.addr, align 8, !dbg !2532, !dp.md.instr.id !2533
  %nlist11 = getelementptr inbounds %struct.ECLgraph, %struct.ECLgraph* %36, i32 0, i32 3, !dbg !2534, !dp.md.instr.id !2535
  %37 = ptrtoint i32** %nlist11 to i64
  call void @__dp_write(i32 373, i64 %37, i8* getelementptr inbounds ([12 x i8], [12 x i8]* @.str.36, i32 0, i32 0))
  store i32* null, i32** %nlist11, align 8, !dbg !2536, !dp.md.instr.id !2537
  %38 = ptrtoint %struct.ECLgraph** %g.addr to i64
  %39 = load %struct.ECLgraph*, %struct.ECLgraph** %g.addr, align 8, !dbg !2538, !dp.md.instr.id !2539
  %eweight12 = getelementptr inbounds %struct.ECLgraph, %struct.ECLgraph* %39, i32 0, i32 4, !dbg !2540, !dp.md.instr.id !2541
  %40 = ptrtoint i32** %eweight12 to i64
  call void @__dp_write(i32 376, i64 %40, i8* getelementptr inbounds ([12 x i8], [12 x i8]* @.str.36, i32 0, i32 0))
  store i32* null, i32** %eweight12, align 8, !dbg !2542, !dp.md.instr.id !2543
  call void @__dp_report_bb(i32 24)
  call void @__dp_func_exit(i32 16490, i32 0), !dbg !2544
  ret void, !dbg !2544, !dp.md.instr.id !2545
}

; Function Attrs: noinline norecurse optnone uwtable
define i32 @main(i32 %argc, i8** %argv) #6 !dbg !2546 {
entry:
  call void @__dp_func_entry(i32 32836, i32 1), !dp.md.instr.id !2549
  %__dp_bb131 = alloca i32, align 4
  store i32 0, i32* %__dp_bb131, align 4
  %__dp_bb130 = alloca i32, align 4
  store i32 0, i32* %__dp_bb130, align 4
  %__dp_bb129 = alloca i32, align 4
  store i32 0, i32* %__dp_bb129, align 4
  %__dp_bb128 = alloca i32, align 4
  store i32 0, i32* %__dp_bb128, align 4
  %__dp_bb127 = alloca i32, align 4
  store i32 0, i32* %__dp_bb127, align 4
  %__dp_bb126 = alloca i32, align 4
  store i32 0, i32* %__dp_bb126, align 4
  %__dp_bb125 = alloca i32, align 4
  store i32 0, i32* %__dp_bb125, align 4
  %__dp_bb124 = alloca i32, align 4
  store i32 0, i32* %__dp_bb124, align 4
  %__dp_bb123 = alloca i32, align 4
  store i32 0, i32* %__dp_bb123, align 4
  %__dp_bb = alloca i32, align 4
  store i32 0, i32* %__dp_bb, align 4
  %retval = alloca i32, align 4, !dp.md.instr.id !2550
  %0 = ptrtoint i32* %retval to i64, !dp.md.instr.id !2551
  %argc.addr = alloca i32, align 4, !dp.md.instr.id !2552
  %1 = ptrtoint i32* %argc.addr to i64, !dp.md.instr.id !2553
  %argv.addr = alloca i8**, align 8, !dp.md.instr.id !2554
  %2 = ptrtoint i8*** %argv.addr to i64, !dp.md.instr.id !2555
  %g = alloca %struct.ECLgraph, align 8, !dp.md.instr.id !2556
  %3 = ptrtoint %struct.ECLgraph* %g to i64, !dp.md.instr.id !2557
  call void @__dp_alloca(i32 32836, i8* getelementptr inbounds ([2 x i8], [2 x i8]* @.str.37, i32 0, i32 0), i64 %3, i64 %3, i64 0, i64 1), !dp.md.instr.id !2558
  %degree = alloca i32*, align 8, !dp.md.instr.id !2559
  %4 = ptrtoint i32** %degree to i64, !dp.md.instr.id !2560
  %i = alloca i32, align 4, !dp.md.instr.id !2561
  %5 = ptrtoint i32* %i to i64, !dp.md.instr.id !2562
  %threadCount = alloca i32, align 4, !dp.md.instr.id !2563
  %6 = ptrtoint i32* %threadCount to i64, !dp.md.instr.id !2564
  %countInt = alloca i32, align 4, !dp.md.instr.id !2565
  %7 = ptrtoint i32* %countInt to i64, !dp.md.instr.id !2566
  %init_score = alloca float, align 4, !dp.md.instr.id !2567
  %8 = ptrtoint float* %init_score to i64, !dp.md.instr.id !2568
  call void @__dp_alloca(i32 32836, i8* getelementptr inbounds ([11 x i8], [11 x i8]* @.str.91, i32 0, i32 0), i64 %8, i64 %8, i64 4, i64 1), !dp.md.instr.id !2569
  %scores = alloca float*, align 8, !dp.md.instr.id !2570
  %9 = ptrtoint float** %scores to i64, !dp.md.instr.id !2571
  %runtime = alloca double, align 8, !dp.md.instr.id !2572
  %10 = ptrtoint double* %runtime to i64, !dp.md.instr.id !2573
  %agg.tmp = alloca %struct.ECLgraph, align 8, !dp.md.instr.id !2574
  %11 = ptrtoint %struct.ECLgraph* %agg.tmp to i64, !dp.md.instr.id !2575
  call void @__dp_alloca(i32 32836, i8* getelementptr inbounds ([8 x i8], [8 x i8]* @.str.94, i32 0, i32 0), i64 %11, i64 %11, i64 0, i64 1), !dp.md.instr.id !2576
  %base_score = alloca float, align 4, !dp.md.instr.id !2577
  %12 = ptrtoint float* %base_score to i64, !dp.md.instr.id !2578
  %incomming_sums = alloca float*, align 8, !dp.md.instr.id !2579
  %13 = ptrtoint float** %incomming_sums to i64, !dp.md.instr.id !2580
  %i56 = alloca i32, align 4, !dp.md.instr.id !2581
  %14 = ptrtoint i32* %i56 to i64, !dp.md.instr.id !2582
  %error = alloca double, align 8, !dp.md.instr.id !2583
  %15 = ptrtoint double* %error to i64, !dp.md.instr.id !2584
  %src = alloca i32, align 4, !dp.md.instr.id !2585
  %16 = ptrtoint i32* %src to i64, !dp.md.instr.id !2586
  %outgoing = alloca float, align 4, !dp.md.instr.id !2587
  %17 = ptrtoint float* %outgoing to i64, !dp.md.instr.id !2588
  %i76 = alloca i32, align 4, !dp.md.instr.id !2589
  %18 = ptrtoint i32* %i76 to i64, !dp.md.instr.id !2590
  %i98 = alloca i32, align 4, !dp.md.instr.id !2591
  %19 = ptrtoint i32* %i98 to i64, !dp.md.instr.id !2592
  %new_score = alloca float, align 4, !dp.md.instr.id !2593
  %20 = ptrtoint float* %new_score to i64, !dp.md.instr.id !2594
  %21 = ptrtoint i32* %retval to i64
  store i32 0, i32* %retval, align 4, !dp.md.instr.id !2595
  %22 = ptrtoint i32* %argc.addr to i64
  store i32 %argc, i32* %argc.addr, align 4, !dp.md.instr.id !2596
  call void @llvm.dbg.declare(metadata i32* %argc.addr, metadata !2597, metadata !DIExpression()), !dbg !2598, !dp.md.instr.id !2599
  %23 = ptrtoint i8*** %argv.addr to i64
  store i8** %argv, i8*** %argv.addr, align 8, !dp.md.instr.id !2600
  call void @llvm.dbg.declare(metadata i8*** %argv.addr, metadata !2601, metadata !DIExpression()), !dbg !2602, !dp.md.instr.id !2603
  call void @__dp_call(i32 32837), !dbg !2604
  %call = call i32 (i8*, ...) @printf(i8* getelementptr inbounds ([24 x i8], [24 x i8]* @.str.16, i64 0, i64 0), i8* getelementptr inbounds ([75 x i8], [75 x i8]* @.str.17, i64 0, i64 0)), !dbg !2604, !dp.md.instr.id !2605
  call void @__dp_call(i32 32838), !dbg !2606
  %call1 = call i32 (i8*, ...) @printf(i8* getelementptr inbounds ([40 x i8], [40 x i8]* @.str.18, i64 0, i64 0)), !dbg !2606, !dp.md.instr.id !2607
  %24 = ptrtoint i32* %argc.addr to i64
  %25 = load i32, i32* %argc.addr, align 4, !dbg !2608, !dp.md.instr.id !2610
  %cmp = icmp ne i32 %25, 2, !dbg !2611, !dp.md.instr.id !2612
  call void @__dp_report_bb(i32 32)
  br i1 %cmp, label %land.lhs.true, label %if.end, !dbg !2613, !dp.md.instr.id !2614

land.lhs.true:                                    ; preds = %entry
  %26 = ptrtoint i32* %argc.addr to i64
  %27 = load i32, i32* %argc.addr, align 4, !dbg !2615, !dp.md.instr.id !2616
  %cmp2 = icmp ne i32 %27, 3, !dbg !2617, !dp.md.instr.id !2618
  call void @__dp_report_bb(i32 26)
  br i1 %cmp2, label %if.then, label %if.end, !dbg !2619, !dp.md.instr.id !2620

if.then:                                          ; preds = %land.lhs.true
  %28 = ptrtoint i8*** %argv.addr to i64
  %29 = load i8**, i8*** %argv.addr, align 8, !dbg !2621, !dp.md.instr.id !2623
  %arrayidx = getelementptr inbounds i8*, i8** %29, i64 0, !dbg !2621, !dp.md.instr.id !2624
  %30 = ptrtoint i8** %arrayidx to i64
  call void @__dp_read(i32 457, i64 %30, i8* getelementptr inbounds ([15 x i8], [15 x i8]* @.str.101, i32 0, i32 0))
  %31 = load i8*, i8** %arrayidx, align 8, !dbg !2621, !dp.md.instr.id !2625
  call void @__dp_call(i32 32840), !dbg !2626
  %call3 = call i32 (i8*, ...) @printf(i8* getelementptr inbounds ([47 x i8], [47 x i8]* @.str.19, i64 0, i64 0), i8* %31), !dbg !2626, !dp.md.instr.id !2627
  call void @__dp_finalize(i32 32840), !dbg !2628
  call void @exit(i32 -1) #13, !dbg !2628, !dp.md.instr.id !2629
  call void @__dp_report_bb(i32 27)
  unreachable, !dbg !2628, !dp.md.instr.id !2630

if.end:                                           ; preds = %land.lhs.true, %entry
  call void @llvm.dbg.declare(metadata %struct.ECLgraph* %g, metadata !2631, metadata !DIExpression()), !dbg !2632, !dp.md.instr.id !2633
  %32 = ptrtoint i8*** %argv.addr to i64
  %33 = load i8**, i8*** %argv.addr, align 8, !dbg !2634, !dp.md.instr.id !2635
  %arrayidx4 = getelementptr inbounds i8*, i8** %33, i64 1, !dbg !2634, !dp.md.instr.id !2636
  %34 = ptrtoint i8** %arrayidx4 to i64
  call void @__dp_read(i32 464, i64 %34, i8* getelementptr inbounds ([15 x i8], [15 x i8]* @.str.101, i32 0, i32 0))
  %35 = load i8*, i8** %arrayidx4, align 8, !dbg !2634, !dp.md.instr.id !2637
  call void @__dp_call(i32 32843), !dbg !2638
  call void @_Z12readECLgraphPKc(%struct.ECLgraph* sret align 8 %g, i8* %35), !dbg !2638, !dp.md.instr.id !2639
  %36 = ptrtoint i8*** %argv.addr to i64
  %37 = load i8**, i8*** %argv.addr, align 8, !dbg !2640, !dp.md.instr.id !2641
  %arrayidx5 = getelementptr inbounds i8*, i8** %37, i64 1, !dbg !2640, !dp.md.instr.id !2642
  %38 = ptrtoint i8** %arrayidx5 to i64
  call void @__dp_read(i32 468, i64 %38, i8* getelementptr inbounds ([15 x i8], [15 x i8]* @.str.101, i32 0, i32 0))
  %39 = load i8*, i8** %arrayidx5, align 8, !dbg !2640, !dp.md.instr.id !2643
  call void @__dp_call(i32 32844), !dbg !2644
  %call6 = call i32 (i8*, ...) @printf(i8* getelementptr inbounds ([11 x i8], [11 x i8]* @.str.20, i64 0, i64 0), i8* %39), !dbg !2644, !dp.md.instr.id !2645
  %nodes = getelementptr inbounds %struct.ECLgraph, %struct.ECLgraph* %g, i32 0, i32 0, !dbg !2646, !dp.md.instr.id !2647
  %40 = ptrtoint i32* %nodes to i64
  call void @__dp_read(i32 471, i64 %40, i8* getelementptr inbounds ([12 x i8], [12 x i8]* @.str.36, i32 0, i32 0))
  %41 = load i32, i32* %nodes, align 8, !dbg !2646, !dp.md.instr.id !2648
  call void @__dp_call(i32 32845), !dbg !2649
  %call7 = call i32 (i8*, ...) @printf(i8* getelementptr inbounds ([11 x i8], [11 x i8]* @.str.21, i64 0, i64 0), i32 %41), !dbg !2649, !dp.md.instr.id !2650
  %edges = getelementptr inbounds %struct.ECLgraph, %struct.ECLgraph* %g, i32 0, i32 1, !dbg !2651, !dp.md.instr.id !2652
  %42 = ptrtoint i32* %edges to i64
  call void @__dp_read(i32 474, i64 %42, i8* getelementptr inbounds ([12 x i8], [12 x i8]* @.str.36, i32 0, i32 0))
  %43 = load i32, i32* %edges, align 4, !dbg !2651, !dp.md.instr.id !2653
  call void @__dp_call(i32 32846), !dbg !2654
  %call8 = call i32 (i8*, ...) @printf(i8* getelementptr inbounds ([11 x i8], [11 x i8]* @.str.22, i64 0, i64 0), i32 %43), !dbg !2654, !dp.md.instr.id !2655
  %edges9 = getelementptr inbounds %struct.ECLgraph, %struct.ECLgraph* %g, i32 0, i32 1, !dbg !2656, !dp.md.instr.id !2657
  %44 = ptrtoint i32* %edges9 to i64
  call void @__dp_read(i32 477, i64 %44, i8* getelementptr inbounds ([12 x i8], [12 x i8]* @.str.36, i32 0, i32 0))
  %45 = load i32, i32* %edges9, align 4, !dbg !2656, !dp.md.instr.id !2658
  %conv = sitofp i32 %45 to double, !dbg !2659, !dp.md.instr.id !2660
  %mul = fmul double 1.000000e+00, %conv, !dbg !2661, !dp.md.instr.id !2662
  %nodes10 = getelementptr inbounds %struct.ECLgraph, %struct.ECLgraph* %g, i32 0, i32 0, !dbg !2663, !dp.md.instr.id !2664
  %46 = ptrtoint i32* %nodes10 to i64
  call void @__dp_read(i32 481, i64 %46, i8* getelementptr inbounds ([12 x i8], [12 x i8]* @.str.36, i32 0, i32 0))
  %47 = load i32, i32* %nodes10, align 8, !dbg !2663, !dp.md.instr.id !2665
  %conv11 = sitofp i32 %47 to double, !dbg !2666, !dp.md.instr.id !2667
  %div = fdiv double %mul, %conv11, !dbg !2668, !dp.md.instr.id !2669
  call void @__dp_call(i32 32847), !dbg !2670
  %call12 = call i32 (i8*, ...) @printf(i8* getelementptr inbounds ([18 x i8], [18 x i8]* @.str.23, i64 0, i64 0), double %div), !dbg !2670, !dp.md.instr.id !2671
  call void @llvm.dbg.declare(metadata i32** %degree, metadata !2672, metadata !DIExpression()), !dbg !2673, !dp.md.instr.id !2674
  %nodes13 = getelementptr inbounds %struct.ECLgraph, %struct.ECLgraph* %g, i32 0, i32 0, !dbg !2675, !dp.md.instr.id !2676
  %48 = ptrtoint i32* %nodes13 to i64
  call void @__dp_read(i32 487, i64 %48, i8* getelementptr inbounds ([12 x i8], [12 x i8]* @.str.36, i32 0, i32 0))
  %49 = load i32, i32* %nodes13, align 8, !dbg !2675, !dp.md.instr.id !2677
  %conv14 = sext i32 %49 to i64, !dbg !2678, !dp.md.instr.id !2679
  %mul15 = mul i64 %conv14, 4, !dbg !2680, !dp.md.instr.id !2681
  %call16 = call noalias i8* @malloc(i64 %mul15) #9, !dbg !2682, !dp.md.instr.id !2683
  %50 = ptrtoint i8* %call16 to i64, !dp.md.instr.id !2684
  call void @__dp_new(i32 32850, i64 %50, i64 %50, i64 %mul15), !dbg !2685, !dp.md.instr.id !2686
  %51 = bitcast i8* %call16 to i32*, !dbg !2685, !dp.md.instr.id !2687
  %52 = ptrtoint i32** %degree to i64
  store i32* %51, i32** %degree, align 8, !dbg !2673, !dp.md.instr.id !2688
  call void @llvm.dbg.declare(metadata i32* %i, metadata !2689, metadata !DIExpression()), !dbg !2691, !dp.md.instr.id !2692
  %53 = ptrtoint i32* %i to i64
  store i32 0, i32* %i, align 4, !dbg !2691, !dp.md.instr.id !2693
  call void @__dp_report_bb(i32 25)
  br label %for.cond, !dbg !2694, !dp.md.instr.id !2695

for.cond:                                         ; preds = %for.inc, %if.end
  call void @__dp_loop_entry(i32 32851, i32 0), !dp.md.instr.id !2696
  %54 = ptrtoint i32* %i to i64
  %55 = load i32, i32* %i, align 4, !dbg !2697, !dp.md.instr.id !2699
  %nodes17 = getelementptr inbounds %struct.ECLgraph, %struct.ECLgraph* %g, i32 0, i32 0, !dbg !2700, !dp.md.instr.id !2701
  %56 = ptrtoint i32* %nodes17 to i64
  call void @__dp_read(i32 501, i64 %56, i8* getelementptr inbounds ([12 x i8], [12 x i8]* @.str.36, i32 0, i32 0))
  %57 = load i32, i32* %nodes17, align 8, !dbg !2700, !dp.md.instr.id !2702
  %cmp18 = icmp slt i32 %55, %57, !dbg !2703, !dp.md.instr.id !2704
  call void @__dp_report_bb(i32 34)
  %58 = load i32, i32* %__dp_bb124, align 4
  call void @__dp_report_bb_pair(i32 %58, i32 58)
  br i1 %cmp18, label %for.body, label %for.end, !dbg !2705, !dp.md.instr.id !2706

for.body:                                         ; preds = %for.cond
  call void @__dp_loop_incr(i32 5)
  %nindex = getelementptr inbounds %struct.ECLgraph, %struct.ECLgraph* %g, i32 0, i32 2, !dbg !2707, !dp.md.instr.id !2709
  %59 = ptrtoint i32** %nindex to i64
  call void @__dp_read(i32 505, i64 %59, i8* getelementptr inbounds ([12 x i8], [12 x i8]* @.str.36, i32 0, i32 0))
  %60 = load i32*, i32** %nindex, align 8, !dbg !2707, !dp.md.instr.id !2710
  %61 = ptrtoint i32* %i to i64
  %62 = load i32, i32* %i, align 4, !dbg !2711, !dp.md.instr.id !2712
  %add = add nsw i32 %62, 1, !dbg !2713, !dp.md.instr.id !2714
  %idxprom = sext i32 %add to i64, !dbg !2715, !dp.md.instr.id !2716
  %arrayidx19 = getelementptr inbounds i32, i32* %60, i64 %idxprom, !dbg !2715, !dp.md.instr.id !2717
  %63 = ptrtoint i32* %arrayidx19 to i64
  call void @__dp_read(i32 510, i64 %63, i8* getelementptr inbounds ([22 x i8], [22 x i8]* @.str.102, i32 0, i32 0))
  %64 = load i32, i32* %arrayidx19, align 4, !dbg !2715, !dp.md.instr.id !2718
  %nindex20 = getelementptr inbounds %struct.ECLgraph, %struct.ECLgraph* %g, i32 0, i32 2, !dbg !2719, !dp.md.instr.id !2720
  %65 = ptrtoint i32** %nindex20 to i64
  call void @__dp_read(i32 512, i64 %65, i8* getelementptr inbounds ([12 x i8], [12 x i8]* @.str.36, i32 0, i32 0))
  %66 = load i32*, i32** %nindex20, align 8, !dbg !2719, !dp.md.instr.id !2721
  %67 = ptrtoint i32* %i to i64
  %68 = load i32, i32* %i, align 4, !dbg !2722, !dp.md.instr.id !2723
  %idxprom21 = sext i32 %68 to i64, !dbg !2724, !dp.md.instr.id !2725
  %arrayidx22 = getelementptr inbounds i32, i32* %66, i64 %idxprom21, !dbg !2724, !dp.md.instr.id !2726
  %69 = ptrtoint i32* %arrayidx22 to i64
  call void @__dp_read(i32 516, i64 %69, i8* getelementptr inbounds ([22 x i8], [22 x i8]* @.str.102, i32 0, i32 0))
  %70 = load i32, i32* %arrayidx22, align 4, !dbg !2724, !dp.md.instr.id !2727
  %sub = sub nsw i32 %64, %70, !dbg !2728, !dp.md.instr.id !2729
  %71 = ptrtoint i32** %degree to i64
  %72 = load i32*, i32** %degree, align 8, !dbg !2730, !dp.md.instr.id !2731
  %73 = ptrtoint i32* %i to i64
  %74 = load i32, i32* %i, align 4, !dbg !2732, !dp.md.instr.id !2733
  %idxprom23 = sext i32 %74 to i64, !dbg !2730, !dp.md.instr.id !2734
  %arrayidx24 = getelementptr inbounds i32, i32* %72, i64 %idxprom23, !dbg !2730, !dp.md.instr.id !2735
  %75 = ptrtoint i32* %arrayidx24 to i64
  call void @__dp_write(i32 522, i64 %75, i8* getelementptr inbounds ([17 x i8], [17 x i8]* @.str.103, i32 0, i32 0))
  store i32 %sub, i32* %arrayidx24, align 4, !dbg !2736, !dp.md.instr.id !2737
  call void @__dp_report_bb(i32 36)
  %76 = load i32, i32* %__dp_bb124, align 4
  call void @__dp_report_bb_pair(i32 %76, i32 60)
  br label %for.inc, !dbg !2738, !dp.md.instr.id !2739

for.inc:                                          ; preds = %for.body
  %77 = ptrtoint i32* %i to i64
  %78 = load i32, i32* %i, align 4, !dbg !2740, !dp.md.instr.id !2741
  %inc = add nsw i32 %78, 1, !dbg !2740, !dp.md.instr.id !2742
  %79 = ptrtoint i32* %i to i64
  store i32 %inc, i32* %i, align 4, !dbg !2740, !dp.md.instr.id !2743
  call void @__dp_report_bb(i32 35)
  %80 = load i32, i32* %__dp_bb124, align 4
  call void @__dp_report_bb_pair(i32 %80, i32 59)
  store i32 1, i32* %__dp_bb124, align 4
  br label %for.cond, !dbg !2744, !llvm.loop !2745, !dp.md.instr.id !2747

for.end:                                          ; preds = %for.cond
  call void @__dp_loop_exit(i32 32855, i32 0), !dp.md.instr.id !2748
  call void @llvm.dbg.declare(metadata i32* %threadCount, metadata !2749, metadata !DIExpression()), !dbg !2750, !dp.md.instr.id !2751
  call void @__dp_call(i32 32855), !dbg !2752
  %call25 = call i32 @_ZNSt6thread20hardware_concurrencyEv() #9, !dbg !2752, !dp.md.instr.id !2753
  %81 = ptrtoint i32* %threadCount to i64
  store i32 %call25, i32* %threadCount, align 4, !dbg !2750, !dp.md.instr.id !2754
  %82 = ptrtoint i32* %argc.addr to i64
  %83 = load i32, i32* %argc.addr, align 4, !dbg !2755, !dp.md.instr.id !2757
  %cmp26 = icmp eq i32 %83, 3, !dbg !2758, !dp.md.instr.id !2759
  call void @__dp_report_bb(i32 33)
  br i1 %cmp26, label %if.then27, label %if.end32, !dbg !2760, !dp.md.instr.id !2761

if.then27:                                        ; preds = %for.end
  call void @llvm.dbg.declare(metadata i32* %countInt, metadata !2762, metadata !DIExpression()), !dbg !2764, !dp.md.instr.id !2765
  %84 = ptrtoint i8*** %argv.addr to i64
  %85 = load i8**, i8*** %argv.addr, align 8, !dbg !2766, !dp.md.instr.id !2767
  %arrayidx28 = getelementptr inbounds i8*, i8** %85, i64 2, !dbg !2766, !dp.md.instr.id !2768
  %86 = ptrtoint i8** %arrayidx28 to i64
  call void @__dp_read(i32 538, i64 %86, i8* getelementptr inbounds ([15 x i8], [15 x i8]* @.str.101, i32 0, i32 0))
  %87 = load i8*, i8** %arrayidx28, align 8, !dbg !2766, !dp.md.instr.id !2769
  call void @__dp_call(i32 32857), !dbg !2770
  %call29 = call i32 @atoi(i8* %87) #14, !dbg !2770, !dp.md.instr.id !2771
  %88 = ptrtoint i32* %countInt to i64
  store i32 %call29, i32* %countInt, align 4, !dbg !2764, !dp.md.instr.id !2772
  %89 = ptrtoint i32* %countInt to i64
  %90 = load i32, i32* %countInt, align 4, !dbg !2764, !dp.md.instr.id !2773
  %tobool = icmp ne i32 %90, 0, !dbg !2764, !dp.md.instr.id !2774
  call void @__dp_report_bb(i32 40)
  br i1 %tobool, label %if.then30, label %if.end31, !dbg !2775, !dp.md.instr.id !2776

if.then30:                                        ; preds = %if.then27
  %91 = ptrtoint i32* %countInt to i64
  %92 = load i32, i32* %countInt, align 4, !dbg !2777, !dp.md.instr.id !2778
  %93 = ptrtoint i32* %threadCount to i64
  store i32 %92, i32* %threadCount, align 4, !dbg !2779, !dp.md.instr.id !2780
  call void @__dp_report_bb(i32 42)
  store i32 1, i32* %__dp_bb126, align 4
  br label %if.end31, !dbg !2781, !dp.md.instr.id !2782

if.end31:                                         ; preds = %if.then30, %if.then27
  br label %if.end32, !dbg !2764, !dp.md.instr.id !2783

if.end32:                                         ; preds = %if.end31, %for.end
  %94 = ptrtoint i32* %threadCount to i64
  %95 = load i32, i32* %threadCount, align 4, !dbg !2784, !dp.md.instr.id !2785
  call void @__dp_call(i32 32859), !dbg !2786
  %call33 = call i32 (i8*, ...) @printf(i8* getelementptr inbounds ([14 x i8], [14 x i8]* @.str.24, i64 0, i64 0), i32 %95), !dbg !2786, !dp.md.instr.id !2787
  call void @llvm.dbg.declare(metadata float* %init_score, metadata !2788, metadata !DIExpression()), !dbg !2789, !dp.md.instr.id !2790
  %nodes34 = getelementptr inbounds %struct.ECLgraph, %struct.ECLgraph* %g, i32 0, i32 0, !dbg !2791, !dp.md.instr.id !2792
  %96 = ptrtoint i32* %nodes34 to i64
  call void @__dp_read(i32 552, i64 %96, i8* getelementptr inbounds ([12 x i8], [12 x i8]* @.str.36, i32 0, i32 0))
  %97 = load i32, i32* %nodes34, align 8, !dbg !2791, !dp.md.instr.id !2793
  %conv35 = sitofp i32 %97 to float, !dbg !2794, !dp.md.instr.id !2795
  %div36 = fdiv float 1.000000e+00, %conv35, !dbg !2796, !dp.md.instr.id !2797
  %98 = ptrtoint float* %init_score to i64
  call void @__dp_write(i32 555, i64 %98, i8* getelementptr inbounds ([11 x i8], [11 x i8]* @.str.91, i32 0, i32 0))
  store float %div36, float* %init_score, align 4, !dbg !2789, !dp.md.instr.id !2798
  call void @llvm.dbg.declare(metadata float** %scores, metadata !2799, metadata !DIExpression()), !dbg !2800, !dp.md.instr.id !2801
  %nodes37 = getelementptr inbounds %struct.ECLgraph, %struct.ECLgraph* %g, i32 0, i32 0, !dbg !2802, !dp.md.instr.id !2803
  %99 = ptrtoint i32* %nodes37 to i64
  call void @__dp_read(i32 558, i64 %99, i8* getelementptr inbounds ([12 x i8], [12 x i8]* @.str.36, i32 0, i32 0))
  %100 = load i32, i32* %nodes37, align 8, !dbg !2802, !dp.md.instr.id !2804
  %conv38 = sext i32 %100 to i64, !dbg !2805, !dp.md.instr.id !2806
  %mul39 = mul i64 %conv38, 4, !dbg !2807, !dp.md.instr.id !2808
  %call40 = call noalias i8* @malloc(i64 %mul39) #9, !dbg !2809, !dp.md.instr.id !2810
  %101 = ptrtoint i8* %call40 to i64, !dp.md.instr.id !2811
  call void @__dp_new(i32 32863, i64 %101, i64 %101, i64 %mul39), !dbg !2812, !dp.md.instr.id !2813
  %102 = bitcast i8* %call40 to float*, !dbg !2812, !dp.md.instr.id !2814
  %103 = ptrtoint float** %scores to i64
  store float* %102, float** %scores, align 8, !dbg !2800, !dp.md.instr.id !2815
  %104 = ptrtoint float** %scores to i64
  %105 = load float*, float** %scores, align 8, !dbg !2816, !dp.md.instr.id !2817
  %106 = ptrtoint float** %scores to i64
  %107 = load float*, float** %scores, align 8, !dbg !2818, !dp.md.instr.id !2819
  %nodes41 = getelementptr inbounds %struct.ECLgraph, %struct.ECLgraph* %g, i32 0, i32 0, !dbg !2820, !dp.md.instr.id !2821
  %108 = ptrtoint i32* %nodes41 to i64
  call void @__dp_read(i32 569, i64 %108, i8* getelementptr inbounds ([12 x i8], [12 x i8]* @.str.36, i32 0, i32 0))
  %109 = load i32, i32* %nodes41, align 8, !dbg !2820, !dp.md.instr.id !2822
  %idx.ext = sext i32 %109 to i64, !dbg !2823, !dp.md.instr.id !2824
  %add.ptr = getelementptr inbounds float, float* %107, i64 %idx.ext, !dbg !2823, !dp.md.instr.id !2825
  call void @__dp_call(i32 32864), !dbg !2826
  call void @_ZSt4fillIPffEvT_S1_RKT0_(float* %105, float* %add.ptr, float* nonnull align 4 dereferenceable(4) %init_score), !dbg !2826, !dp.md.instr.id !2827
  call void @llvm.dbg.declare(metadata double* %runtime, metadata !2828, metadata !DIExpression()), !dbg !2829, !dp.md.instr.id !2830
  %110 = bitcast %struct.ECLgraph* %agg.tmp to i8*, !dbg !2831, !dp.md.instr.id !2832
  %111 = bitcast %struct.ECLgraph* %g to i8*, !dbg !2831, !dp.md.instr.id !2833
  call void @__dp_call(i32 32866), !dbg !2831
  call void @llvm.memcpy.p0i8.p0i8.i64(i8* align 8 %110, i8* align 8 %111, i64 32, i1 false), !dbg !2831, !dp.md.instr.id !2834
  %112 = ptrtoint float** %scores to i64
  %113 = load float*, float** %scores, align 8, !dbg !2835, !dp.md.instr.id !2836
  %114 = ptrtoint i32** %degree to i64
  %115 = load i32*, i32** %degree, align 8, !dbg !2837, !dp.md.instr.id !2838
  %116 = ptrtoint i32* %threadCount to i64
  %117 = load i32, i32* %threadCount, align 4, !dbg !2839, !dp.md.instr.id !2840
  call void @__dp_call(i32 32866), !dbg !2841
  %call42 = call double @_ZL6PR_CPU8ECLgraphPfPii(%struct.ECLgraph* byval(%struct.ECLgraph) align 8 %agg.tmp, float* %113, i32* %115, i32 %117), !dbg !2841, !dp.md.instr.id !2842
  %118 = ptrtoint double* %runtime to i64
  store double %call42, double* %runtime, align 8, !dbg !2829, !dp.md.instr.id !2843
  %119 = ptrtoint double* %runtime to i64
  %120 = load double, double* %runtime, align 8, !dbg !2844, !dp.md.instr.id !2845
  call void @__dp_call(i32 32868), !dbg !2846
  %call43 = call i32 (i8*, ...) @printf(i8* getelementptr inbounds ([21 x i8], [21 x i8]* @.str.25, i64 0, i64 0), double %120), !dbg !2846, !dp.md.instr.id !2847
  %edges44 = getelementptr inbounds %struct.ECLgraph, %struct.ECLgraph* %g, i32 0, i32 1, !dbg !2848, !dp.md.instr.id !2849
  %121 = ptrtoint i32* %edges44 to i64
  call void @__dp_read(i32 585, i64 %121, i8* getelementptr inbounds ([12 x i8], [12 x i8]* @.str.36, i32 0, i32 0))
  %122 = load i32, i32* %edges44, align 4, !dbg !2848, !dp.md.instr.id !2850
  %conv45 = sitofp i32 %122 to double, !dbg !2851, !dp.md.instr.id !2852
  %mul46 = fmul double 1.000000e-09, %conv45, !dbg !2853, !dp.md.instr.id !2854
  %123 = ptrtoint double* %runtime to i64
  %124 = load double, double* %runtime, align 8, !dbg !2855, !dp.md.instr.id !2856
  %div47 = fdiv double %mul46, %124, !dbg !2857, !dp.md.instr.id !2858
  call void @__dp_call(i32 32869), !dbg !2859
  %call48 = call i32 (i8*, ...) @printf(i8* getelementptr inbounds ([30 x i8], [30 x i8]* @.str.26, i64 0, i64 0), double %div47), !dbg !2859, !dp.md.instr.id !2860
  call void @llvm.dbg.declare(metadata float* %base_score, metadata !2861, metadata !DIExpression()), !dbg !2862, !dp.md.instr.id !2863
  %nodes49 = getelementptr inbounds %struct.ECLgraph, %struct.ECLgraph* %g, i32 0, i32 0, !dbg !2864, !dp.md.instr.id !2865
  %125 = ptrtoint i32* %nodes49 to i64
  call void @__dp_read(i32 593, i64 %125, i8* getelementptr inbounds ([12 x i8], [12 x i8]* @.str.36, i32 0, i32 0))
  %126 = load i32, i32* %nodes49, align 8, !dbg !2864, !dp.md.instr.id !2866
  %conv50 = sitofp i32 %126 to float, !dbg !2867, !dp.md.instr.id !2868
  %div51 = fdiv float 0x3FC3333300000000, %conv50, !dbg !2869, !dp.md.instr.id !2870
  %127 = ptrtoint float* %base_score to i64
  store float %div51, float* %base_score, align 4, !dbg !2862, !dp.md.instr.id !2871
  call void @llvm.dbg.declare(metadata float** %incomming_sums, metadata !2872, metadata !DIExpression()), !dbg !2873, !dp.md.instr.id !2874
  %nodes52 = getelementptr inbounds %struct.ECLgraph, %struct.ECLgraph* %g, i32 0, i32 0, !dbg !2875, !dp.md.instr.id !2876
  %128 = ptrtoint i32* %nodes52 to i64
  call void @__dp_read(i32 599, i64 %128, i8* getelementptr inbounds ([12 x i8], [12 x i8]* @.str.36, i32 0, i32 0))
  %129 = load i32, i32* %nodes52, align 8, !dbg !2875, !dp.md.instr.id !2877
  %conv53 = sext i32 %129 to i64, !dbg !2878, !dp.md.instr.id !2879
  %mul54 = mul i64 %conv53, 4, !dbg !2880, !dp.md.instr.id !2881
  %call55 = call noalias i8* @malloc(i64 %mul54) #9, !dbg !2882, !dp.md.instr.id !2883
  %130 = ptrtoint i8* %call55 to i64, !dp.md.instr.id !2884
  call void @__dp_new(i32 32873, i64 %130, i64 %130, i64 %mul54), !dbg !2885, !dp.md.instr.id !2886
  %131 = bitcast i8* %call55 to float*, !dbg !2885, !dp.md.instr.id !2887
  %132 = ptrtoint float** %incomming_sums to i64
  store float* %131, float** %incomming_sums, align 8, !dbg !2873, !dp.md.instr.id !2888
  call void @llvm.dbg.declare(metadata i32* %i56, metadata !2889, metadata !DIExpression()), !dbg !2891, !dp.md.instr.id !2892
  %133 = ptrtoint i32* %i56 to i64
  store i32 0, i32* %i56, align 4, !dbg !2891, !dp.md.instr.id !2893
  call void @__dp_report_bb(i32 41)
  %134 = load i32, i32* %__dp_bb126, align 4
  call void @__dp_report_bb_pair(i32 %134, i32 64)
  br label %for.cond57, !dbg !2894, !dp.md.instr.id !2895

for.cond57:                                       ; preds = %for.inc63, %if.end32
  call void @__dp_loop_entry(i32 32874, i32 1), !dp.md.instr.id !2896
  %135 = ptrtoint i32* %i56 to i64
  %136 = load i32, i32* %i56, align 4, !dbg !2897, !dp.md.instr.id !2899
  %nodes58 = getelementptr inbounds %struct.ECLgraph, %struct.ECLgraph* %g, i32 0, i32 0, !dbg !2900, !dp.md.instr.id !2901
  %137 = ptrtoint i32* %nodes58 to i64
  call void @__dp_read(i32 613, i64 %137, i8* getelementptr inbounds ([12 x i8], [12 x i8]* @.str.36, i32 0, i32 0))
  %138 = load i32, i32* %nodes58, align 8, !dbg !2900, !dp.md.instr.id !2902
  %cmp59 = icmp slt i32 %136, %138, !dbg !2903, !dp.md.instr.id !2904
  call void @__dp_report_bb(i32 37)
  %139 = load i32, i32* %__dp_bb125, align 4
  call void @__dp_report_bb_pair(i32 %139, i32 61)
  br i1 %cmp59, label %for.body60, label %for.end65, !dbg !2905, !dp.md.instr.id !2906

for.body60:                                       ; preds = %for.cond57
  call void @__dp_loop_incr(i32 4)
  %140 = ptrtoint float** %incomming_sums to i64
  %141 = load float*, float** %incomming_sums, align 8, !dbg !2907, !dp.md.instr.id !2908
  %142 = ptrtoint i32* %i56 to i64
  %143 = load i32, i32* %i56, align 4, !dbg !2909, !dp.md.instr.id !2910
  %idxprom61 = sext i32 %143 to i64, !dbg !2907, !dp.md.instr.id !2911
  %arrayidx62 = getelementptr inbounds float, float* %141, i64 %idxprom61, !dbg !2907, !dp.md.instr.id !2912
  %144 = ptrtoint float* %arrayidx62 to i64
  call void @__dp_write(i32 620, i64 %144, i8* getelementptr inbounds ([25 x i8], [25 x i8]* @.str.104, i32 0, i32 0))
  store float 0.000000e+00, float* %arrayidx62, align 4, !dbg !2913, !dp.md.instr.id !2914
  call void @__dp_report_bb(i32 39)
  %145 = load i32, i32* %__dp_bb125, align 4
  call void @__dp_report_bb_pair(i32 %145, i32 63)
  br label %for.inc63, !dbg !2907, !dp.md.instr.id !2915

for.inc63:                                        ; preds = %for.body60
  %146 = ptrtoint i32* %i56 to i64
  %147 = load i32, i32* %i56, align 4, !dbg !2916, !dp.md.instr.id !2917
  %inc64 = add nsw i32 %147, 1, !dbg !2916, !dp.md.instr.id !2918
  %148 = ptrtoint i32* %i56 to i64
  store i32 %inc64, i32* %i56, align 4, !dbg !2916, !dp.md.instr.id !2919
  call void @__dp_report_bb(i32 38)
  %149 = load i32, i32* %__dp_bb125, align 4
  call void @__dp_report_bb_pair(i32 %149, i32 62)
  store i32 1, i32* %__dp_bb125, align 4
  br label %for.cond57, !dbg !2920, !llvm.loop !2921, !dp.md.instr.id !2923

for.end65:                                        ; preds = %for.cond57
  call void @__dp_loop_exit(i32 32875, i32 1), !dp.md.instr.id !2924
  call void @llvm.dbg.declare(metadata double* %error, metadata !2925, metadata !DIExpression()), !dbg !2926, !dp.md.instr.id !2927
  %150 = ptrtoint double* %error to i64
  store double 0.000000e+00, double* %error, align 8, !dbg !2926, !dp.md.instr.id !2928
  call void @llvm.dbg.declare(metadata i32* %src, metadata !2929, metadata !DIExpression()), !dbg !2931, !dp.md.instr.id !2932
  %151 = ptrtoint i32* %src to i64
  store i32 0, i32* %src, align 4, !dbg !2931, !dp.md.instr.id !2933
  call void @__dp_report_bb(i32 43)
  br label %for.cond66, !dbg !2934, !dp.md.instr.id !2935

for.cond66:                                       ; preds = %for.inc95, %for.end65
  call void @__dp_loop_entry(i32 32877, i32 2), !dp.md.instr.id !2936
  %152 = ptrtoint i32* %src to i64
  %153 = load i32, i32* %src, align 4, !dbg !2937, !dp.md.instr.id !2939
  %nodes67 = getelementptr inbounds %struct.ECLgraph, %struct.ECLgraph* %g, i32 0, i32 0, !dbg !2940, !dp.md.instr.id !2941
  %154 = ptrtoint i32* %nodes67 to i64
  call void @__dp_read(i32 635, i64 %154, i8* getelementptr inbounds ([12 x i8], [12 x i8]* @.str.36, i32 0, i32 0))
  %155 = load i32, i32* %nodes67, align 8, !dbg !2940, !dp.md.instr.id !2942
  %cmp68 = icmp slt i32 %153, %155, !dbg !2943, !dp.md.instr.id !2944
  call void @__dp_report_bb(i32 45)
  %156 = load i32, i32* %__dp_bb127, align 4
  call void @__dp_report_bb_pair(i32 %156, i32 65)
  br i1 %cmp68, label %for.body69, label %for.end97, !dbg !2945, !dp.md.instr.id !2946

for.body69:                                       ; preds = %for.cond66
  call void @__dp_loop_incr(i32 2)
  call void @llvm.dbg.declare(metadata float* %outgoing, metadata !2947, metadata !DIExpression()), !dbg !2949, !dp.md.instr.id !2950
  %157 = ptrtoint float** %scores to i64
  %158 = load float*, float** %scores, align 8, !dbg !2951, !dp.md.instr.id !2952
  %159 = ptrtoint i32* %src to i64
  %160 = load i32, i32* %src, align 4, !dbg !2953, !dp.md.instr.id !2954
  %idxprom70 = sext i32 %160 to i64, !dbg !2951, !dp.md.instr.id !2955
  %arrayidx71 = getelementptr inbounds float, float* %158, i64 %idxprom70, !dbg !2951, !dp.md.instr.id !2956
  %161 = ptrtoint float* %arrayidx71 to i64
  call void @__dp_read(i32 643, i64 %161, i8* getelementptr inbounds ([17 x i8], [17 x i8]* @.str.105, i32 0, i32 0))
  %162 = load float, float* %arrayidx71, align 4, !dbg !2951, !dp.md.instr.id !2957
  %163 = ptrtoint i32** %degree to i64
  %164 = load i32*, i32** %degree, align 8, !dbg !2958, !dp.md.instr.id !2959
  %165 = ptrtoint i32* %src to i64
  %166 = load i32, i32* %src, align 4, !dbg !2960, !dp.md.instr.id !2961
  %idxprom72 = sext i32 %166 to i64, !dbg !2958, !dp.md.instr.id !2962
  %arrayidx73 = getelementptr inbounds i32, i32* %164, i64 %idxprom72, !dbg !2958, !dp.md.instr.id !2963
  %167 = ptrtoint i32* %arrayidx73 to i64
  call void @__dp_read(i32 648, i64 %167, i8* getelementptr inbounds ([17 x i8], [17 x i8]* @.str.103, i32 0, i32 0))
  %168 = load i32, i32* %arrayidx73, align 4, !dbg !2958, !dp.md.instr.id !2964
  %conv74 = sitofp i32 %168 to float, !dbg !2958, !dp.md.instr.id !2965
  %div75 = fdiv float %162, %conv74, !dbg !2966, !dp.md.instr.id !2967
  %169 = ptrtoint float* %outgoing to i64
  store float %div75, float* %outgoing, align 4, !dbg !2949, !dp.md.instr.id !2968
  call void @llvm.dbg.declare(metadata i32* %i76, metadata !2969, metadata !DIExpression()), !dbg !2971, !dp.md.instr.id !2972
  %nindex77 = getelementptr inbounds %struct.ECLgraph, %struct.ECLgraph* %g, i32 0, i32 2, !dbg !2973, !dp.md.instr.id !2974
  %170 = ptrtoint i32** %nindex77 to i64
  call void @__dp_read(i32 654, i64 %170, i8* getelementptr inbounds ([12 x i8], [12 x i8]* @.str.36, i32 0, i32 0))
  %171 = load i32*, i32** %nindex77, align 8, !dbg !2973, !dp.md.instr.id !2975
  %172 = ptrtoint i32* %src to i64
  %173 = load i32, i32* %src, align 4, !dbg !2976, !dp.md.instr.id !2977
  %idxprom78 = sext i32 %173 to i64, !dbg !2978, !dp.md.instr.id !2979
  %arrayidx79 = getelementptr inbounds i32, i32* %171, i64 %idxprom78, !dbg !2978, !dp.md.instr.id !2980
  %174 = ptrtoint i32* %arrayidx79 to i64
  call void @__dp_read(i32 658, i64 %174, i8* getelementptr inbounds ([22 x i8], [22 x i8]* @.str.102, i32 0, i32 0))
  %175 = load i32, i32* %arrayidx79, align 4, !dbg !2978, !dp.md.instr.id !2981
  %176 = ptrtoint i32* %i76 to i64
  store i32 %175, i32* %i76, align 4, !dbg !2971, !dp.md.instr.id !2982
  call void @__dp_report_bb(i32 47)
  %177 = load i32, i32* %__dp_bb127, align 4
  call void @__dp_report_bb_pair(i32 %177, i32 67)
  %178 = load i32, i32* %__dp_bb128, align 4
  call void @__dp_report_bb_pair(i32 %178, i32 69)
  store i32 1, i32* %__dp_bb128, align 4
  %179 = load i32, i32* %__dp_bb129, align 4
  call void @__dp_report_bb_pair(i32 %179, i32 70)
  %180 = load i32, i32* %__dp_bb131, align 4
  call void @__dp_report_bb_pair(i32 %180, i32 74)
  br label %for.cond80, !dbg !2983, !dp.md.instr.id !2984

for.cond80:                                       ; preds = %for.inc92, %for.body69
  call void @__dp_loop_entry(i32 32879, i32 3), !dp.md.instr.id !2985
  %181 = ptrtoint i32* %i76 to i64
  %182 = load i32, i32* %i76, align 4, !dbg !2986, !dp.md.instr.id !2988
  %nindex81 = getelementptr inbounds %struct.ECLgraph, %struct.ECLgraph* %g, i32 0, i32 2, !dbg !2989, !dp.md.instr.id !2990
  %183 = ptrtoint i32** %nindex81 to i64
  call void @__dp_read(i32 664, i64 %183, i8* getelementptr inbounds ([12 x i8], [12 x i8]* @.str.36, i32 0, i32 0))
  %184 = load i32*, i32** %nindex81, align 8, !dbg !2989, !dp.md.instr.id !2991
  %185 = ptrtoint i32* %src to i64
  %186 = load i32, i32* %src, align 4, !dbg !2992, !dp.md.instr.id !2993
  %add82 = add nsw i32 %186, 1, !dbg !2994, !dp.md.instr.id !2995
  %idxprom83 = sext i32 %add82 to i64, !dbg !2996, !dp.md.instr.id !2997
  %arrayidx84 = getelementptr inbounds i32, i32* %184, i64 %idxprom83, !dbg !2996, !dp.md.instr.id !2998
  %187 = ptrtoint i32* %arrayidx84 to i64
  call void @__dp_read(i32 669, i64 %187, i8* getelementptr inbounds ([22 x i8], [22 x i8]* @.str.102, i32 0, i32 0))
  %188 = load i32, i32* %arrayidx84, align 4, !dbg !2996, !dp.md.instr.id !2999
  %cmp85 = icmp slt i32 %182, %188, !dbg !3000, !dp.md.instr.id !3001
  call void @__dp_report_bb(i32 48)
  %189 = load i32, i32* %__dp_bb127, align 4
  call void @__dp_report_bb_pair(i32 %189, i32 68)
  store i32 1, i32* %__dp_bb129, align 4
  %190 = load i32, i32* %__dp_bb130, align 4
  call void @__dp_report_bb_pair(i32 %190, i32 71)
  br i1 %cmp85, label %for.body86, label %for.end94, !dbg !3002, !dp.md.instr.id !3003

for.body86:                                       ; preds = %for.cond80
  call void @__dp_loop_incr(i32 3)
  %191 = ptrtoint float* %outgoing to i64
  %192 = load float, float* %outgoing, align 4, !dbg !3004, !dp.md.instr.id !3006
  %193 = ptrtoint float** %incomming_sums to i64
  %194 = load float*, float** %incomming_sums, align 8, !dbg !3007, !dp.md.instr.id !3008
  %nlist = getelementptr inbounds %struct.ECLgraph, %struct.ECLgraph* %g, i32 0, i32 3, !dbg !3009, !dp.md.instr.id !3010
  %195 = ptrtoint i32** %nlist to i64
  call void @__dp_read(i32 675, i64 %195, i8* getelementptr inbounds ([12 x i8], [12 x i8]* @.str.36, i32 0, i32 0))
  %196 = load i32*, i32** %nlist, align 8, !dbg !3009, !dp.md.instr.id !3011
  %197 = ptrtoint i32* %i76 to i64
  %198 = load i32, i32* %i76, align 4, !dbg !3012, !dp.md.instr.id !3013
  %idxprom87 = sext i32 %198 to i64, !dbg !3014, !dp.md.instr.id !3015
  %arrayidx88 = getelementptr inbounds i32, i32* %196, i64 %idxprom87, !dbg !3014, !dp.md.instr.id !3016
  %199 = ptrtoint i32* %arrayidx88 to i64
  call void @__dp_read(i32 679, i64 %199, i8* getelementptr inbounds ([22 x i8], [22 x i8]* @.str.102, i32 0, i32 0))
  %200 = load i32, i32* %arrayidx88, align 4, !dbg !3014, !dp.md.instr.id !3017
  %idxprom89 = sext i32 %200 to i64, !dbg !3007, !dp.md.instr.id !3018
  %arrayidx90 = getelementptr inbounds float, float* %194, i64 %idxprom89, !dbg !3007, !dp.md.instr.id !3019
  %201 = ptrtoint float* %arrayidx90 to i64
  call void @__dp_read(i32 682, i64 %201, i8* getelementptr inbounds ([25 x i8], [25 x i8]* @.str.104, i32 0, i32 0))
  %202 = load float, float* %arrayidx90, align 4, !dbg !3020, !dp.md.instr.id !3021
  %add91 = fadd float %202, %192, !dbg !3020, !dp.md.instr.id !3022
  %203 = ptrtoint float* %arrayidx90 to i64
  call void @__dp_write(i32 684, i64 %203, i8* getelementptr inbounds ([25 x i8], [25 x i8]* @.str.104, i32 0, i32 0))
  store float %add91, float* %arrayidx90, align 4, !dbg !3020, !dp.md.instr.id !3023
  call void @__dp_report_bb(i32 50)
  %204 = load i32, i32* %__dp_bb130, align 4
  call void @__dp_report_bb_pair(i32 %204, i32 73)
  store i32 1, i32* %__dp_bb131, align 4
  br label %for.inc92, !dbg !3024, !dp.md.instr.id !3025

for.inc92:                                        ; preds = %for.body86
  %205 = ptrtoint i32* %i76 to i64
  %206 = load i32, i32* %i76, align 4, !dbg !3026, !dp.md.instr.id !3027
  %inc93 = add nsw i32 %206, 1, !dbg !3026, !dp.md.instr.id !3028
  %207 = ptrtoint i32* %i76 to i64
  store i32 %inc93, i32* %i76, align 4, !dbg !3026, !dp.md.instr.id !3029
  call void @__dp_report_bb(i32 49)
  %208 = load i32, i32* %__dp_bb130, align 4
  call void @__dp_report_bb_pair(i32 %208, i32 72)
  store i32 1, i32* %__dp_bb130, align 4
  br label %for.cond80, !dbg !3030, !llvm.loop !3031, !dp.md.instr.id !3033

for.end94:                                        ; preds = %for.cond80
  call void @__dp_loop_exit(i32 32882, i32 3), !dp.md.instr.id !3034
  br label %for.inc95, !dbg !3035, !dp.md.instr.id !3036

for.inc95:                                        ; preds = %for.end94
  %209 = ptrtoint i32* %src to i64
  %210 = load i32, i32* %src, align 4, !dbg !3037, !dp.md.instr.id !3038
  %inc96 = add nsw i32 %210, 1, !dbg !3037, !dp.md.instr.id !3039
  %211 = ptrtoint i32* %src to i64
  store i32 %inc96, i32* %src, align 4, !dbg !3037, !dp.md.instr.id !3040
  call void @__dp_report_bb(i32 46)
  %212 = load i32, i32* %__dp_bb127, align 4
  call void @__dp_report_bb_pair(i32 %212, i32 66)
  store i32 1, i32* %__dp_bb127, align 4
  br label %for.cond66, !dbg !3041, !llvm.loop !3042, !dp.md.instr.id !3044

for.end97:                                        ; preds = %for.cond66
  call void @__dp_loop_exit(i32 32884, i32 2), !dp.md.instr.id !3045
  call void @llvm.dbg.declare(metadata i32* %i98, metadata !3046, metadata !DIExpression()), !dbg !3048, !dp.md.instr.id !3049
  %213 = ptrtoint i32* %i98 to i64
  store i32 0, i32* %i98, align 4, !dbg !3048, !dp.md.instr.id !3050
  call void @__dp_report_bb(i32 44)
  br label %for.cond99, !dbg !3051, !dp.md.instr.id !3052

for.cond99:                                       ; preds = %for.inc115, %for.end97
  call void @__dp_loop_entry(i32 32884, i32 4), !dp.md.instr.id !3053
  %214 = ptrtoint i32* %i98 to i64
  %215 = load i32, i32* %i98, align 4, !dbg !3054, !dp.md.instr.id !3056
  %nodes100 = getelementptr inbounds %struct.ECLgraph, %struct.ECLgraph* %g, i32 0, i32 0, !dbg !3057, !dp.md.instr.id !3058
  %216 = ptrtoint i32* %nodes100 to i64
  call void @__dp_read(i32 703, i64 %216, i8* getelementptr inbounds ([12 x i8], [12 x i8]* @.str.36, i32 0, i32 0))
  %217 = load i32, i32* %nodes100, align 8, !dbg !3057, !dp.md.instr.id !3059
  %cmp101 = icmp slt i32 %215, %217, !dbg !3060, !dp.md.instr.id !3061
  call void @__dp_report_bb(i32 29)
  %218 = load i32, i32* %__dp_bb, align 4
  call void @__dp_report_bb_pair(i32 %218, i32 52)
  br i1 %cmp101, label %for.body102, label %for.end117, !dbg !3062, !dp.md.instr.id !3063

for.body102:                                      ; preds = %for.cond99
  call void @__dp_loop_incr(i32 1)
  call void @llvm.dbg.declare(metadata float* %new_score, metadata !3064, metadata !DIExpression()), !dbg !3066, !dp.md.instr.id !3067
  %219 = ptrtoint float* %base_score to i64
  %220 = load float, float* %base_score, align 4, !dbg !3068, !dp.md.instr.id !3069
  %221 = ptrtoint float** %incomming_sums to i64
  %222 = load float*, float** %incomming_sums, align 8, !dbg !3070, !dp.md.instr.id !3071
  %223 = ptrtoint i32* %i98 to i64
  %224 = load i32, i32* %i98, align 4, !dbg !3072, !dp.md.instr.id !3073
  %idxprom103 = sext i32 %224 to i64, !dbg !3070, !dp.md.instr.id !3074
  %arrayidx104 = getelementptr inbounds float, float* %222, i64 %idxprom103, !dbg !3070, !dp.md.instr.id !3075
  %225 = ptrtoint float* %arrayidx104 to i64
  call void @__dp_read(i32 712, i64 %225, i8* getelementptr inbounds ([25 x i8], [25 x i8]* @.str.104, i32 0, i32 0))
  %226 = load float, float* %arrayidx104, align 4, !dbg !3070, !dp.md.instr.id !3076
  %mul105 = fmul float 0x3FEB333340000000, %226, !dbg !3077, !dp.md.instr.id !3078
  %add106 = fadd float %220, %mul105, !dbg !3079, !dp.md.instr.id !3080
  %227 = ptrtoint float* %new_score to i64
  store float %add106, float* %new_score, align 4, !dbg !3066, !dp.md.instr.id !3081
  %228 = ptrtoint float* %new_score to i64
  %229 = load float, float* %new_score, align 4, !dbg !3082, !dp.md.instr.id !3083
  %230 = ptrtoint float** %scores to i64
  %231 = load float*, float** %scores, align 8, !dbg !3084, !dp.md.instr.id !3085
  %232 = ptrtoint i32* %i98 to i64
  %233 = load i32, i32* %i98, align 4, !dbg !3086, !dp.md.instr.id !3087
  %idxprom107 = sext i32 %233 to i64, !dbg !3084, !dp.md.instr.id !3088
  %arrayidx108 = getelementptr inbounds float, float* %231, i64 %idxprom107, !dbg !3084, !dp.md.instr.id !3089
  %234 = ptrtoint float* %arrayidx108 to i64
  call void @__dp_read(i32 721, i64 %234, i8* getelementptr inbounds ([17 x i8], [17 x i8]* @.str.105, i32 0, i32 0))
  %235 = load float, float* %arrayidx108, align 4, !dbg !3084, !dp.md.instr.id !3090
  %sub109 = fsub float %229, %235, !dbg !3091, !dp.md.instr.id !3092
  call void @__dp_call(i32 32886), !dbg !3093
  %call110 = call float @_ZSt4fabsf(float %sub109), !dbg !3093, !dp.md.instr.id !3094
  %conv111 = fpext float %call110 to double, !dbg !3093, !dp.md.instr.id !3095
  %236 = ptrtoint double* %error to i64
  %237 = load double, double* %error, align 8, !dbg !3096, !dp.md.instr.id !3097
  %add112 = fadd double %237, %conv111, !dbg !3096, !dp.md.instr.id !3098
  %238 = ptrtoint double* %error to i64
  store double %add112, double* %error, align 8, !dbg !3096, !dp.md.instr.id !3099
  %239 = ptrtoint float** %incomming_sums to i64
  %240 = load float*, float** %incomming_sums, align 8, !dbg !3100, !dp.md.instr.id !3101
  %241 = ptrtoint i32* %i98 to i64
  %242 = load i32, i32* %i98, align 4, !dbg !3102, !dp.md.instr.id !3103
  %idxprom113 = sext i32 %242 to i64, !dbg !3100, !dp.md.instr.id !3104
  %arrayidx114 = getelementptr inbounds float, float* %240, i64 %idxprom113, !dbg !3100, !dp.md.instr.id !3105
  %243 = ptrtoint float* %arrayidx114 to i64
  call void @__dp_write(i32 732, i64 %243, i8* getelementptr inbounds ([25 x i8], [25 x i8]* @.str.104, i32 0, i32 0))
  store float 0.000000e+00, float* %arrayidx114, align 4, !dbg !3106, !dp.md.instr.id !3107
  call void @__dp_report_bb(i32 31)
  %244 = load i32, i32* %__dp_bb, align 4
  call void @__dp_report_bb_pair(i32 %244, i32 54)
  %245 = load i32, i32* %__dp_bb123, align 4
  call void @__dp_report_bb_pair(i32 %245, i32 56)
  store i32 1, i32* %__dp_bb123, align 4
  br label %for.inc115, !dbg !3108, !dp.md.instr.id !3109

for.inc115:                                       ; preds = %for.body102
  %246 = ptrtoint i32* %i98 to i64
  %247 = load i32, i32* %i98, align 4, !dbg !3110, !dp.md.instr.id !3111
  %inc116 = add nsw i32 %247, 1, !dbg !3110, !dp.md.instr.id !3112
  %248 = ptrtoint i32* %i98 to i64
  store i32 %inc116, i32* %i98, align 4, !dbg !3110, !dp.md.instr.id !3113
  call void @__dp_report_bb(i32 30)
  %249 = load i32, i32* %__dp_bb, align 4
  call void @__dp_report_bb_pair(i32 %249, i32 53)
  store i32 1, i32* %__dp_bb, align 4
  br label %for.cond99, !dbg !3114, !llvm.loop !3115, !dp.md.instr.id !3117

for.end117:                                       ; preds = %for.cond99
  call void @__dp_loop_exit(i32 32889, i32 4), !dp.md.instr.id !3118
  %250 = ptrtoint double* %error to i64
  %251 = load double, double* %error, align 8, !dbg !3119, !dp.md.instr.id !3121
  %cmp118 = fcmp olt double %251, 0x3F1A36E2E0000000, !dbg !3122, !dp.md.instr.id !3123
  call void @__dp_report_bb(i32 51)
  %252 = load i32, i32* %__dp_bb123, align 4
  call void @__dp_report_bb_pair(i32 %252, i32 57)
  br i1 %cmp118, label %if.then119, label %if.else, !dbg !3124, !dp.md.instr.id !3125

if.then119:                                       ; preds = %for.end117
  call void @__dp_call(i32 32889), !dbg !3126
  %call120 = call i32 (i8*, ...) @printf(i8* getelementptr inbounds ([11 x i8], [11 x i8]* @.str.27, i64 0, i64 0)), !dbg !3126, !dp.md.instr.id !3127
  br label %if.end122, !dbg !3126, !dp.md.instr.id !3128

if.else:                                          ; preds = %for.end117
  %253 = ptrtoint double* %error to i64
  %254 = load double, double* %error, align 8, !dbg !3129, !dp.md.instr.id !3130
  call void @__dp_call(i32 32890), !dbg !3131
  %call121 = call i32 (i8*, ...) @printf(i8* getelementptr inbounds ([17 x i8], [17 x i8]* @.str.28, i64 0, i64 0), double %254), !dbg !3131, !dp.md.instr.id !3132
  call void @__dp_report_bb(i32 28)
  %255 = load i32, i32* %__dp_bb123, align 4
  call void @__dp_report_bb_pair(i32 %255, i32 55)
  br label %if.end122, !dp.md.instr.id !3133

if.end122:                                        ; preds = %if.else, %if.then119
  call void @__dp_finalize(i32 32891), !dbg !3134
  call void @__dp_loop_output(), !dbg !3134
  ret i32 0, !dbg !3134, !dp.md.instr.id !3135
}

; Function Attrs: nounwind
declare i32 @_ZNSt6thread20hardware_concurrencyEv() #4

; Function Attrs: nounwind readonly
declare i32 @atoi(i8*) #7

; Function Attrs: noinline optnone uwtable
define linkonce_odr void @_ZSt4fillIPffEvT_S1_RKT0_(float* %__first, float* %__last, float* nonnull align 4 dereferenceable(4) %__value) #0 comdat !dbg !3136 {
entry:
  %__first.addr = alloca float*, align 8
  %__last.addr = alloca float*, align 8
  %__value.addr = alloca float*, align 8
  store float* %__first, float** %__first.addr, align 8
  call void @llvm.dbg.declare(metadata float** %__first.addr, metadata !3144, metadata !DIExpression()), !dbg !3146
  store float* %__last, float** %__last.addr, align 8
  call void @llvm.dbg.declare(metadata float** %__last.addr, metadata !3147, metadata !DIExpression()), !dbg !3148
  store float* %__value, float** %__value.addr, align 8
  call void @llvm.dbg.declare(metadata float** %__value.addr, metadata !3149, metadata !DIExpression()), !dbg !3150
  %0 = load float*, float** %__first.addr, align 8, !dbg !3151
  %1 = load float*, float** %__last.addr, align 8, !dbg !3152
  %2 = load float*, float** %__value.addr, align 8, !dbg !3153
  call void @_ZSt8__fill_aIPffEvT_S1_RKT0_(float* %0, float* %1, float* nonnull align 4 dereferenceable(4) %2), !dbg !3154
  ret void, !dbg !3155
}

; Function Attrs: noinline optnone uwtable
define internal double @_ZL6PR_CPU8ECLgraphPfPii(%struct.ECLgraph* byval(%struct.ECLgraph) align 8 %g, float* %scores, i32* %degree, i32 %threadCount) #0 personality i8* bitcast (i32 (...)* @__gxx_personality_v0 to i8*) !dbg !3156 {
entry:
  call void @__dp_func_entry(i32 49221, i32 0), !dp.md.instr.id !3159
  %__dp_bb103 = alloca i32, align 4
  store i32 0, i32* %__dp_bb103, align 4
  %__dp_bb102 = alloca i32, align 4
  store i32 0, i32* %__dp_bb102, align 4
  %__dp_bb101 = alloca i32, align 4
  store i32 0, i32* %__dp_bb101, align 4
  %__dp_bb100 = alloca i32, align 4
  store i32 0, i32* %__dp_bb100, align 4
  %__dp_bb99 = alloca i32, align 4
  store i32 0, i32* %__dp_bb99, align 4
  %__dp_bb98 = alloca i32, align 4
  store i32 0, i32* %__dp_bb98, align 4
  %__dp_bb97 = alloca i32, align 4
  store i32 0, i32* %__dp_bb97, align 4
  %__dp_bb96 = alloca i32, align 4
  store i32 0, i32* %__dp_bb96, align 4
  %__dp_bb95 = alloca i32, align 4
  store i32 0, i32* %__dp_bb95, align 4
  %__dp_bb94 = alloca i32, align 4
  store i32 0, i32* %__dp_bb94, align 4
  %__dp_bb93 = alloca i32, align 4
  store i32 0, i32* %__dp_bb93, align 4
  %__dp_bb = alloca i32, align 4
  store i32 0, i32* %__dp_bb, align 4
  %retval = alloca double, align 8, !dp.md.instr.id !3160
  %0 = ptrtoint double* %retval to i64, !dp.md.instr.id !3161
  %scores.addr = alloca float*, align 8, !dp.md.instr.id !3162
  %1 = ptrtoint float** %scores.addr to i64, !dp.md.instr.id !3163
  %degree.addr = alloca i32*, align 8, !dp.md.instr.id !3164
  %2 = ptrtoint i32** %degree.addr to i64, !dp.md.instr.id !3165
  %threadCount.addr = alloca i32, align 4, !dp.md.instr.id !3166
  %3 = ptrtoint i32* %threadCount.addr to i64, !dp.md.instr.id !3167
  %base_score = alloca float, align 4, !dp.md.instr.id !3168
  %4 = ptrtoint float* %base_score to i64, !dp.md.instr.id !3169
  %outgoing_contrib = alloca float*, align 8, !dp.md.instr.id !3170
  %5 = ptrtoint float** %outgoing_contrib to i64, !dp.md.instr.id !3171
  %incoming_total = alloca float*, align 8, !dp.md.instr.id !3172
  %6 = ptrtoint float** %incoming_total to i64, !dp.md.instr.id !3173
  %saved_stack = alloca i8*, align 8, !dp.md.instr.id !3174
  %7 = ptrtoint i8** %saved_stack to i64, !dp.md.instr.id !3175
  %__vla_expr0 = alloca i64, align 8, !dp.md.instr.id !3176
  %8 = ptrtoint i64* %__vla_expr0 to i64, !dp.md.instr.id !3177
  %iter = alloca i32, align 4, !dp.md.instr.id !3178
  %9 = ptrtoint i32* %iter to i64, !dp.md.instr.id !3179
  %start = alloca %struct.timeval, align 8, !dp.md.instr.id !3180
  %10 = ptrtoint %struct.timeval* %start to i64, !dp.md.instr.id !3181
  call void @__dp_alloca(i32 49221, i8* getelementptr inbounds ([6 x i8], [6 x i8]* @.str.111, i32 0, i32 0), i64 %10, i64 %10, i64 0, i64 1), !dp.md.instr.id !3182
  %end = alloca %struct.timeval, align 8, !dp.md.instr.id !3183
  %11 = ptrtoint %struct.timeval* %end to i64, !dp.md.instr.id !3184
  call void @__dp_alloca(i32 49221, i8* getelementptr inbounds ([4 x i8], [4 x i8]* @.str.112, i32 0, i32 0), i64 %11, i64 %11, i64 0, i64 1), !dp.md.instr.id !3185
  %error = alloca double, align 8, !dp.md.instr.id !3186
  %12 = ptrtoint double* %error to i64, !dp.md.instr.id !3187
  call void @__dp_alloca(i32 49221, i8* getelementptr inbounds ([6 x i8], [6 x i8]* @.str.97, i32 0, i32 0), i64 %12, i64 %12, i64 8, i64 1), !dp.md.instr.id !3188
  %i = alloca i32, align 4, !dp.md.instr.id !3189
  %13 = ptrtoint i32* %i to i64, !dp.md.instr.id !3190
  %i20 = alloca i32, align 4, !dp.md.instr.id !3191
  %14 = ptrtoint i32* %i20 to i64, !dp.md.instr.id !3192
  %ref.tmp = alloca %"class.std::thread", align 8, !dp.md.instr.id !3193
  %15 = ptrtoint %"class.std::thread"* %ref.tmp to i64, !dp.md.instr.id !3194
  call void @__dp_alloca(i32 49221, i8* getelementptr inbounds ([8 x i8], [8 x i8]* @.str.113, i32 0, i32 0), i64 %15, i64 %15, i64 0, i64 1), !dp.md.instr.id !3195
  %exn.slot = alloca i8*, align 8, !dp.md.instr.id !3196
  %16 = ptrtoint i8** %exn.slot to i64, !dp.md.instr.id !3197
  %ehselector.slot = alloca i32, align 4, !dp.md.instr.id !3198
  %17 = ptrtoint i32* %ehselector.slot to i64, !dp.md.instr.id !3199
  %i30 = alloca i32, align 4, !dp.md.instr.id !3200
  %18 = ptrtoint i32* %i30 to i64, !dp.md.instr.id !3201
  %i40 = alloca i32, align 4, !dp.md.instr.id !3202
  %19 = ptrtoint i32* %i40 to i64, !dp.md.instr.id !3203
  %ref.tmp44 = alloca %"class.std::thread", align 8, !dp.md.instr.id !3204
  %20 = ptrtoint %"class.std::thread"* %ref.tmp44 to i64, !dp.md.instr.id !3205
  call void @__dp_alloca(i32 49221, i8* getelementptr inbounds ([10 x i8], [10 x i8]* @.str.116, i32 0, i32 0), i64 %20, i64 %20, i64 0, i64 1), !dp.md.instr.id !3206
  %ref.tmp46 = alloca %"class.std::reference_wrapper", align 8, !dp.md.instr.id !3207
  %21 = ptrtoint %"class.std::reference_wrapper"* %ref.tmp46 to i64, !dp.md.instr.id !3208
  call void @__dp_alloca(i32 49221, i8* getelementptr inbounds ([10 x i8], [10 x i8]* @.str.117, i32 0, i32 0), i64 %21, i64 %21, i64 0, i64 1), !dp.md.instr.id !3209
  %i55 = alloca i32, align 4, !dp.md.instr.id !3210
  %22 = ptrtoint i32* %i55 to i64, !dp.md.instr.id !3211
  %runtime = alloca double, align 8, !dp.md.instr.id !3212
  %23 = ptrtoint double* %runtime to i64, !dbg !3213, !dp.md.instr.id !3214
  call void @llvm.dbg.declare(metadata %struct.ECLgraph* %g, metadata !3215, metadata !DIExpression()), !dbg !3213, !dp.md.instr.id !3216
  %24 = ptrtoint float** %scores.addr to i64
  store float* %scores, float** %scores.addr, align 8, !dp.md.instr.id !3217
  call void @llvm.dbg.declare(metadata float** %scores.addr, metadata !3218, metadata !DIExpression()), !dbg !3219, !dp.md.instr.id !3220
  %25 = ptrtoint i32** %degree.addr to i64
  store i32* %degree, i32** %degree.addr, align 8, !dp.md.instr.id !3221
  call void @llvm.dbg.declare(metadata i32** %degree.addr, metadata !3222, metadata !DIExpression()), !dbg !3223, !dp.md.instr.id !3224
  %26 = ptrtoint i32* %threadCount.addr to i64
  store i32 %threadCount, i32* %threadCount.addr, align 4, !dp.md.instr.id !3225
  call void @llvm.dbg.declare(metadata i32* %threadCount.addr, metadata !3226, metadata !DIExpression()), !dbg !3227, !dp.md.instr.id !3228
  call void @llvm.dbg.declare(metadata float* %base_score, metadata !3229, metadata !DIExpression()), !dbg !3230, !dp.md.instr.id !3231
  %nodes = getelementptr inbounds %struct.ECLgraph, %struct.ECLgraph* %g, i32 0, i32 0, !dbg !3232, !dp.md.instr.id !3233
  %27 = ptrtoint i32* %nodes to i64
  call void @__dp_read(i32 830, i64 %27, i8* getelementptr inbounds ([12 x i8], [12 x i8]* @.str.36, i32 0, i32 0))
  %28 = load i32, i32* %nodes, align 8, !dbg !3232, !dp.md.instr.id !3234
  %conv = sitofp i32 %28 to float, !dbg !3235, !dp.md.instr.id !3236
  %div = fdiv float 0x3FC3333300000000, %conv, !dbg !3237, !dp.md.instr.id !3238
  %29 = ptrtoint float* %base_score to i64
  store float %div, float* %base_score, align 4, !dbg !3230, !dp.md.instr.id !3239
  call void @llvm.dbg.declare(metadata float** %outgoing_contrib, metadata !3240, metadata !DIExpression()), !dbg !3241, !dp.md.instr.id !3242
  %nodes1 = getelementptr inbounds %struct.ECLgraph, %struct.ECLgraph* %g, i32 0, i32 0, !dbg !3243, !dp.md.instr.id !3244
  %30 = ptrtoint i32* %nodes1 to i64
  call void @__dp_read(i32 836, i64 %30, i8* getelementptr inbounds ([12 x i8], [12 x i8]* @.str.36, i32 0, i32 0))
  %31 = load i32, i32* %nodes1, align 8, !dbg !3243, !dp.md.instr.id !3245
  %conv2 = sext i32 %31 to i64, !dbg !3246, !dp.md.instr.id !3247
  %mul = mul i64 %conv2, 4, !dbg !3248, !dp.md.instr.id !3249
  %call = call noalias i8* @malloc(i64 %mul) #9, !dbg !3250, !dp.md.instr.id !3251
  %32 = ptrtoint i8* %call to i64, !dp.md.instr.id !3252
  call void @__dp_new(i32 49224, i64 %32, i64 %32, i64 %mul), !dbg !3253, !dp.md.instr.id !3254
  %33 = bitcast i8* %call to float*, !dbg !3253, !dp.md.instr.id !3255
  %34 = ptrtoint float** %outgoing_contrib to i64
  store float* %33, float** %outgoing_contrib, align 8, !dbg !3241, !dp.md.instr.id !3256
  call void @llvm.dbg.declare(metadata float** %incoming_total, metadata !3257, metadata !DIExpression()), !dbg !3258, !dp.md.instr.id !3259
  %nodes3 = getelementptr inbounds %struct.ECLgraph, %struct.ECLgraph* %g, i32 0, i32 0, !dbg !3260, !dp.md.instr.id !3261
  %35 = ptrtoint i32* %nodes3 to i64
  call void @__dp_read(i32 846, i64 %35, i8* getelementptr inbounds ([12 x i8], [12 x i8]* @.str.36, i32 0, i32 0))
  %36 = load i32, i32* %nodes3, align 8, !dbg !3260, !dp.md.instr.id !3262
  %conv4 = sext i32 %36 to i64, !dbg !3263, !dp.md.instr.id !3264
  %mul5 = mul i64 %conv4, 4, !dbg !3265, !dp.md.instr.id !3266
  %call6 = call noalias i8* @malloc(i64 %mul5) #9, !dbg !3267, !dp.md.instr.id !3268
  %37 = ptrtoint i8* %call6 to i64, !dp.md.instr.id !3269
  call void @__dp_new(i32 49225, i64 %37, i64 %37, i64 %mul5), !dbg !3270, !dp.md.instr.id !3271
  %38 = bitcast i8* %call6 to float*, !dbg !3270, !dp.md.instr.id !3272
  %39 = ptrtoint float** %incoming_total to i64
  store float* %38, float** %incoming_total, align 8, !dbg !3258, !dp.md.instr.id !3273
  %40 = ptrtoint i32* %threadCount.addr to i64
  %41 = load i32, i32* %threadCount.addr, align 4, !dbg !3274, !dp.md.instr.id !3275
  %42 = zext i32 %41 to i64, !dbg !3276, !dp.md.instr.id !3277
  call void @__dp_call(i32 49226), !dbg !3276
  %43 = call i8* @llvm.stacksave(), !dbg !3276, !dp.md.instr.id !3278
  %44 = ptrtoint i8** %saved_stack to i64
  store i8* %43, i8** %saved_stack, align 8, !dbg !3276, !dp.md.instr.id !3279
  %vla = alloca %"class.std::thread", i64 %42, align 16, !dbg !3276, !dp.md.instr.id !3280
  %45 = ptrtoint %"class.std::thread"* %vla to i64, !dbg !3276, !dp.md.instr.id !3281
  %46 = add i64 %45, %42, !dbg !3276, !dp.md.instr.id !3282
  %47 = mul i64 %42, 0, !dbg !3276, !dp.md.instr.id !3283
  call void @__dp_alloca(i32 49226, i8* getelementptr inbounds ([14 x i8], [14 x i8]* @.str.118, i32 0, i32 0), i64 %45, i64 %46, i64 %47, i64 %42), !dbg !3276, !dp.md.instr.id !3284
  %48 = ptrtoint i64* %__vla_expr0 to i64
  store i64 %42, i64* %__vla_expr0, align 8, !dbg !3276, !dp.md.instr.id !3285
  call void @llvm.dbg.declare(metadata i64* %__vla_expr0, metadata !3286, metadata !DIExpression()), !dbg !3287, !dp.md.instr.id !3288
  call void @llvm.dbg.declare(metadata %"class.std::thread"* %vla, metadata !3289, metadata !DIExpression()), !dbg !3293, !dp.md.instr.id !3294
  %isempty = icmp eq i64 %42, 0, !dbg !3293, !dp.md.instr.id !3295
  call void @__dp_report_bb(i32 80)
  br i1 %isempty, label %arrayctor.cont, label %new.ctorloop, !dbg !3293, !dp.md.instr.id !3296

new.ctorloop:                                     ; preds = %entry
  %arrayctor.end = getelementptr inbounds %"class.std::thread", %"class.std::thread"* %vla, i64 %42, !dbg !3293, !dp.md.instr.id !3297
  br label %arrayctor.loop, !dbg !3293, !dp.md.instr.id !3298

arrayctor.loop:                                   ; preds = %arrayctor.loop, %new.ctorloop
  %arrayctor.cur = phi %"class.std::thread"* [ %vla, %new.ctorloop ], [ %arrayctor.next, %arrayctor.loop ], !dbg !3293, !dp.md.instr.id !3299
  call void @__dp_call(i32 49226), !dbg !3293
  call void @_ZNSt6threadC2Ev(%"class.std::thread"* %arrayctor.cur) #9, !dbg !3293, !dp.md.instr.id !3300
  %arrayctor.next = getelementptr inbounds %"class.std::thread", %"class.std::thread"* %arrayctor.cur, i64 1, !dbg !3293, !dp.md.instr.id !3301
  %arrayctor.done = icmp eq %"class.std::thread"* %arrayctor.next, %arrayctor.end, !dbg !3293, !dp.md.instr.id !3302
  br i1 %arrayctor.done, label %arrayctor.cont, label %arrayctor.loop, !dbg !3293, !dp.md.instr.id !3303

arrayctor.cont:                                   ; preds = %entry, %arrayctor.loop
  call void @llvm.dbg.declare(metadata i32* %iter, metadata !3304, metadata !DIExpression()), !dbg !3305, !dp.md.instr.id !3306
  call void @llvm.dbg.declare(metadata %struct.timeval* %start, metadata !3307, metadata !DIExpression()), !dbg !3314, !dp.md.instr.id !3315
  call void @llvm.dbg.declare(metadata %struct.timeval* %end, metadata !3316, metadata !DIExpression()), !dbg !3317, !dp.md.instr.id !3318
  call void @__dp_call(i32 49230), !dbg !3319
  %call7 = call i32 @gettimeofday(%struct.timeval* %start, i8* null) #9, !dbg !3319, !dp.md.instr.id !3320
  %49 = ptrtoint i32* %iter to i64
  store i32 0, i32* %iter, align 4, !dbg !3321, !dp.md.instr.id !3323
  call void @__dp_report_bb(i32 82)
  br label %for.cond, !dbg !3324, !dp.md.instr.id !3325

for.cond:                                         ; preds = %for.inc66, %arrayctor.cont
  call void @__dp_loop_entry(i32 49232, i32 5), !dp.md.instr.id !3326
  %50 = ptrtoint i32* %iter to i64
  %51 = load i32, i32* %iter, align 4, !dbg !3327, !dp.md.instr.id !3329
  %cmp = icmp slt i32 %51, 100, !dbg !3330, !dp.md.instr.id !3331
  call void @__dp_report_bb(i32 84)
  %52 = load i32, i32* %__dp_bb94, align 4
  call void @__dp_report_bb_pair(i32 %52, i32 111)
  br i1 %cmp, label %for.body, label %for.end68, !dbg !3332, !dp.md.instr.id !3333

for.body:                                         ; preds = %for.cond
  call void @__dp_loop_incr(i32 6)
  call void @llvm.dbg.declare(metadata double* %error, metadata !3334, metadata !DIExpression()), !dbg !3336, !dp.md.instr.id !3337
  %53 = ptrtoint double* %error to i64
  call void @__dp_write(i32 886, i64 %53, i8* getelementptr inbounds ([6 x i8], [6 x i8]* @.str.97, i32 0, i32 0))
  store double 0.000000e+00, double* %error, align 8, !dbg !3336, !dp.md.instr.id !3338
  call void @llvm.dbg.declare(metadata i32* %i, metadata !3339, metadata !DIExpression()), !dbg !3341, !dp.md.instr.id !3342
  %54 = ptrtoint i32* %i to i64
  store i32 0, i32* %i, align 4, !dbg !3341, !dp.md.instr.id !3343
  call void @__dp_report_bb(i32 86)
  %55 = load i32, i32* %__dp_bb95, align 4
  call void @__dp_report_bb_pair(i32 %55, i32 115)
  br label %for.cond8, !dbg !3344, !dp.md.instr.id !3345

for.cond8:                                        ; preds = %for.inc, %for.body
  call void @__dp_loop_entry(i32 49234, i32 6), !dp.md.instr.id !3346
  %56 = ptrtoint i32* %i to i64
  %57 = load i32, i32* %i, align 4, !dbg !3347, !dp.md.instr.id !3349
  %nodes9 = getelementptr inbounds %struct.ECLgraph, %struct.ECLgraph* %g, i32 0, i32 0, !dbg !3350, !dp.md.instr.id !3351
  %58 = ptrtoint i32* %nodes9 to i64
  call void @__dp_read(i32 893, i64 %58, i8* getelementptr inbounds ([12 x i8], [12 x i8]* @.str.36, i32 0, i32 0))
  %59 = load i32, i32* %nodes9, align 8, !dbg !3350, !dp.md.instr.id !3352
  %cmp10 = icmp slt i32 %57, %59, !dbg !3353, !dp.md.instr.id !3354
  call void @__dp_report_bb(i32 88)
  store i32 1, i32* %__dp_bb95, align 4
  %60 = load i32, i32* %__dp_bb96, align 4
  call void @__dp_report_bb_pair(i32 %60, i32 116)
  br i1 %cmp10, label %for.body11, label %for.end, !dbg !3355, !dp.md.instr.id !3356

for.body11:                                       ; preds = %for.cond8
  call void @__dp_loop_incr(i32 7)
  %61 = ptrtoint float** %scores.addr to i64
  %62 = load float*, float** %scores.addr, align 8, !dbg !3357, !dp.md.instr.id !3359
  %63 = ptrtoint i32* %i to i64
  %64 = load i32, i32* %i, align 4, !dbg !3360, !dp.md.instr.id !3361
  %idxprom = sext i32 %64 to i64, !dbg !3357, !dp.md.instr.id !3362
  %arrayidx = getelementptr inbounds float, float* %62, i64 %idxprom, !dbg !3357, !dp.md.instr.id !3363
  %65 = ptrtoint float* %arrayidx to i64
  call void @__dp_read(i32 900, i64 %65, i8* getelementptr inbounds ([17 x i8], [17 x i8]* @.str.105, i32 0, i32 0))
  %66 = load float, float* %arrayidx, align 4, !dbg !3357, !dp.md.instr.id !3364
  %67 = ptrtoint i32** %degree.addr to i64
  %68 = load i32*, i32** %degree.addr, align 8, !dbg !3365, !dp.md.instr.id !3366
  %69 = ptrtoint i32* %i to i64
  %70 = load i32, i32* %i, align 4, !dbg !3367, !dp.md.instr.id !3368
  %idxprom12 = sext i32 %70 to i64, !dbg !3365, !dp.md.instr.id !3369
  %arrayidx13 = getelementptr inbounds i32, i32* %68, i64 %idxprom12, !dbg !3365, !dp.md.instr.id !3370
  %71 = ptrtoint i32* %arrayidx13 to i64
  call void @__dp_read(i32 905, i64 %71, i8* getelementptr inbounds ([17 x i8], [17 x i8]* @.str.103, i32 0, i32 0))
  %72 = load i32, i32* %arrayidx13, align 4, !dbg !3365, !dp.md.instr.id !3371
  %conv14 = sitofp i32 %72 to float, !dbg !3365, !dp.md.instr.id !3372
  %div15 = fdiv float %66, %conv14, !dbg !3373, !dp.md.instr.id !3374
  %73 = ptrtoint float** %outgoing_contrib to i64
  %74 = load float*, float** %outgoing_contrib, align 8, !dbg !3375, !dp.md.instr.id !3376
  %75 = ptrtoint i32* %i to i64
  %76 = load i32, i32* %i, align 4, !dbg !3377, !dp.md.instr.id !3378
  %idxprom16 = sext i32 %76 to i64, !dbg !3375, !dp.md.instr.id !3379
  %arrayidx17 = getelementptr inbounds float, float* %74, i64 %idxprom16, !dbg !3375, !dp.md.instr.id !3380
  %77 = ptrtoint float* %arrayidx17 to i64
  call void @__dp_write(i32 912, i64 %77, i8* getelementptr inbounds ([27 x i8], [27 x i8]* @.str.119, i32 0, i32 0))
  store float %div15, float* %arrayidx17, align 4, !dbg !3381, !dp.md.instr.id !3382
  %78 = ptrtoint float** %incoming_total to i64
  %79 = load float*, float** %incoming_total, align 8, !dbg !3383, !dp.md.instr.id !3384
  %80 = ptrtoint i32* %i to i64
  %81 = load i32, i32* %i, align 4, !dbg !3385, !dp.md.instr.id !3386
  %idxprom18 = sext i32 %81 to i64, !dbg !3383, !dp.md.instr.id !3387
  %arrayidx19 = getelementptr inbounds float, float* %79, i64 %idxprom18, !dbg !3383, !dp.md.instr.id !3388
  %82 = ptrtoint float* %arrayidx19 to i64
  call void @__dp_write(i32 917, i64 %82, i8* getelementptr inbounds ([25 x i8], [25 x i8]* @.str.120, i32 0, i32 0))
  store float 0.000000e+00, float* %arrayidx19, align 4, !dbg !3389, !dp.md.instr.id !3390
  call void @__dp_report_bb(i32 90)
  %83 = load i32, i32* %__dp_bb96, align 4
  call void @__dp_report_bb_pair(i32 %83, i32 118)
  br label %for.inc, !dbg !3391, !dp.md.instr.id !3392

for.inc:                                          ; preds = %for.body11
  %84 = ptrtoint i32* %i to i64
  %85 = load i32, i32* %i, align 4, !dbg !3393, !dp.md.instr.id !3394
  %inc = add nsw i32 %85, 1, !dbg !3393, !dp.md.instr.id !3395
  %86 = ptrtoint i32* %i to i64
  store i32 %inc, i32* %i, align 4, !dbg !3393, !dp.md.instr.id !3396
  call void @__dp_report_bb(i32 89)
  %87 = load i32, i32* %__dp_bb96, align 4
  call void @__dp_report_bb_pair(i32 %87, i32 117)
  store i32 1, i32* %__dp_bb96, align 4
  br label %for.cond8, !dbg !3397, !llvm.loop !3398, !dp.md.instr.id !3400

for.end:                                          ; preds = %for.cond8
  call void @__dp_loop_exit(i32 49238, i32 6), !dp.md.instr.id !3401
  call void @llvm.dbg.declare(metadata i32* %i20, metadata !3402, metadata !DIExpression()), !dbg !3404, !dp.md.instr.id !3405
  %88 = ptrtoint i32* %i20 to i64
  store i32 0, i32* %i20, align 4, !dbg !3404, !dp.md.instr.id !3406
  call void @__dp_report_bb(i32 87)
  %89 = load i32, i32* %__dp_bb97, align 4
  call void @__dp_report_bb_pair(i32 %89, i32 119)
  br label %for.cond21, !dbg !3407, !dp.md.instr.id !3408

for.cond21:                                       ; preds = %for.inc27, %for.end
  call void @__dp_loop_entry(i32 49238, i32 7), !dp.md.instr.id !3409
  %90 = ptrtoint i32* %i20 to i64
  %91 = load i32, i32* %i20, align 4, !dbg !3410, !dp.md.instr.id !3412
  %92 = ptrtoint i32* %threadCount.addr to i64
  %93 = load i32, i32* %threadCount.addr, align 4, !dbg !3413, !dp.md.instr.id !3414
  %cmp22 = icmp slt i32 %91, %93, !dbg !3415, !dp.md.instr.id !3416
  call void @__dp_report_bb(i32 92)
  store i32 1, i32* %__dp_bb97, align 4
  %94 = load i32, i32* %__dp_bb98, align 4
  call void @__dp_report_bb_pair(i32 %94, i32 120)
  br i1 %cmp22, label %for.body23, label %for.end29, !dbg !3417, !dp.md.instr.id !3418

for.body23:                                       ; preds = %for.cond21
  call void @__dp_loop_incr(i32 8)
  call void @__dp_call(i32 49239), !dbg !3419
  invoke void @_ZNSt6threadC2IRFv8ECLgraphPfS2_iiEJRKS1_RS2_S7_RiRKiEvEEOT_DpOT0_(%"class.std::thread"* %ref.tmp, void (%struct.ECLgraph*, float*, float*, i32, i32)* nonnull @_ZL12incomingCalc8ECLgraphPfS0_ii, %struct.ECLgraph* nonnull align 8 dereferenceable(32) %g, float** nonnull align 8 dereferenceable(8) %outgoing_contrib, float** nonnull align 8 dereferenceable(8) %incoming_total, i32* nonnull align 4 dereferenceable(4) %i20, i32* nonnull align 4 dereferenceable(4) %threadCount.addr)
          to label %invoke.cont unwind label %lpad, !dbg !3419, !dp.md.instr.id !3421

invoke.cont:                                      ; preds = %for.body23
  %95 = ptrtoint i32* %i20 to i64
  %96 = load i32, i32* %i20, align 4, !dbg !3422, !dp.md.instr.id !3423
  %idxprom24 = sext i32 %96 to i64, !dbg !3424, !dp.md.instr.id !3425
  %arrayidx25 = getelementptr inbounds %"class.std::thread", %"class.std::thread"* %vla, i64 %idxprom24, !dbg !3424, !dp.md.instr.id !3426
  call void @__dp_call(i32 49239), !dbg !3427
  %call26 = call nonnull align 8 dereferenceable(8) %"class.std::thread"* @_ZNSt6threadaSEOS_(%"class.std::thread"* %arrayidx25, %"class.std::thread"* nonnull align 8 dereferenceable(8) %ref.tmp) #9, !dbg !3427, !dp.md.instr.id !3428
  call void @__dp_call(i32 49239), !dbg !3424
  call void @_ZNSt6threadD2Ev(%"class.std::thread"* %ref.tmp) #9, !dbg !3424, !dp.md.instr.id !3429
  call void @__dp_report_bb(i32 94)
  %97 = load i32, i32* %__dp_bb98, align 4
  call void @__dp_report_bb_pair(i32 %97, i32 122)
  br label %for.inc27, !dbg !3430, !dp.md.instr.id !3431

for.inc27:                                        ; preds = %invoke.cont
  %98 = ptrtoint i32* %i20 to i64
  %99 = load i32, i32* %i20, align 4, !dbg !3432, !dp.md.instr.id !3433
  %inc28 = add nsw i32 %99, 1, !dbg !3432, !dp.md.instr.id !3434
  %100 = ptrtoint i32* %i20 to i64
  store i32 %inc28, i32* %i20, align 4, !dbg !3432, !dp.md.instr.id !3435
  call void @__dp_report_bb(i32 93)
  %101 = load i32, i32* %__dp_bb98, align 4
  call void @__dp_report_bb_pair(i32 %101, i32 121)
  store i32 1, i32* %__dp_bb98, align 4
  br label %for.cond21, !dbg !3436, !llvm.loop !3437, !dp.md.instr.id !3439

lpad:                                             ; preds = %if.end82, %for.body58, %for.body43, %for.body33, %for.body23
  %102 = landingpad { i8*, i32 }
          cleanup, !dbg !3440, !dp.md.instr.id !3441
  %103 = extractvalue { i8*, i32 } %102, 0, !dbg !3440, !dp.md.instr.id !3442
  %104 = ptrtoint i8** %exn.slot to i64
  store i8* %103, i8** %exn.slot, align 8, !dbg !3440, !dp.md.instr.id !3443
  %105 = extractvalue { i8*, i32 } %102, 1, !dbg !3440, !dp.md.instr.id !3444
  %106 = ptrtoint i32* %ehselector.slot to i64
  store i32 %105, i32* %ehselector.slot, align 4, !dbg !3440, !dp.md.instr.id !3445
  %107 = getelementptr inbounds %"class.std::thread", %"class.std::thread"* %vla, i64 %42, !dbg !3446, !dp.md.instr.id !3447
  %arraydestroy.isempty86 = icmp eq %"class.std::thread"* %vla, %107, !dbg !3446, !dp.md.instr.id !3448
  call void @__dp_report_bb(i32 75)
  br i1 %arraydestroy.isempty86, label %arraydestroy.done91, label %arraydestroy.body87, !dbg !3446, !dp.md.instr.id !3449

for.end29:                                        ; preds = %for.cond21
  call void @__dp_loop_exit(i32 49241, i32 7), !dp.md.instr.id !3450
  call void @llvm.dbg.declare(metadata i32* %i30, metadata !3451, metadata !DIExpression()), !dbg !3453, !dp.md.instr.id !3454
  %108 = ptrtoint i32* %i30 to i64
  store i32 0, i32* %i30, align 4, !dbg !3453, !dp.md.instr.id !3455
  call void @__dp_report_bb(i32 91)
  %109 = load i32, i32* %__dp_bb, align 4
  call void @__dp_report_bb_pair(i32 %109, i32 106)
  br label %for.cond31, !dbg !3456, !dp.md.instr.id !3457

for.cond31:                                       ; preds = %for.inc37, %for.end29
  call void @__dp_loop_entry(i32 49241, i32 8), !dp.md.instr.id !3458
  %110 = ptrtoint i32* %i30 to i64
  %111 = load i32, i32* %i30, align 4, !dbg !3459, !dp.md.instr.id !3461
  %112 = ptrtoint i32* %threadCount.addr to i64
  %113 = load i32, i32* %threadCount.addr, align 4, !dbg !3462, !dp.md.instr.id !3463
  %cmp32 = icmp slt i32 %111, %113, !dbg !3464, !dp.md.instr.id !3465
  call void @__dp_report_bb(i32 77)
  store i32 1, i32* %__dp_bb, align 4
  %114 = load i32, i32* %__dp_bb99, align 4
  call void @__dp_report_bb_pair(i32 %114, i32 123)
  br i1 %cmp32, label %for.body33, label %for.end39, !dbg !3466, !dp.md.instr.id !3467

for.body33:                                       ; preds = %for.cond31
  call void @__dp_loop_incr(i32 9)
  %115 = ptrtoint i32* %i30 to i64
  %116 = load i32, i32* %i30, align 4, !dbg !3468, !dp.md.instr.id !3470
  %idxprom34 = sext i32 %116 to i64, !dbg !3471, !dp.md.instr.id !3472
  %arrayidx35 = getelementptr inbounds %"class.std::thread", %"class.std::thread"* %vla, i64 %idxprom34, !dbg !3471, !dp.md.instr.id !3473
  call void @__dp_call(i32 49242), !dbg !3474
  call void @__dp_report_bb(i32 96)
  %117 = load i32, i32* %__dp_bb99, align 4
  call void @__dp_report_bb_pair(i32 %117, i32 125)
  invoke void @_ZNSt6thread4joinEv(%"class.std::thread"* %arrayidx35)
          to label %invoke.cont36 unwind label %lpad, !dbg !3474, !dp.md.instr.id !3475

invoke.cont36:                                    ; preds = %for.body33
  br label %for.inc37, !dbg !3476, !dp.md.instr.id !3477

for.inc37:                                        ; preds = %invoke.cont36
  %118 = ptrtoint i32* %i30 to i64
  %119 = load i32, i32* %i30, align 4, !dbg !3478, !dp.md.instr.id !3479
  %inc38 = add nsw i32 %119, 1, !dbg !3478, !dp.md.instr.id !3480
  %120 = ptrtoint i32* %i30 to i64
  store i32 %inc38, i32* %i30, align 4, !dbg !3478, !dp.md.instr.id !3481
  call void @__dp_report_bb(i32 95)
  %121 = load i32, i32* %__dp_bb99, align 4
  call void @__dp_report_bb_pair(i32 %121, i32 124)
  store i32 1, i32* %__dp_bb99, align 4
  br label %for.cond31, !dbg !3482, !llvm.loop !3483, !dp.md.instr.id !3485

for.end39:                                        ; preds = %for.cond31
  call void @__dp_loop_exit(i32 49244, i32 8), !dp.md.instr.id !3486
  call void @llvm.dbg.declare(metadata i32* %i40, metadata !3487, metadata !DIExpression()), !dbg !3489, !dp.md.instr.id !3490
  %122 = ptrtoint i32* %i40 to i64
  store i32 0, i32* %i40, align 4, !dbg !3489, !dp.md.instr.id !3491
  call void @__dp_report_bb(i32 76)
  %123 = load i32, i32* %__dp_bb100, align 4
  call void @__dp_report_bb_pair(i32 %123, i32 126)
  br label %for.cond41, !dbg !3492, !dp.md.instr.id !3493

for.cond41:                                       ; preds = %for.inc52, %for.end39
  call void @__dp_loop_entry(i32 49244, i32 9), !dp.md.instr.id !3494
  %124 = ptrtoint i32* %i40 to i64
  %125 = load i32, i32* %i40, align 4, !dbg !3495, !dp.md.instr.id !3497
  %126 = ptrtoint i32* %threadCount.addr to i64
  %127 = load i32, i32* %threadCount.addr, align 4, !dbg !3498, !dp.md.instr.id !3499
  %cmp42 = icmp slt i32 %125, %127, !dbg !3500, !dp.md.instr.id !3501
  call void @__dp_report_bb(i32 98)
  store i32 1, i32* %__dp_bb100, align 4
  %128 = load i32, i32* %__dp_bb101, align 4
  call void @__dp_report_bb_pair(i32 %128, i32 128)
  br i1 %cmp42, label %for.body43, label %for.end54, !dbg !3502, !dp.md.instr.id !3503

for.body43:                                       ; preds = %for.cond41
  call void @__dp_loop_incr(i32 10)
  %nodes45 = getelementptr inbounds %struct.ECLgraph, %struct.ECLgraph* %g, i32 0, i32 0, !dbg !3504, !dp.md.instr.id !3506
  call void @__dp_call(i32 49245), !dbg !3507
  %call47 = call double* @_ZSt3refIdESt17reference_wrapperIT_ERS1_(double* nonnull align 8 dereferenceable(8) %error) #9, !dbg !3507, !dp.md.instr.id !3508
  %coerce.dive = getelementptr inbounds %"class.std::reference_wrapper", %"class.std::reference_wrapper"* %ref.tmp46, i32 0, i32 0, !dbg !3507, !dp.md.instr.id !3509
  %129 = ptrtoint double** %coerce.dive to i64
  call void @__dp_write(i32 981, i64 %129, i8* getelementptr inbounds ([20 x i8], [20 x i8]* @.str.121, i32 0, i32 0))
  store double* %call47, double** %coerce.dive, align 8, !dbg !3507, !dp.md.instr.id !3510
  call void @__dp_call(i32 49245), !dbg !3511
  invoke void @_ZNSt6threadC2IRFviRdPfS2_S2_fiiEJRKiSt17reference_wrapperIdERS2_S9_S9_RKfRiS6_EvEEOT_DpOT0_(%"class.std::thread"* %ref.tmp44, void (i32, double*, float*, float*, float*, float, i32, i32)* nonnull @_ZL9errorCalciRdPfS0_S0_fii, i32* nonnull align 4 dereferenceable(4) %nodes45, %"class.std::reference_wrapper"* nonnull align 8 dereferenceable(8) %ref.tmp46, float** nonnull align 8 dereferenceable(8) %outgoing_contrib, float** nonnull align 8 dereferenceable(8) %incoming_total, float** nonnull align 8 dereferenceable(8) %scores.addr, float* nonnull align 4 dereferenceable(4) %base_score, i32* nonnull align 4 dereferenceable(4) %i40, i32* nonnull align 4 dereferenceable(4) %threadCount.addr)
          to label %invoke.cont48 unwind label %lpad, !dbg !3511, !dp.md.instr.id !3512

invoke.cont48:                                    ; preds = %for.body43
  %130 = ptrtoint i32* %i40 to i64
  %131 = load i32, i32* %i40, align 4, !dbg !3513, !dp.md.instr.id !3514
  %idxprom49 = sext i32 %131 to i64, !dbg !3515, !dp.md.instr.id !3516
  %arrayidx50 = getelementptr inbounds %"class.std::thread", %"class.std::thread"* %vla, i64 %idxprom49, !dbg !3515, !dp.md.instr.id !3517
  call void @__dp_call(i32 49245), !dbg !3518
  %call51 = call nonnull align 8 dereferenceable(8) %"class.std::thread"* @_ZNSt6threadaSEOS_(%"class.std::thread"* %arrayidx50, %"class.std::thread"* nonnull align 8 dereferenceable(8) %ref.tmp44) #9, !dbg !3518, !dp.md.instr.id !3519
  call void @__dp_call(i32 49245), !dbg !3515
  call void @_ZNSt6threadD2Ev(%"class.std::thread"* %ref.tmp44) #9, !dbg !3515, !dp.md.instr.id !3520
  call void @__dp_report_bb(i32 81)
  %132 = load i32, i32* %__dp_bb101, align 4
  call void @__dp_report_bb_pair(i32 %132, i32 127)
  br label %for.inc52, !dbg !3521, !dp.md.instr.id !3522

for.inc52:                                        ; preds = %invoke.cont48
  %133 = ptrtoint i32* %i40 to i64
  %134 = load i32, i32* %i40, align 4, !dbg !3523, !dp.md.instr.id !3524
  %inc53 = add nsw i32 %134, 1, !dbg !3523, !dp.md.instr.id !3525
  %135 = ptrtoint i32* %i40 to i64
  store i32 %inc53, i32* %i40, align 4, !dbg !3523, !dp.md.instr.id !3526
  call void @__dp_report_bb(i32 99)
  %136 = load i32, i32* %__dp_bb101, align 4
  call void @__dp_report_bb_pair(i32 %136, i32 129)
  store i32 1, i32* %__dp_bb101, align 4
  br label %for.cond41, !dbg !3527, !llvm.loop !3528, !dp.md.instr.id !3530

for.end54:                                        ; preds = %for.cond41
  call void @__dp_loop_exit(i32 49247, i32 9), !dp.md.instr.id !3531
  call void @llvm.dbg.declare(metadata i32* %i55, metadata !3532, metadata !DIExpression()), !dbg !3534, !dp.md.instr.id !3535
  %137 = ptrtoint i32* %i55 to i64
  store i32 0, i32* %i55, align 4, !dbg !3534, !dp.md.instr.id !3536
  call void @__dp_report_bb(i32 97)
  %138 = load i32, i32* %__dp_bb102, align 4
  call void @__dp_report_bb_pair(i32 %138, i32 130)
  br label %for.cond56, !dbg !3537, !dp.md.instr.id !3538

for.cond56:                                       ; preds = %for.inc62, %for.end54
  call void @__dp_loop_entry(i32 49247, i32 10), !dp.md.instr.id !3539
  %139 = ptrtoint i32* %i55 to i64
  %140 = load i32, i32* %i55, align 4, !dbg !3540, !dp.md.instr.id !3542
  %141 = ptrtoint i32* %threadCount.addr to i64
  %142 = load i32, i32* %threadCount.addr, align 4, !dbg !3543, !dp.md.instr.id !3544
  %cmp57 = icmp slt i32 %140, %142, !dbg !3545, !dp.md.instr.id !3546
  call void @__dp_report_bb(i32 100)
  %143 = load i32, i32* %__dp_bb93, align 4
  call void @__dp_report_bb_pair(i32 %143, i32 109)
  store i32 1, i32* %__dp_bb102, align 4
  br i1 %cmp57, label %for.body58, label %for.end64, !dbg !3547, !dp.md.instr.id !3548

for.body58:                                       ; preds = %for.cond56
  call void @__dp_loop_incr(i32 11)
  %144 = ptrtoint i32* %i55 to i64
  %145 = load i32, i32* %i55, align 4, !dbg !3549, !dp.md.instr.id !3551
  %idxprom59 = sext i32 %145 to i64, !dbg !3552, !dp.md.instr.id !3553
  %arrayidx60 = getelementptr inbounds %"class.std::thread", %"class.std::thread"* %vla, i64 %idxprom59, !dbg !3552, !dp.md.instr.id !3554
  call void @__dp_call(i32 49248), !dbg !3555
  call void @__dp_report_bb(i32 79)
  %146 = load i32, i32* %__dp_bb93, align 4
  call void @__dp_report_bb_pair(i32 %146, i32 108)
  invoke void @_ZNSt6thread4joinEv(%"class.std::thread"* %arrayidx60)
          to label %invoke.cont61 unwind label %lpad, !dbg !3555, !dp.md.instr.id !3556

invoke.cont61:                                    ; preds = %for.body58
  br label %for.inc62, !dbg !3557, !dp.md.instr.id !3558

for.inc62:                                        ; preds = %invoke.cont61
  %147 = ptrtoint i32* %i55 to i64
  %148 = load i32, i32* %i55, align 4, !dbg !3559, !dp.md.instr.id !3560
  %inc63 = add nsw i32 %148, 1, !dbg !3559, !dp.md.instr.id !3561
  %149 = ptrtoint i32* %i55 to i64
  store i32 %inc63, i32* %i55, align 4, !dbg !3559, !dp.md.instr.id !3562
  call void @__dp_report_bb(i32 78)
  %150 = load i32, i32* %__dp_bb93, align 4
  call void @__dp_report_bb_pair(i32 %150, i32 107)
  store i32 1, i32* %__dp_bb93, align 4
  br label %for.cond56, !dbg !3563, !llvm.loop !3564, !dp.md.instr.id !3566

for.end64:                                        ; preds = %for.cond56
  call void @__dp_loop_exit(i32 49250, i32 10), !dp.md.instr.id !3567
  %151 = ptrtoint double* %error to i64
  call void @__dp_read(i32 1012, i64 %151, i8* getelementptr inbounds ([6 x i8], [6 x i8]* @.str.97, i32 0, i32 0))
  %152 = load double, double* %error, align 8, !dbg !3568, !dp.md.instr.id !3570
  %cmp65 = fcmp olt double %152, 0x3F1A36E2E0000000, !dbg !3571, !dp.md.instr.id !3572
  br i1 %cmp65, label %if.then, label %if.end, !dbg !3573, !dp.md.instr.id !3574

if.then:                                          ; preds = %for.end64
  br label %for.end68, !dbg !3575, !dp.md.instr.id !3576

if.end:                                           ; preds = %for.end64
  br label %for.inc66, !dbg !3577, !dp.md.instr.id !3578

for.inc66:                                        ; preds = %if.end
  %153 = ptrtoint i32* %iter to i64
  %154 = load i32, i32* %iter, align 4, !dbg !3579, !dp.md.instr.id !3580
  %inc67 = add nsw i32 %154, 1, !dbg !3579, !dp.md.instr.id !3581
  %155 = ptrtoint i32* %iter to i64
  store i32 %inc67, i32* %iter, align 4, !dbg !3579, !dp.md.instr.id !3582
  call void @__dp_report_bb(i32 85)
  %156 = load i32, i32* %__dp_bb94, align 4
  call void @__dp_report_bb_pair(i32 %156, i32 112)
  store i32 1, i32* %__dp_bb94, align 4
  br label %for.cond, !dbg !3583, !llvm.loop !3584, !dp.md.instr.id !3586

for.end68:                                        ; preds = %if.then, %for.cond
  call void @__dp_loop_exit(i32 49253, i32 5), !dp.md.instr.id !3587
  call void @__dp_call(i32 49253), !dbg !3588
  %call69 = call i32 @gettimeofday(%struct.timeval* %end, i8* null) #9, !dbg !3588, !dp.md.instr.id !3589
  call void @llvm.dbg.declare(metadata double* %runtime, metadata !3590, metadata !DIExpression()), !dbg !3592, !dp.md.instr.id !3593
  %tv_sec = getelementptr inbounds %struct.timeval, %struct.timeval* %end, i32 0, i32 0, !dbg !3594, !dp.md.instr.id !3595
  %157 = ptrtoint i64* %tv_sec to i64
  call void @__dp_read(i32 1025, i64 %157, i8* getelementptr inbounds ([14 x i8], [14 x i8]* @.str.122, i32 0, i32 0))
  %158 = load i64, i64* %tv_sec, align 8, !dbg !3594, !dp.md.instr.id !3596
  %conv70 = sitofp i64 %158 to double, !dbg !3597, !dp.md.instr.id !3598
  %tv_usec = getelementptr inbounds %struct.timeval, %struct.timeval* %end, i32 0, i32 1, !dbg !3599, !dp.md.instr.id !3600
  %159 = ptrtoint i64* %tv_usec to i64
  call void @__dp_read(i32 1028, i64 %159, i8* getelementptr inbounds ([14 x i8], [14 x i8]* @.str.122, i32 0, i32 0))
  %160 = load i64, i64* %tv_usec, align 8, !dbg !3599, !dp.md.instr.id !3601
  %conv71 = sitofp i64 %160 to double, !dbg !3602, !dp.md.instr.id !3603
  %div72 = fdiv double %conv71, 1.000000e+06, !dbg !3604, !dp.md.instr.id !3605
  %add = fadd double %conv70, %div72, !dbg !3606, !dp.md.instr.id !3607
  %tv_sec73 = getelementptr inbounds %struct.timeval, %struct.timeval* %start, i32 0, i32 0, !dbg !3608, !dp.md.instr.id !3609
  %161 = ptrtoint i64* %tv_sec73 to i64
  call void @__dp_read(i32 1033, i64 %161, i8* getelementptr inbounds ([16 x i8], [16 x i8]* @.str.123, i32 0, i32 0))
  %162 = load i64, i64* %tv_sec73, align 8, !dbg !3608, !dp.md.instr.id !3610
  %conv74 = sitofp i64 %162 to double, !dbg !3611, !dp.md.instr.id !3612
  %sub = fsub double %add, %conv74, !dbg !3613, !dp.md.instr.id !3614
  %tv_usec75 = getelementptr inbounds %struct.timeval, %struct.timeval* %start, i32 0, i32 1, !dbg !3615, !dp.md.instr.id !3616
  %163 = ptrtoint i64* %tv_usec75 to i64
  call void @__dp_read(i32 1037, i64 %163, i8* getelementptr inbounds ([16 x i8], [16 x i8]* @.str.123, i32 0, i32 0))
  %164 = load i64, i64* %tv_usec75, align 8, !dbg !3615, !dp.md.instr.id !3617
  %conv76 = sitofp i64 %164 to double, !dbg !3618, !dp.md.instr.id !3619
  %div77 = fdiv double %conv76, 1.000000e+06, !dbg !3620, !dp.md.instr.id !3621
  %sub78 = fsub double %sub, %div77, !dbg !3622, !dp.md.instr.id !3623
  %165 = ptrtoint double* %runtime to i64
  store double %sub78, double* %runtime, align 8, !dbg !3592, !dp.md.instr.id !3624
  %166 = ptrtoint i32* %iter to i64
  %167 = load i32, i32* %iter, align 4, !dbg !3625, !dp.md.instr.id !3627
  %cmp79 = icmp slt i32 %167, 100, !dbg !3628, !dp.md.instr.id !3629
  call void @__dp_report_bb(i32 83)
  %168 = load i32, i32* %__dp_bb94, align 4
  call void @__dp_report_bb_pair(i32 %168, i32 110)
  br i1 %cmp79, label %if.then80, label %if.end82, !dbg !3630, !dp.md.instr.id !3631

if.then80:                                        ; preds = %for.end68
  %169 = ptrtoint i32* %iter to i64
  %170 = load i32, i32* %iter, align 4, !dbg !3632, !dp.md.instr.id !3633
  %inc81 = add nsw i32 %170, 1, !dbg !3632, !dp.md.instr.id !3634
  %171 = ptrtoint i32* %iter to i64
  store i32 %inc81, i32* %iter, align 4, !dbg !3632, !dp.md.instr.id !3635
  call void @__dp_report_bb(i32 101)
  %172 = load i32, i32* %__dp_bb94, align 4
  call void @__dp_report_bb_pair(i32 %172, i32 113)
  store i32 1, i32* %__dp_bb103, align 4
  br label %if.end82, !dbg !3636, !dp.md.instr.id !3637

if.end82:                                         ; preds = %if.then80, %for.end68
  %173 = ptrtoint i32* %iter to i64
  %174 = load i32, i32* %iter, align 4, !dbg !3638, !dp.md.instr.id !3639
  call void @__dp_call(i32 49256), !dbg !3640
  call void @__dp_report_bb(i32 102)
  %175 = load i32, i32* %__dp_bb94, align 4
  call void @__dp_report_bb_pair(i32 %175, i32 114)
  %176 = load i32, i32* %__dp_bb103, align 4
  call void @__dp_report_bb_pair(i32 %176, i32 131)
  %call84 = invoke i32 (i8*, ...) @printf(i8* getelementptr inbounds ([22 x i8], [22 x i8]* @.str.29, i64 0, i64 0), i32 %174)
          to label %invoke.cont83 unwind label %lpad, !dbg !3640, !dp.md.instr.id !3641

invoke.cont83:                                    ; preds = %if.end82
  %177 = ptrtoint double* %runtime to i64
  %178 = load double, double* %runtime, align 8, !dbg !3642, !dp.md.instr.id !3643
  %179 = ptrtoint double* %retval to i64
  store double %178, double* %retval, align 8, !dbg !3644, !dp.md.instr.id !3645
  %180 = getelementptr inbounds %"class.std::thread", %"class.std::thread"* %vla, i64 %42, !dbg !3446, !dp.md.instr.id !3646
  %arraydestroy.isempty = icmp eq %"class.std::thread"* %vla, %180, !dbg !3446, !dp.md.instr.id !3647
  call void @__dp_report_bb(i32 103)
  br i1 %arraydestroy.isempty, label %arraydestroy.done85, label %arraydestroy.body, !dbg !3446, !dp.md.instr.id !3648

arraydestroy.body:                                ; preds = %arraydestroy.body, %invoke.cont83
  %arraydestroy.elementPast = phi %"class.std::thread"* [ %180, %invoke.cont83 ], [ %arraydestroy.element, %arraydestroy.body ], !dbg !3446, !dp.md.instr.id !3649
  %arraydestroy.element = getelementptr inbounds %"class.std::thread", %"class.std::thread"* %arraydestroy.elementPast, i64 -1, !dbg !3446, !dp.md.instr.id !3650
  call void @__dp_call(i32 49259), !dbg !3446
  call void @_ZNSt6threadD2Ev(%"class.std::thread"* %arraydestroy.element) #9, !dbg !3446, !dp.md.instr.id !3651
  %arraydestroy.done = icmp eq %"class.std::thread"* %arraydestroy.element, %vla, !dbg !3446, !dp.md.instr.id !3652
  br i1 %arraydestroy.done, label %arraydestroy.done85, label %arraydestroy.body, !dbg !3446, !dp.md.instr.id !3653

arraydestroy.done85:                              ; preds = %arraydestroy.body, %invoke.cont83
  %181 = ptrtoint i8** %saved_stack to i64
  %182 = load i8*, i8** %saved_stack, align 8, !dbg !3446, !dp.md.instr.id !3654
  call void @__dp_call(i32 49259), !dbg !3446
  call void @llvm.stackrestore(i8* %182), !dbg !3446, !dp.md.instr.id !3655
  %183 = ptrtoint double* %retval to i64
  %184 = load double, double* %retval, align 8, !dbg !3446, !dp.md.instr.id !3656
  call void @__dp_report_bb(i32 105)
  call void @__dp_func_exit(i32 49259, i32 0), !dbg !3446
  ret double %184, !dbg !3446, !dp.md.instr.id !3657

arraydestroy.body87:                              ; preds = %arraydestroy.body87, %lpad
  %arraydestroy.elementPast88 = phi %"class.std::thread"* [ %107, %lpad ], [ %arraydestroy.element89, %arraydestroy.body87 ], !dbg !3446, !dp.md.instr.id !3658
  %arraydestroy.element89 = getelementptr inbounds %"class.std::thread", %"class.std::thread"* %arraydestroy.elementPast88, i64 -1, !dbg !3446, !dp.md.instr.id !3659
  call void @__dp_call(i32 49259), !dbg !3446
  call void @_ZNSt6threadD2Ev(%"class.std::thread"* %arraydestroy.element89) #9, !dbg !3446, !dp.md.instr.id !3660
  %arraydestroy.done90 = icmp eq %"class.std::thread"* %arraydestroy.element89, %vla, !dbg !3446, !dp.md.instr.id !3661
  br i1 %arraydestroy.done90, label %arraydestroy.done91, label %arraydestroy.body87, !dbg !3446, !dp.md.instr.id !3662

arraydestroy.done91:                              ; preds = %arraydestroy.body87, %lpad
  br label %eh.resume, !dbg !3446, !dp.md.instr.id !3663

eh.resume:                                        ; preds = %arraydestroy.done91
  %185 = ptrtoint i8** %exn.slot to i64
  %exn = load i8*, i8** %exn.slot, align 8, !dbg !3446, !dp.md.instr.id !3664
  %186 = ptrtoint i32* %ehselector.slot to i64
  %sel = load i32, i32* %ehselector.slot, align 4, !dbg !3446, !dp.md.instr.id !3665
  %lpad.val = insertvalue { i8*, i32 } undef, i8* %exn, 0, !dbg !3446, !dp.md.instr.id !3666
  %lpad.val92 = insertvalue { i8*, i32 } %lpad.val, i32 %sel, 1, !dbg !3446, !dp.md.instr.id !3667
  call void @__dp_report_bb(i32 104)
  resume { i8*, i32 } %lpad.val92, !dbg !3446, !dp.md.instr.id !3668
}

; Function Attrs: argmemonly nounwind willreturn
declare void @llvm.memcpy.p0i8.p0i8.i64(i8* noalias nocapture writeonly, i8* noalias nocapture readonly, i64, i1 immarg) #8

; Function Attrs: noinline nounwind optnone uwtable
define linkonce_odr float @_ZSt4fabsf(float %__x) #5 comdat !dbg !3669 {
entry:
  %__x.addr = alloca float, align 4
  store float %__x, float* %__x.addr, align 4
  call void @llvm.dbg.declare(metadata float* %__x.addr, metadata !3670, metadata !DIExpression()), !dbg !3671
  %0 = load float, float* %__x.addr, align 4, !dbg !3672
  %1 = call float @llvm.fabs.f32(float %0), !dbg !3673
  ret float %1, !dbg !3674
}

; Function Attrs: nounwind readnone speculatable willreturn
declare float @llvm.fabs.f32(float) #1

; Function Attrs: nounwind
declare i8* @llvm.stacksave() #9

; Function Attrs: noinline nounwind optnone uwtable
define linkonce_odr void @_ZNSt6threadC2Ev(%"class.std::thread"* %this) unnamed_addr #5 comdat align 2 !dbg !3675 {
entry:
  %this.addr = alloca %"class.std::thread"*, align 8
  store %"class.std::thread"* %this, %"class.std::thread"** %this.addr, align 8
  call void @llvm.dbg.declare(metadata %"class.std::thread"** %this.addr, metadata !3676, metadata !DIExpression()), !dbg !3678
  %this1 = load %"class.std::thread"*, %"class.std::thread"** %this.addr, align 8
  %_M_id = getelementptr inbounds %"class.std::thread", %"class.std::thread"* %this1, i32 0, i32 0, !dbg !3679
  call void @_ZNSt6thread2idC2Ev(%"class.std::thread::id"* %_M_id) #9, !dbg !3679
  ret void, !dbg !3680
}

; Function Attrs: nounwind
declare i32 @gettimeofday(%struct.timeval*, i8*) #4

; Function Attrs: noinline optnone uwtable
define internal void @_ZL12incomingCalc8ECLgraphPfS0_ii(%struct.ECLgraph* byval(%struct.ECLgraph) align 8 %g, float* %outgoing_contrib, float* %incoming_total, i32 %threadID, i32 %threadCount) #0 !dbg !3681 {
entry:
  call void @__dp_func_entry(i32 49193, i32 0), !dp.md.instr.id !3684
  %__dp_bb30 = alloca i32, align 4
  store i32 0, i32* %__dp_bb30, align 4
  %__dp_bb29 = alloca i32, align 4
  store i32 0, i32* %__dp_bb29, align 4
  %__dp_bb28 = alloca i32, align 4
  store i32 0, i32* %__dp_bb28, align 4
  %__dp_bb27 = alloca i32, align 4
  store i32 0, i32* %__dp_bb27, align 4
  %__dp_bb = alloca i32, align 4
  store i32 0, i32* %__dp_bb, align 4
  %outgoing_contrib.addr = alloca float*, align 8, !dp.md.instr.id !3685
  %0 = ptrtoint float** %outgoing_contrib.addr to i64, !dp.md.instr.id !3686
  %incoming_total.addr = alloca float*, align 8, !dp.md.instr.id !3687
  %1 = ptrtoint float** %incoming_total.addr to i64, !dp.md.instr.id !3688
  %threadID.addr = alloca i32, align 4, !dp.md.instr.id !3689
  %2 = ptrtoint i32* %threadID.addr to i64, !dp.md.instr.id !3690
  %threadCount.addr = alloca i32, align 4, !dp.md.instr.id !3691
  %3 = ptrtoint i32* %threadCount.addr to i64, !dp.md.instr.id !3692
  %begNode = alloca i32, align 4, !dp.md.instr.id !3693
  %4 = ptrtoint i32* %begNode to i64, !dp.md.instr.id !3694
  %endNode = alloca i32, align 4, !dp.md.instr.id !3695
  %5 = ptrtoint i32* %endNode to i64, !dp.md.instr.id !3696
  %i = alloca i32, align 4, !dp.md.instr.id !3697
  %6 = ptrtoint i32* %i to i64, !dp.md.instr.id !3698
  %outgoing = alloca float, align 4, !dp.md.instr.id !3699
  %7 = ptrtoint float* %outgoing to i64, !dp.md.instr.id !3700
  %j = alloca i32, align 4, !dp.md.instr.id !3701
  %8 = ptrtoint i32* %j to i64, !dp.md.instr.id !3702
  %nei = alloca i32, align 4, !dp.md.instr.id !3703
  %9 = ptrtoint i32* %nei to i64, !dbg !3704, !dp.md.instr.id !3705
  call void @llvm.dbg.declare(metadata %struct.ECLgraph* %g, metadata !3706, metadata !DIExpression()), !dbg !3704, !dp.md.instr.id !3707
  %10 = ptrtoint float** %outgoing_contrib.addr to i64
  store float* %outgoing_contrib, float** %outgoing_contrib.addr, align 8, !dp.md.instr.id !3708
  call void @llvm.dbg.declare(metadata float** %outgoing_contrib.addr, metadata !3709, metadata !DIExpression()), !dbg !3710, !dp.md.instr.id !3711
  %11 = ptrtoint float** %incoming_total.addr to i64
  store float* %incoming_total, float** %incoming_total.addr, align 8, !dp.md.instr.id !3712
  call void @llvm.dbg.declare(metadata float** %incoming_total.addr, metadata !3713, metadata !DIExpression()), !dbg !3714, !dp.md.instr.id !3715
  %12 = ptrtoint i32* %threadID.addr to i64
  store i32 %threadID, i32* %threadID.addr, align 4, !dp.md.instr.id !3716
  call void @llvm.dbg.declare(metadata i32* %threadID.addr, metadata !3717, metadata !DIExpression()), !dbg !3718, !dp.md.instr.id !3719
  %13 = ptrtoint i32* %threadCount.addr to i64
  store i32 %threadCount, i32* %threadCount.addr, align 4, !dp.md.instr.id !3720
  call void @llvm.dbg.declare(metadata i32* %threadCount.addr, metadata !3721, metadata !DIExpression()), !dbg !3722, !dp.md.instr.id !3723
  call void @llvm.dbg.declare(metadata i32* %begNode, metadata !3724, metadata !DIExpression()), !dbg !3725, !dp.md.instr.id !3726
  %14 = ptrtoint i32* %threadID.addr to i64
  %15 = load i32, i32* %threadID.addr, align 4, !dbg !3727, !dp.md.instr.id !3728
  %conv = sext i32 %15 to i64, !dbg !3727, !dp.md.instr.id !3729
  %nodes = getelementptr inbounds %struct.ECLgraph, %struct.ECLgraph* %g, i32 0, i32 0, !dbg !3730, !dp.md.instr.id !3731
  %16 = ptrtoint i32* %nodes to i64
  call void @__dp_read(i32 1120, i64 %16, i8* getelementptr inbounds ([12 x i8], [12 x i8]* @.str.36, i32 0, i32 0))
  %17 = load i32, i32* %nodes, align 8, !dbg !3730, !dp.md.instr.id !3732
  %conv1 = sext i32 %17 to i64, !dbg !3733, !dp.md.instr.id !3734
  %mul = mul nsw i64 %conv, %conv1, !dbg !3735, !dp.md.instr.id !3736
  %18 = ptrtoint i32* %threadCount.addr to i64
  %19 = load i32, i32* %threadCount.addr, align 4, !dbg !3737, !dp.md.instr.id !3738
  %conv2 = sext i32 %19 to i64, !dbg !3737, !dp.md.instr.id !3739
  %div = sdiv i64 %mul, %conv2, !dbg !3740, !dp.md.instr.id !3741
  %conv3 = trunc i64 %div to i32, !dbg !3727, !dp.md.instr.id !3742
  %20 = ptrtoint i32* %begNode to i64
  store i32 %conv3, i32* %begNode, align 4, !dbg !3725, !dp.md.instr.id !3743
  call void @llvm.dbg.declare(metadata i32* %endNode, metadata !3744, metadata !DIExpression()), !dbg !3745, !dp.md.instr.id !3746
  %21 = ptrtoint i32* %threadID.addr to i64
  %22 = load i32, i32* %threadID.addr, align 4, !dbg !3747, !dp.md.instr.id !3748
  %add = add nsw i32 %22, 1, !dbg !3749, !dp.md.instr.id !3750
  %conv4 = sext i32 %add to i64, !dbg !3751, !dp.md.instr.id !3752
  %nodes5 = getelementptr inbounds %struct.ECLgraph, %struct.ECLgraph* %g, i32 0, i32 0, !dbg !3753, !dp.md.instr.id !3754
  %23 = ptrtoint i32* %nodes5 to i64
  call void @__dp_read(i32 1133, i64 %23, i8* getelementptr inbounds ([12 x i8], [12 x i8]* @.str.36, i32 0, i32 0))
  %24 = load i32, i32* %nodes5, align 8, !dbg !3753, !dp.md.instr.id !3755
  %conv6 = sext i32 %24 to i64, !dbg !3756, !dp.md.instr.id !3757
  %mul7 = mul nsw i64 %conv4, %conv6, !dbg !3758, !dp.md.instr.id !3759
  %25 = ptrtoint i32* %threadCount.addr to i64
  %26 = load i32, i32* %threadCount.addr, align 4, !dbg !3760, !dp.md.instr.id !3761
  %conv8 = sext i32 %26 to i64, !dbg !3760, !dp.md.instr.id !3762
  %div9 = sdiv i64 %mul7, %conv8, !dbg !3763, !dp.md.instr.id !3764
  %conv10 = trunc i64 %div9 to i32, !dbg !3751, !dp.md.instr.id !3765
  %27 = ptrtoint i32* %endNode to i64
  store i32 %conv10, i32* %endNode, align 4, !dbg !3745, !dp.md.instr.id !3766
  call void @llvm.dbg.declare(metadata i32* %i, metadata !3767, metadata !DIExpression()), !dbg !3769, !dp.md.instr.id !3770
  %28 = ptrtoint i32* %begNode to i64
  %29 = load i32, i32* %begNode, align 4, !dbg !3771, !dp.md.instr.id !3772
  %30 = ptrtoint i32* %i to i64
  store i32 %29, i32* %i, align 4, !dbg !3769, !dp.md.instr.id !3773
  call void @__dp_report_bb(i32 132)
  br label %for.cond, !dbg !3774, !dp.md.instr.id !3775

for.cond:                                         ; preds = %for.inc24, %entry
  call void @__dp_loop_entry(i32 49197, i32 11), !dp.md.instr.id !3776
  %31 = ptrtoint i32* %i to i64
  %32 = load i32, i32* %i, align 4, !dbg !3777, !dp.md.instr.id !3779
  %33 = ptrtoint i32* %endNode to i64
  %34 = load i32, i32* %endNode, align 4, !dbg !3780, !dp.md.instr.id !3781
  %cmp = icmp slt i32 %32, %34, !dbg !3782, !dp.md.instr.id !3783
  call void @__dp_report_bb(i32 133)
  %35 = load i32, i32* %__dp_bb, align 4
  call void @__dp_report_bb_pair(i32 %35, i32 139)
  br i1 %cmp, label %for.body, label %for.end26, !dbg !3784, !dp.md.instr.id !3785

for.body:                                         ; preds = %for.cond
  call void @__dp_loop_incr(i32 12)
  call void @llvm.dbg.declare(metadata float* %outgoing, metadata !3786, metadata !DIExpression()), !dbg !3788, !dp.md.instr.id !3789
  %36 = ptrtoint float** %outgoing_contrib.addr to i64
  %37 = load float*, float** %outgoing_contrib.addr, align 8, !dbg !3790, !dp.md.instr.id !3791
  %38 = ptrtoint i32* %i to i64
  %39 = load i32, i32* %i, align 4, !dbg !3792, !dp.md.instr.id !3793
  %idxprom = sext i32 %39 to i64, !dbg !3790, !dp.md.instr.id !3794
  %arrayidx = getelementptr inbounds float, float* %37, i64 %idxprom, !dbg !3790, !dp.md.instr.id !3795
  %40 = ptrtoint float* %arrayidx to i64
  call void @__dp_read(i32 1155, i64 %40, i8* getelementptr inbounds ([27 x i8], [27 x i8]* @.str.119, i32 0, i32 0))
  %41 = load float, float* %arrayidx, align 4, !dbg !3790, !dp.md.instr.id !3796
  %42 = ptrtoint float* %outgoing to i64
  store float %41, float* %outgoing, align 4, !dbg !3788, !dp.md.instr.id !3797
  call void @llvm.dbg.declare(metadata i32* %j, metadata !3798, metadata !DIExpression()), !dbg !3800, !dp.md.instr.id !3801
  %nindex = getelementptr inbounds %struct.ECLgraph, %struct.ECLgraph* %g, i32 0, i32 2, !dbg !3802, !dp.md.instr.id !3803
  %43 = ptrtoint i32** %nindex to i64
  call void @__dp_read(i32 1159, i64 %43, i8* getelementptr inbounds ([12 x i8], [12 x i8]* @.str.36, i32 0, i32 0))
  %44 = load i32*, i32** %nindex, align 8, !dbg !3802, !dp.md.instr.id !3804
  %45 = ptrtoint i32* %i to i64
  %46 = load i32, i32* %i, align 4, !dbg !3805, !dp.md.instr.id !3806
  %idxprom11 = sext i32 %46 to i64, !dbg !3807, !dp.md.instr.id !3808
  %arrayidx12 = getelementptr inbounds i32, i32* %44, i64 %idxprom11, !dbg !3807, !dp.md.instr.id !3809
  %47 = ptrtoint i32* %arrayidx12 to i64
  call void @__dp_read(i32 1163, i64 %47, i8* getelementptr inbounds ([22 x i8], [22 x i8]* @.str.102, i32 0, i32 0))
  %48 = load i32, i32* %arrayidx12, align 4, !dbg !3807, !dp.md.instr.id !3810
  %49 = ptrtoint i32* %j to i64
  store i32 %48, i32* %j, align 4, !dbg !3800, !dp.md.instr.id !3811
  call void @__dp_report_bb(i32 135)
  %50 = load i32, i32* %__dp_bb, align 4
  call void @__dp_report_bb_pair(i32 %50, i32 141)
  %51 = load i32, i32* %__dp_bb27, align 4
  call void @__dp_report_bb_pair(i32 %51, i32 143)
  store i32 1, i32* %__dp_bb27, align 4
  %52 = load i32, i32* %__dp_bb28, align 4
  call void @__dp_report_bb_pair(i32 %52, i32 144)
  %53 = load i32, i32* %__dp_bb30, align 4
  call void @__dp_report_bb_pair(i32 %53, i32 148)
  br label %for.cond13, !dbg !3812, !dp.md.instr.id !3813

for.cond13:                                       ; preds = %for.inc, %for.body
  call void @__dp_loop_entry(i32 49199, i32 12), !dp.md.instr.id !3814
  %54 = ptrtoint i32* %j to i64
  %55 = load i32, i32* %j, align 4, !dbg !3815, !dp.md.instr.id !3817
  %nindex14 = getelementptr inbounds %struct.ECLgraph, %struct.ECLgraph* %g, i32 0, i32 2, !dbg !3818, !dp.md.instr.id !3819
  %56 = ptrtoint i32** %nindex14 to i64
  call void @__dp_read(i32 1169, i64 %56, i8* getelementptr inbounds ([12 x i8], [12 x i8]* @.str.36, i32 0, i32 0))
  %57 = load i32*, i32** %nindex14, align 8, !dbg !3818, !dp.md.instr.id !3820
  %58 = ptrtoint i32* %i to i64
  %59 = load i32, i32* %i, align 4, !dbg !3821, !dp.md.instr.id !3822
  %add15 = add nsw i32 %59, 1, !dbg !3823, !dp.md.instr.id !3824
  %idxprom16 = sext i32 %add15 to i64, !dbg !3825, !dp.md.instr.id !3826
  %arrayidx17 = getelementptr inbounds i32, i32* %57, i64 %idxprom16, !dbg !3825, !dp.md.instr.id !3827
  %60 = ptrtoint i32* %arrayidx17 to i64
  call void @__dp_read(i32 1174, i64 %60, i8* getelementptr inbounds ([22 x i8], [22 x i8]* @.str.102, i32 0, i32 0))
  %61 = load i32, i32* %arrayidx17, align 4, !dbg !3825, !dp.md.instr.id !3828
  %cmp18 = icmp slt i32 %55, %61, !dbg !3829, !dp.md.instr.id !3830
  call void @__dp_report_bb(i32 136)
  %62 = load i32, i32* %__dp_bb, align 4
  call void @__dp_report_bb_pair(i32 %62, i32 142)
  store i32 1, i32* %__dp_bb28, align 4
  %63 = load i32, i32* %__dp_bb29, align 4
  call void @__dp_report_bb_pair(i32 %63, i32 145)
  br i1 %cmp18, label %for.body19, label %for.end, !dbg !3831, !dp.md.instr.id !3832

for.body19:                                       ; preds = %for.cond13
  call void @__dp_loop_incr(i32 13)
  call void @llvm.dbg.declare(metadata i32* %nei, metadata !3833, metadata !DIExpression()), !dbg !3835, !dp.md.instr.id !3836
  %nlist = getelementptr inbounds %struct.ECLgraph, %struct.ECLgraph* %g, i32 0, i32 3, !dbg !3837, !dp.md.instr.id !3838
  %64 = ptrtoint i32** %nlist to i64
  call void @__dp_read(i32 1179, i64 %64, i8* getelementptr inbounds ([12 x i8], [12 x i8]* @.str.36, i32 0, i32 0))
  %65 = load i32*, i32** %nlist, align 8, !dbg !3837, !dp.md.instr.id !3839
  %66 = ptrtoint i32* %j to i64
  %67 = load i32, i32* %j, align 4, !dbg !3840, !dp.md.instr.id !3841
  %idxprom20 = sext i32 %67 to i64, !dbg !3842, !dp.md.instr.id !3843
  %arrayidx21 = getelementptr inbounds i32, i32* %65, i64 %idxprom20, !dbg !3842, !dp.md.instr.id !3844
  %68 = ptrtoint i32* %arrayidx21 to i64
  call void @__dp_read(i32 1183, i64 %68, i8* getelementptr inbounds ([22 x i8], [22 x i8]* @.str.102, i32 0, i32 0))
  %69 = load i32, i32* %arrayidx21, align 4, !dbg !3842, !dp.md.instr.id !3845
  %70 = ptrtoint i32* %nei to i64
  store i32 %69, i32* %nei, align 4, !dbg !3835, !dp.md.instr.id !3846
  %71 = ptrtoint float** %incoming_total.addr to i64
  %72 = load float*, float** %incoming_total.addr, align 8, !dbg !3847, !dp.md.instr.id !3848
  %73 = ptrtoint i32* %nei to i64
  %74 = load i32, i32* %nei, align 4, !dbg !3849, !dp.md.instr.id !3850
  %idxprom22 = sext i32 %74 to i64, !dbg !3847, !dp.md.instr.id !3851
  %arrayidx23 = getelementptr inbounds float, float* %72, i64 %idxprom22, !dbg !3847, !dp.md.instr.id !3852
  %75 = ptrtoint float* %outgoing to i64
  %76 = load float, float* %outgoing, align 4, !dbg !3853, !dp.md.instr.id !3854
  call void @__dp_call(i32 49201), !dbg !3855
  %call = call float @_ZL9atomicAddIfET_PS0_S0_(float* %arrayidx23, float %76), !dbg !3855, !dp.md.instr.id !3856
  call void @__dp_report_bb(i32 138)
  %77 = load i32, i32* %__dp_bb29, align 4
  call void @__dp_report_bb_pair(i32 %77, i32 147)
  %78 = load i32, i32* %__dp_bb30, align 4
  call void @__dp_report_bb_pair(i32 %78, i32 149)
  store i32 1, i32* %__dp_bb30, align 4
  br label %for.inc, !dbg !3857, !dp.md.instr.id !3858

for.inc:                                          ; preds = %for.body19
  %79 = ptrtoint i32* %j to i64
  %80 = load i32, i32* %j, align 4, !dbg !3859, !dp.md.instr.id !3860
  %inc = add nsw i32 %80, 1, !dbg !3859, !dp.md.instr.id !3861
  %81 = ptrtoint i32* %j to i64
  store i32 %inc, i32* %j, align 4, !dbg !3859, !dp.md.instr.id !3862
  call void @__dp_report_bb(i32 137)
  %82 = load i32, i32* %__dp_bb29, align 4
  call void @__dp_report_bb_pair(i32 %82, i32 146)
  store i32 1, i32* %__dp_bb29, align 4
  br label %for.cond13, !dbg !3863, !llvm.loop !3864, !dp.md.instr.id !3866

for.end:                                          ; preds = %for.cond13
  call void @__dp_loop_exit(i32 49203, i32 12), !dp.md.instr.id !3867
  br label %for.inc24, !dbg !3868, !dp.md.instr.id !3869

for.inc24:                                        ; preds = %for.end
  %83 = ptrtoint i32* %i to i64
  %84 = load i32, i32* %i, align 4, !dbg !3870, !dp.md.instr.id !3871
  %inc25 = add nsw i32 %84, 1, !dbg !3870, !dp.md.instr.id !3872
  %85 = ptrtoint i32* %i to i64
  store i32 %inc25, i32* %i, align 4, !dbg !3870, !dp.md.instr.id !3873
  call void @__dp_report_bb(i32 134)
  %86 = load i32, i32* %__dp_bb, align 4
  call void @__dp_report_bb_pair(i32 %86, i32 140)
  store i32 1, i32* %__dp_bb, align 4
  br label %for.cond, !dbg !3874, !llvm.loop !3875, !dp.md.instr.id !3877

for.end26:                                        ; preds = %for.cond
  call void @__dp_loop_exit(i32 49204, i32 11), !dp.md.instr.id !3878
  call void @__dp_func_exit(i32 49204, i32 0), !dbg !3879
  ret void, !dbg !3879, !dp.md.instr.id !3880
}

; Function Attrs: noinline optnone uwtable
define linkonce_odr void @_ZNSt6threadC2IRFv8ECLgraphPfS2_iiEJRKS1_RS2_S7_RiRKiEvEEOT_DpOT0_(%"class.std::thread"* %this, void (%struct.ECLgraph*, float*, float*, i32, i32)* nonnull %__f, %struct.ECLgraph* nonnull align 8 dereferenceable(32) %__args, float** nonnull align 8 dereferenceable(8) %__args1, float** nonnull align 8 dereferenceable(8) %__args3, i32* nonnull align 4 dereferenceable(4) %__args5, i32* nonnull align 4 dereferenceable(4) %__args7) unnamed_addr #0 comdat align 2 personality i8* bitcast (i32 (...)* @__gxx_personality_v0 to i8*) !dbg !3881 {
entry:
  %this.addr = alloca %"class.std::thread"*, align 8
  %__f.addr = alloca void (%struct.ECLgraph*, float*, float*, i32, i32)*, align 8
  %__args.addr = alloca %struct.ECLgraph*, align 8
  %__args.addr2 = alloca float**, align 8
  %__args.addr4 = alloca float**, align 8
  %__args.addr6 = alloca i32*, align 8
  %__args.addr8 = alloca i32*, align 8
  %__depend = alloca i8*, align 8
  %agg.tmp = alloca %"class.std::unique_ptr", align 8
  %exn.slot = alloca i8*, align 8
  %ehselector.slot = alloca i32, align 4
  store %"class.std::thread"* %this, %"class.std::thread"** %this.addr, align 8
  call void @llvm.dbg.declare(metadata %"class.std::thread"** %this.addr, metadata !3898, metadata !DIExpression()), !dbg !3899
  store void (%struct.ECLgraph*, float*, float*, i32, i32)* %__f, void (%struct.ECLgraph*, float*, float*, i32, i32)** %__f.addr, align 8
  call void @llvm.dbg.declare(metadata void (%struct.ECLgraph*, float*, float*, i32, i32)** %__f.addr, metadata !3900, metadata !DIExpression()), !dbg !3901
  store %struct.ECLgraph* %__args, %struct.ECLgraph** %__args.addr, align 8
  call void @llvm.dbg.declare(metadata %struct.ECLgraph** %__args.addr, metadata !3902, metadata !DIExpression()), !dbg !3903
  store float** %__args1, float*** %__args.addr2, align 8
  call void @llvm.dbg.declare(metadata float*** %__args.addr2, metadata !3904, metadata !DIExpression()), !dbg !3903
  store float** %__args3, float*** %__args.addr4, align 8
  call void @llvm.dbg.declare(metadata float*** %__args.addr4, metadata !3905, metadata !DIExpression()), !dbg !3903
  store i32* %__args5, i32** %__args.addr6, align 8
  call void @llvm.dbg.declare(metadata i32** %__args.addr6, metadata !3906, metadata !DIExpression()), !dbg !3903
  store i32* %__args7, i32** %__args.addr8, align 8
  call void @llvm.dbg.declare(metadata i32** %__args.addr8, metadata !3907, metadata !DIExpression()), !dbg !3903
  %this9 = load %"class.std::thread"*, %"class.std::thread"** %this.addr, align 8
  %_M_id = getelementptr inbounds %"class.std::thread", %"class.std::thread"* %this9, i32 0, i32 0, !dbg !3908
  call void @_ZNSt6thread2idC2Ev(%"class.std::thread::id"* %_M_id) #9, !dbg !3908
  call void @llvm.dbg.declare(metadata i8** %__depend, metadata !3909, metadata !DIExpression()), !dbg !3911
  store i8* null, i8** %__depend, align 8, !dbg !3911
  %call = call noalias nonnull i8* @_Znwm(i64 72) #15, !dbg !3912, !heapallocsite !3913
  %0 = bitcast i8* %call to %"struct.std::thread::_State_impl"*, !dbg !3912
  %1 = load void (%struct.ECLgraph*, float*, float*, i32, i32)*, void (%struct.ECLgraph*, float*, float*, i32, i32)** %__f.addr, align 8, !dbg !4418
  %call10 = call nonnull void (%struct.ECLgraph*, float*, float*, i32, i32)* @_ZSt7forwardIRFv8ECLgraphPfS1_iiEEOT_RNSt16remove_referenceIS4_E4typeE(void (%struct.ECLgraph*, float*, float*, i32, i32)* nonnull %1) #9, !dbg !4419
  %2 = load %struct.ECLgraph*, %struct.ECLgraph** %__args.addr, align 8, !dbg !4420
  %call11 = call nonnull align 8 dereferenceable(32) %struct.ECLgraph* @_ZSt7forwardIRK8ECLgraphEOT_RNSt16remove_referenceIS3_E4typeE(%struct.ECLgraph* nonnull align 8 dereferenceable(32) %2) #9, !dbg !4421
  %3 = load float**, float*** %__args.addr2, align 8, !dbg !4420
  %call12 = call nonnull align 8 dereferenceable(8) float** @_ZSt7forwardIRPfEOT_RNSt16remove_referenceIS2_E4typeE(float** nonnull align 8 dereferenceable(8) %3) #9, !dbg !4421
  %4 = load float**, float*** %__args.addr4, align 8, !dbg !4420
  %call13 = call nonnull align 8 dereferenceable(8) float** @_ZSt7forwardIRPfEOT_RNSt16remove_referenceIS2_E4typeE(float** nonnull align 8 dereferenceable(8) %4) #9, !dbg !4421
  %5 = load i32*, i32** %__args.addr6, align 8, !dbg !4420
  %call14 = call nonnull align 4 dereferenceable(4) i32* @_ZSt7forwardIRiEOT_RNSt16remove_referenceIS1_E4typeE(i32* nonnull align 4 dereferenceable(4) %5) #9, !dbg !4421
  %6 = load i32*, i32** %__args.addr8, align 8, !dbg !4420
  %call15 = call nonnull align 4 dereferenceable(4) i32* @_ZSt7forwardIRKiEOT_RNSt16remove_referenceIS2_E4typeE(i32* nonnull align 4 dereferenceable(4) %6) #9, !dbg !4421
  invoke void @_ZNSt6thread11_State_implINS_8_InvokerISt5tupleIJPFv8ECLgraphPfS4_iiES3_S4_S4_iiEEEEEC2IJRS5_RKS3_RS4_SE_RiRKiEEEDpOT_(%"struct.std::thread::_State_impl"* %0, void (%struct.ECLgraph*, float*, float*, i32, i32)* nonnull %call10, %struct.ECLgraph* nonnull align 8 dereferenceable(32) %call11, float** nonnull align 8 dereferenceable(8) %call12, float** nonnull align 8 dereferenceable(8) %call13, i32* nonnull align 4 dereferenceable(4) %call14, i32* nonnull align 4 dereferenceable(4) %call15)
          to label %invoke.cont unwind label %lpad, !dbg !4422

invoke.cont:                                      ; preds = %entry
  %7 = bitcast %"struct.std::thread::_State_impl"* %0 to %"struct.std::thread::_State"*, !dbg !3912
  call void @_ZNSt10unique_ptrINSt6thread6_StateESt14default_deleteIS1_EEC2IS3_vEEPS1_(%"class.std::unique_ptr"* %agg.tmp, %"struct.std::thread::_State"* %7) #9, !dbg !4423
  invoke void @_ZNSt6thread15_M_start_threadESt10unique_ptrINS_6_StateESt14default_deleteIS1_EEPFvvE(%"class.std::thread"* %this9, %"class.std::unique_ptr"* %agg.tmp, void ()* null)
          to label %invoke.cont17 unwind label %lpad16, !dbg !4424

invoke.cont17:                                    ; preds = %invoke.cont
  call void @_ZNSt10unique_ptrINSt6thread6_StateESt14default_deleteIS1_EED2Ev(%"class.std::unique_ptr"* %agg.tmp) #9, !dbg !4424
  ret void, !dbg !4425

lpad:                                             ; preds = %entry
  %8 = landingpad { i8*, i32 }
          cleanup, !dbg !4426
  %9 = extractvalue { i8*, i32 } %8, 0, !dbg !4426
  store i8* %9, i8** %exn.slot, align 8, !dbg !4426
  %10 = extractvalue { i8*, i32 } %8, 1, !dbg !4426
  store i32 %10, i32* %ehselector.slot, align 4, !dbg !4426
  call void @_ZdlPv(i8* %call) #16, !dbg !3912
  br label %eh.resume, !dbg !3912

lpad16:                                           ; preds = %invoke.cont
  %11 = landingpad { i8*, i32 }
          cleanup, !dbg !4426
  %12 = extractvalue { i8*, i32 } %11, 0, !dbg !4426
  store i8* %12, i8** %exn.slot, align 8, !dbg !4426
  %13 = extractvalue { i8*, i32 } %11, 1, !dbg !4426
  store i32 %13, i32* %ehselector.slot, align 4, !dbg !4426
  call void @_ZNSt10unique_ptrINSt6thread6_StateESt14default_deleteIS1_EED2Ev(%"class.std::unique_ptr"* %agg.tmp) #9, !dbg !4424
  br label %eh.resume, !dbg !4424

eh.resume:                                        ; preds = %lpad16, %lpad
  %exn = load i8*, i8** %exn.slot, align 8, !dbg !3912
  %sel = load i32, i32* %ehselector.slot, align 4, !dbg !3912
  %lpad.val = insertvalue { i8*, i32 } undef, i8* %exn, 0, !dbg !3912
  %lpad.val18 = insertvalue { i8*, i32 } %lpad.val, i32 %sel, 1, !dbg !3912
  resume { i8*, i32 } %lpad.val18, !dbg !3912
}

declare i32 @__gxx_personality_v0(...)

; Function Attrs: noinline nounwind optnone uwtable
define linkonce_odr nonnull align 8 dereferenceable(8) %"class.std::thread"* @_ZNSt6threadaSEOS_(%"class.std::thread"* %this, %"class.std::thread"* nonnull align 8 dereferenceable(8) %__t) #5 comdat align 2 !dbg !4427 {
entry:
  %this.addr = alloca %"class.std::thread"*, align 8
  %__t.addr = alloca %"class.std::thread"*, align 8
  store %"class.std::thread"* %this, %"class.std::thread"** %this.addr, align 8
  call void @llvm.dbg.declare(metadata %"class.std::thread"** %this.addr, metadata !4428, metadata !DIExpression()), !dbg !4429
  store %"class.std::thread"* %__t, %"class.std::thread"** %__t.addr, align 8
  call void @llvm.dbg.declare(metadata %"class.std::thread"** %__t.addr, metadata !4430, metadata !DIExpression()), !dbg !4431
  %this1 = load %"class.std::thread"*, %"class.std::thread"** %this.addr, align 8
  %call = call zeroext i1 @_ZNKSt6thread8joinableEv(%"class.std::thread"* %this1) #9, !dbg !4432
  br i1 %call, label %if.then, label %if.end, !dbg !4434

if.then:                                          ; preds = %entry
  call void @_ZSt9terminatev() #13, !dbg !4435
  unreachable, !dbg !4435

_ZSt11__terminatev.exit:                          ; No predecessors!
  unreachable, !dbg !4438

if.end:                                           ; preds = %entry
  %0 = load %"class.std::thread"*, %"class.std::thread"** %__t.addr, align 8, !dbg !4439
  call void @_ZNSt6thread4swapERS_(%"class.std::thread"* %this1, %"class.std::thread"* nonnull align 8 dereferenceable(8) %0) #9, !dbg !4440
  ret %"class.std::thread"* %this1, !dbg !4441
}

; Function Attrs: noinline nounwind optnone uwtable
define linkonce_odr void @_ZNSt6threadD2Ev(%"class.std::thread"* %this) unnamed_addr #5 comdat align 2 !dbg !4442 {
entry:
  %this.addr = alloca %"class.std::thread"*, align 8
  store %"class.std::thread"* %this, %"class.std::thread"** %this.addr, align 8
  call void @llvm.dbg.declare(metadata %"class.std::thread"** %this.addr, metadata !4443, metadata !DIExpression()), !dbg !4444
  %this1 = load %"class.std::thread"*, %"class.std::thread"** %this.addr, align 8
  %call = call zeroext i1 @_ZNKSt6thread8joinableEv(%"class.std::thread"* %this1) #9, !dbg !4445
  br i1 %call, label %if.then, label %if.end, !dbg !4448

if.then:                                          ; preds = %entry
  call void @_ZSt9terminatev() #13, !dbg !4449
  unreachable, !dbg !4449

_ZSt11__terminatev.exit:                          ; No predecessors!
  unreachable, !dbg !4451

if.end:                                           ; preds = %entry
  ret void, !dbg !4452
}

declare void @_ZNSt6thread4joinEv(%"class.std::thread"*) #2

; Function Attrs: noinline optnone uwtable
define internal void @_ZL9errorCalciRdPfS0_S0_fii(i32 %nodes, double* nonnull align 8 dereferenceable(8) %error, float* %outgoing_contrib, float* %incoming_total, float* %scores, float %base_score, i32 %threadID, i32 %threadCount) #0 !dbg !4453 {
entry:
  call void @__dp_func_entry(i32 49206, i32 0), !dp.md.instr.id !4456
  %__dp_bb19 = alloca i32, align 4
  store i32 0, i32* %__dp_bb19, align 4
  %__dp_bb = alloca i32, align 4
  store i32 0, i32* %__dp_bb, align 4
  %nodes.addr = alloca i32, align 4, !dp.md.instr.id !4457
  %0 = ptrtoint i32* %nodes.addr to i64, !dp.md.instr.id !4458
  %error.addr = alloca double*, align 8, !dp.md.instr.id !4459
  %1 = ptrtoint double** %error.addr to i64, !dp.md.instr.id !4460
  %outgoing_contrib.addr = alloca float*, align 8, !dp.md.instr.id !4461
  %2 = ptrtoint float** %outgoing_contrib.addr to i64, !dp.md.instr.id !4462
  %incoming_total.addr = alloca float*, align 8, !dp.md.instr.id !4463
  %3 = ptrtoint float** %incoming_total.addr to i64, !dp.md.instr.id !4464
  %scores.addr = alloca float*, align 8, !dp.md.instr.id !4465
  %4 = ptrtoint float** %scores.addr to i64, !dp.md.instr.id !4466
  %base_score.addr = alloca float, align 4, !dp.md.instr.id !4467
  %5 = ptrtoint float* %base_score.addr to i64, !dp.md.instr.id !4468
  %threadID.addr = alloca i32, align 4, !dp.md.instr.id !4469
  %6 = ptrtoint i32* %threadID.addr to i64, !dp.md.instr.id !4470
  %threadCount.addr = alloca i32, align 4, !dp.md.instr.id !4471
  %7 = ptrtoint i32* %threadCount.addr to i64, !dp.md.instr.id !4472
  %local_error = alloca double, align 8, !dp.md.instr.id !4473
  %8 = ptrtoint double* %local_error to i64, !dp.md.instr.id !4474
  %begNode = alloca i32, align 4, !dp.md.instr.id !4475
  %9 = ptrtoint i32* %begNode to i64, !dp.md.instr.id !4476
  %endNode = alloca i32, align 4, !dp.md.instr.id !4477
  %10 = ptrtoint i32* %endNode to i64, !dp.md.instr.id !4478
  %i = alloca i32, align 4, !dp.md.instr.id !4479
  %11 = ptrtoint i32* %i to i64, !dp.md.instr.id !4480
  %incoming = alloca float, align 4, !dp.md.instr.id !4481
  %12 = ptrtoint float* %incoming to i64, !dp.md.instr.id !4482
  %old_score = alloca float, align 4, !dp.md.instr.id !4483
  %13 = ptrtoint float* %old_score to i64, !dp.md.instr.id !4484
  %value = alloca float, align 4, !dp.md.instr.id !4485
  %14 = ptrtoint float* %value to i64, !dp.md.instr.id !4486
  %15 = ptrtoint i32* %nodes.addr to i64
  store i32 %nodes, i32* %nodes.addr, align 4, !dp.md.instr.id !4487
  call void @llvm.dbg.declare(metadata i32* %nodes.addr, metadata !4488, metadata !DIExpression()), !dbg !4489, !dp.md.instr.id !4490
  %16 = ptrtoint double** %error.addr to i64
  store double* %error, double** %error.addr, align 8, !dp.md.instr.id !4491
  call void @llvm.dbg.declare(metadata double** %error.addr, metadata !4492, metadata !DIExpression()), !dbg !4493, !dp.md.instr.id !4494
  %17 = ptrtoint float** %outgoing_contrib.addr to i64
  store float* %outgoing_contrib, float** %outgoing_contrib.addr, align 8, !dp.md.instr.id !4495
  call void @llvm.dbg.declare(metadata float** %outgoing_contrib.addr, metadata !4496, metadata !DIExpression()), !dbg !4497, !dp.md.instr.id !4498
  %18 = ptrtoint float** %incoming_total.addr to i64
  store float* %incoming_total, float** %incoming_total.addr, align 8, !dp.md.instr.id !4499
  call void @llvm.dbg.declare(metadata float** %incoming_total.addr, metadata !4500, metadata !DIExpression()), !dbg !4501, !dp.md.instr.id !4502
  %19 = ptrtoint float** %scores.addr to i64
  store float* %scores, float** %scores.addr, align 8, !dp.md.instr.id !4503
  call void @llvm.dbg.declare(metadata float** %scores.addr, metadata !4504, metadata !DIExpression()), !dbg !4505, !dp.md.instr.id !4506
  %20 = ptrtoint float* %base_score.addr to i64
  store float %base_score, float* %base_score.addr, align 4, !dp.md.instr.id !4507
  call void @llvm.dbg.declare(metadata float* %base_score.addr, metadata !4508, metadata !DIExpression()), !dbg !4509, !dp.md.instr.id !4510
  %21 = ptrtoint i32* %threadID.addr to i64
  store i32 %threadID, i32* %threadID.addr, align 4, !dp.md.instr.id !4511
  call void @llvm.dbg.declare(metadata i32* %threadID.addr, metadata !4512, metadata !DIExpression()), !dbg !4513, !dp.md.instr.id !4514
  %22 = ptrtoint i32* %threadCount.addr to i64
  store i32 %threadCount, i32* %threadCount.addr, align 4, !dp.md.instr.id !4515
  call void @llvm.dbg.declare(metadata i32* %threadCount.addr, metadata !4516, metadata !DIExpression()), !dbg !4517, !dp.md.instr.id !4518
  call void @llvm.dbg.declare(metadata double* %local_error, metadata !4519, metadata !DIExpression()), !dbg !4520, !dp.md.instr.id !4521
  %23 = ptrtoint double* %local_error to i64
  store double 0.000000e+00, double* %local_error, align 8, !dbg !4520, !dp.md.instr.id !4522
  call void @llvm.dbg.declare(metadata i32* %begNode, metadata !4523, metadata !DIExpression()), !dbg !4524, !dp.md.instr.id !4525
  %24 = ptrtoint i32* %threadID.addr to i64
  %25 = load i32, i32* %threadID.addr, align 4, !dbg !4526, !dp.md.instr.id !4527
  %conv = sext i32 %25 to i64, !dbg !4526, !dp.md.instr.id !4528
  %26 = ptrtoint i32* %nodes.addr to i64
  %27 = load i32, i32* %nodes.addr, align 4, !dbg !4529, !dp.md.instr.id !4530
  %conv1 = sext i32 %27 to i64, !dbg !4529, !dp.md.instr.id !4531
  %mul = mul nsw i64 %conv, %conv1, !dbg !4532, !dp.md.instr.id !4533
  %28 = ptrtoint i32* %threadCount.addr to i64
  %29 = load i32, i32* %threadCount.addr, align 4, !dbg !4534, !dp.md.instr.id !4535
  %conv2 = sext i32 %29 to i64, !dbg !4534, !dp.md.instr.id !4536
  %div = sdiv i64 %mul, %conv2, !dbg !4537, !dp.md.instr.id !4538
  %conv3 = trunc i64 %div to i32, !dbg !4526, !dp.md.instr.id !4539
  %30 = ptrtoint i32* %begNode to i64
  store i32 %conv3, i32* %begNode, align 4, !dbg !4524, !dp.md.instr.id !4540
  call void @llvm.dbg.declare(metadata i32* %endNode, metadata !4541, metadata !DIExpression()), !dbg !4542, !dp.md.instr.id !4543
  %31 = ptrtoint i32* %threadID.addr to i64
  %32 = load i32, i32* %threadID.addr, align 4, !dbg !4544, !dp.md.instr.id !4545
  %add = add nsw i32 %32, 1, !dbg !4546, !dp.md.instr.id !4547
  %conv4 = sext i32 %add to i64, !dbg !4548, !dp.md.instr.id !4549
  %33 = ptrtoint i32* %nodes.addr to i64
  %34 = load i32, i32* %nodes.addr, align 4, !dbg !4550, !dp.md.instr.id !4551
  %conv5 = sext i32 %34 to i64, !dbg !4550, !dp.md.instr.id !4552
  %mul6 = mul nsw i64 %conv4, %conv5, !dbg !4553, !dp.md.instr.id !4554
  %35 = ptrtoint i32* %threadCount.addr to i64
  %36 = load i32, i32* %threadCount.addr, align 4, !dbg !4555, !dp.md.instr.id !4556
  %conv7 = sext i32 %36 to i64, !dbg !4555, !dp.md.instr.id !4557
  %div8 = sdiv i64 %mul6, %conv7, !dbg !4558, !dp.md.instr.id !4559
  %conv9 = trunc i64 %div8 to i32, !dbg !4548, !dp.md.instr.id !4560
  %37 = ptrtoint i32* %endNode to i64
  store i32 %conv9, i32* %endNode, align 4, !dbg !4542, !dp.md.instr.id !4561
  call void @llvm.dbg.declare(metadata i32* %i, metadata !4562, metadata !DIExpression()), !dbg !4564, !dp.md.instr.id !4565
  %38 = ptrtoint i32* %begNode to i64
  %39 = load i32, i32* %begNode, align 4, !dbg !4566, !dp.md.instr.id !4567
  %40 = ptrtoint i32* %i to i64
  store i32 %39, i32* %i, align 4, !dbg !4564, !dp.md.instr.id !4568
  call void @__dp_report_bb(i32 150)
  br label %for.cond, !dbg !4569, !dp.md.instr.id !4570

for.cond:                                         ; preds = %for.inc, %entry
  call void @__dp_loop_entry(i32 49211, i32 13), !dp.md.instr.id !4571
  %41 = ptrtoint i32* %i to i64
  %42 = load i32, i32* %i, align 4, !dbg !4572, !dp.md.instr.id !4574
  %43 = ptrtoint i32* %endNode to i64
  %44 = load i32, i32* %endNode, align 4, !dbg !4575, !dp.md.instr.id !4576
  %cmp = icmp slt i32 %42, %44, !dbg !4577, !dp.md.instr.id !4578
  call void @__dp_report_bb(i32 152)
  %45 = load i32, i32* %__dp_bb, align 4
  call void @__dp_report_bb_pair(i32 %45, i32 155)
  br i1 %cmp, label %for.body, label %for.end, !dbg !4579, !dp.md.instr.id !4580

for.body:                                         ; preds = %for.cond
  call void @__dp_loop_incr(i32 14)
  call void @llvm.dbg.declare(metadata float* %incoming, metadata !4581, metadata !DIExpression()), !dbg !4583, !dp.md.instr.id !4584
  %46 = ptrtoint float** %incoming_total.addr to i64
  %47 = load float*, float** %incoming_total.addr, align 8, !dbg !4585, !dp.md.instr.id !4586
  %48 = ptrtoint i32* %i to i64
  %49 = load i32, i32* %i, align 4, !dbg !4587, !dp.md.instr.id !4588
  %idxprom = sext i32 %49 to i64, !dbg !4585, !dp.md.instr.id !4589
  %arrayidx = getelementptr inbounds float, float* %47, i64 %idxprom, !dbg !4585, !dp.md.instr.id !4590
  %50 = ptrtoint float* %arrayidx to i64
  call void @__dp_read(i32 1305, i64 %50, i8* getelementptr inbounds ([25 x i8], [25 x i8]* @.str.120, i32 0, i32 0))
  %51 = load float, float* %arrayidx, align 4, !dbg !4585, !dp.md.instr.id !4591
  %52 = ptrtoint float* %incoming to i64
  store float %51, float* %incoming, align 4, !dbg !4583, !dp.md.instr.id !4592
  call void @llvm.dbg.declare(metadata float* %old_score, metadata !4593, metadata !DIExpression()), !dbg !4594, !dp.md.instr.id !4595
  %53 = ptrtoint float** %scores.addr to i64
  %54 = load float*, float** %scores.addr, align 8, !dbg !4596, !dp.md.instr.id !4597
  %55 = ptrtoint i32* %i to i64
  %56 = load i32, i32* %i, align 4, !dbg !4598, !dp.md.instr.id !4599
  %idxprom10 = sext i32 %56 to i64, !dbg !4596, !dp.md.instr.id !4600
  %arrayidx11 = getelementptr inbounds float, float* %54, i64 %idxprom10, !dbg !4596, !dp.md.instr.id !4601
  %57 = ptrtoint float* %arrayidx11 to i64
  call void @__dp_read(i32 1312, i64 %57, i8* getelementptr inbounds ([17 x i8], [17 x i8]* @.str.105, i32 0, i32 0))
  %58 = load float, float* %arrayidx11, align 4, !dbg !4596, !dp.md.instr.id !4602
  %59 = ptrtoint float* %old_score to i64
  store float %58, float* %old_score, align 4, !dbg !4594, !dp.md.instr.id !4603
  call void @llvm.dbg.declare(metadata float* %value, metadata !4604, metadata !DIExpression()), !dbg !4605, !dp.md.instr.id !4606
  %60 = ptrtoint float* %base_score.addr to i64
  %61 = load float, float* %base_score.addr, align 4, !dbg !4607, !dp.md.instr.id !4608
  %62 = ptrtoint float* %incoming to i64
  %63 = load float, float* %incoming, align 4, !dbg !4609, !dp.md.instr.id !4610
  %mul12 = fmul float 0x3FEB333340000000, %63, !dbg !4611, !dp.md.instr.id !4612
  %add13 = fadd float %61, %mul12, !dbg !4613, !dp.md.instr.id !4614
  %64 = ptrtoint float* %value to i64
  store float %add13, float* %value, align 4, !dbg !4605, !dp.md.instr.id !4615
  %65 = ptrtoint float* %value to i64
  %66 = load float, float* %value, align 4, !dbg !4616, !dp.md.instr.id !4617
  %67 = ptrtoint float** %scores.addr to i64
  %68 = load float*, float** %scores.addr, align 8, !dbg !4618, !dp.md.instr.id !4619
  %69 = ptrtoint i32* %i to i64
  %70 = load i32, i32* %i, align 4, !dbg !4620, !dp.md.instr.id !4621
  %idxprom14 = sext i32 %70 to i64, !dbg !4618, !dp.md.instr.id !4622
  %arrayidx15 = getelementptr inbounds float, float* %68, i64 %idxprom14, !dbg !4618, !dp.md.instr.id !4623
  %71 = ptrtoint float* %arrayidx15 to i64
  call void @__dp_write(i32 1325, i64 %71, i8* getelementptr inbounds ([17 x i8], [17 x i8]* @.str.105, i32 0, i32 0))
  store float %66, float* %arrayidx15, align 4, !dbg !4624, !dp.md.instr.id !4625
  %72 = ptrtoint float* %value to i64
  %73 = load float, float* %value, align 4, !dbg !4626, !dp.md.instr.id !4627
  %74 = ptrtoint float* %old_score to i64
  %75 = load float, float* %old_score, align 4, !dbg !4628, !dp.md.instr.id !4629
  %sub = fsub float %73, %75, !dbg !4630, !dp.md.instr.id !4631
  call void @__dp_call(i32 49216), !dbg !4632
  %call = call float @_ZSt4fabsf(float %sub), !dbg !4632, !dp.md.instr.id !4633
  %conv16 = fpext float %call to double, !dbg !4632, !dp.md.instr.id !4634
  %76 = ptrtoint double* %local_error to i64
  %77 = load double, double* %local_error, align 8, !dbg !4635, !dp.md.instr.id !4636
  %add17 = fadd double %77, %conv16, !dbg !4635, !dp.md.instr.id !4637
  %78 = ptrtoint double* %local_error to i64
  store double %add17, double* %local_error, align 8, !dbg !4635, !dp.md.instr.id !4638
  call void @__dp_report_bb(i32 154)
  %79 = load i32, i32* %__dp_bb, align 4
  call void @__dp_report_bb_pair(i32 %79, i32 157)
  %80 = load i32, i32* %__dp_bb19, align 4
  call void @__dp_report_bb_pair(i32 %80, i32 159)
  store i32 1, i32* %__dp_bb19, align 4
  br label %for.inc, !dbg !4639, !dp.md.instr.id !4640

for.inc:                                          ; preds = %for.body
  %81 = ptrtoint i32* %i to i64
  %82 = load i32, i32* %i, align 4, !dbg !4641, !dp.md.instr.id !4642
  %inc = add nsw i32 %82, 1, !dbg !4641, !dp.md.instr.id !4643
  %83 = ptrtoint i32* %i to i64
  store i32 %inc, i32* %i, align 4, !dbg !4641, !dp.md.instr.id !4644
  call void @__dp_report_bb(i32 153)
  %84 = load i32, i32* %__dp_bb, align 4
  call void @__dp_report_bb_pair(i32 %84, i32 156)
  store i32 1, i32* %__dp_bb, align 4
  br label %for.cond, !dbg !4645, !llvm.loop !4646, !dp.md.instr.id !4648

for.end:                                          ; preds = %for.cond
  call void @__dp_loop_exit(i32 49218, i32 13), !dp.md.instr.id !4649
  %85 = ptrtoint double** %error.addr to i64
  %86 = load double*, double** %error.addr, align 8, !dbg !4650, !dp.md.instr.id !4651
  %87 = ptrtoint double* %local_error to i64
  %88 = load double, double* %local_error, align 8, !dbg !4652, !dp.md.instr.id !4653
  call void @__dp_call(i32 49218), !dbg !4654
  %call18 = call double @_ZL9atomicAddIdET_PS0_S0_(double* %86, double %88), !dbg !4654, !dp.md.instr.id !4655
  call void @__dp_report_bb(i32 151)
  %89 = load i32, i32* %__dp_bb19, align 4
  call void @__dp_report_bb_pair(i32 %89, i32 158)
  call void @__dp_func_exit(i32 49219, i32 0), !dbg !4656
  ret void, !dbg !4656, !dp.md.instr.id !4657
}

; Function Attrs: noinline nounwind optnone uwtable
define linkonce_odr double* @_ZSt3refIdESt17reference_wrapperIT_ERS1_(double* nonnull align 8 dereferenceable(8) %__t) #5 comdat !dbg !4658 {
entry:
  %retval = alloca %"class.std::reference_wrapper", align 8
  %__t.addr = alloca double*, align 8
  store double* %__t, double** %__t.addr, align 8
  call void @llvm.dbg.declare(metadata double** %__t.addr, metadata !4661, metadata !DIExpression()), !dbg !4662
  %0 = load double*, double** %__t.addr, align 8, !dbg !4663
  call void @_ZNSt17reference_wrapperIdEC2IRdvPdEEOT_(%"class.std::reference_wrapper"* %retval, double* nonnull align 8 dereferenceable(8) %0) #9, !dbg !4664
  %coerce.dive = getelementptr inbounds %"class.std::reference_wrapper", %"class.std::reference_wrapper"* %retval, i32 0, i32 0, !dbg !4665
  %1 = load double*, double** %coerce.dive, align 8, !dbg !4665
  ret double* %1, !dbg !4665
}

; Function Attrs: noinline optnone uwtable
define linkonce_odr void @_ZNSt6threadC2IRFviRdPfS2_S2_fiiEJRKiSt17reference_wrapperIdERS2_S9_S9_RKfRiS6_EvEEOT_DpOT0_(%"class.std::thread"* %this, void (i32, double*, float*, float*, float*, float, i32, i32)* nonnull %__f, i32* nonnull align 4 dereferenceable(4) %__args, %"class.std::reference_wrapper"* nonnull align 8 dereferenceable(8) %__args1, float** nonnull align 8 dereferenceable(8) %__args3, float** nonnull align 8 dereferenceable(8) %__args5, float** nonnull align 8 dereferenceable(8) %__args7, float* nonnull align 4 dereferenceable(4) %__args9, i32* nonnull align 4 dereferenceable(4) %__args11, i32* nonnull align 4 dereferenceable(4) %__args13) unnamed_addr #0 comdat align 2 personality i8* bitcast (i32 (...)* @__gxx_personality_v0 to i8*) !dbg !4666 {
entry:
  %this.addr = alloca %"class.std::thread"*, align 8
  %__f.addr = alloca void (i32, double*, float*, float*, float*, float, i32, i32)*, align 8
  %__args.addr = alloca i32*, align 8
  %__args.addr2 = alloca %"class.std::reference_wrapper"*, align 8
  %__args.addr4 = alloca float**, align 8
  %__args.addr6 = alloca float**, align 8
  %__args.addr8 = alloca float**, align 8
  %__args.addr10 = alloca float*, align 8
  %__args.addr12 = alloca i32*, align 8
  %__args.addr14 = alloca i32*, align 8
  %__depend = alloca i8*, align 8
  %agg.tmp = alloca %"class.std::unique_ptr", align 8
  %exn.slot = alloca i8*, align 8
  %ehselector.slot = alloca i32, align 4
  store %"class.std::thread"* %this, %"class.std::thread"** %this.addr, align 8
  call void @llvm.dbg.declare(metadata %"class.std::thread"** %this.addr, metadata !4676, metadata !DIExpression()), !dbg !4677
  store void (i32, double*, float*, float*, float*, float, i32, i32)* %__f, void (i32, double*, float*, float*, float*, float, i32, i32)** %__f.addr, align 8
  call void @llvm.dbg.declare(metadata void (i32, double*, float*, float*, float*, float, i32, i32)** %__f.addr, metadata !4678, metadata !DIExpression()), !dbg !4679
  store i32* %__args, i32** %__args.addr, align 8
  call void @llvm.dbg.declare(metadata i32** %__args.addr, metadata !4680, metadata !DIExpression()), !dbg !4681
  store %"class.std::reference_wrapper"* %__args1, %"class.std::reference_wrapper"** %__args.addr2, align 8
  call void @llvm.dbg.declare(metadata %"class.std::reference_wrapper"** %__args.addr2, metadata !4682, metadata !DIExpression()), !dbg !4681
  store float** %__args3, float*** %__args.addr4, align 8
  call void @llvm.dbg.declare(metadata float*** %__args.addr4, metadata !4683, metadata !DIExpression()), !dbg !4681
  store float** %__args5, float*** %__args.addr6, align 8
  call void @llvm.dbg.declare(metadata float*** %__args.addr6, metadata !4684, metadata !DIExpression()), !dbg !4681
  store float** %__args7, float*** %__args.addr8, align 8
  call void @llvm.dbg.declare(metadata float*** %__args.addr8, metadata !4685, metadata !DIExpression()), !dbg !4681
  store float* %__args9, float** %__args.addr10, align 8
  call void @llvm.dbg.declare(metadata float** %__args.addr10, metadata !4686, metadata !DIExpression()), !dbg !4681
  store i32* %__args11, i32** %__args.addr12, align 8
  call void @llvm.dbg.declare(metadata i32** %__args.addr12, metadata !4687, metadata !DIExpression()), !dbg !4681
  store i32* %__args13, i32** %__args.addr14, align 8
  call void @llvm.dbg.declare(metadata i32** %__args.addr14, metadata !4688, metadata !DIExpression()), !dbg !4681
  %this15 = load %"class.std::thread"*, %"class.std::thread"** %this.addr, align 8
  %_M_id = getelementptr inbounds %"class.std::thread", %"class.std::thread"* %this15, i32 0, i32 0, !dbg !4689
  call void @_ZNSt6thread2idC2Ev(%"class.std::thread::id"* %_M_id) #9, !dbg !4689
  call void @llvm.dbg.declare(metadata i8** %__depend, metadata !4690, metadata !DIExpression()), !dbg !4692
  store i8* null, i8** %__depend, align 8, !dbg !4692
  %call = call noalias nonnull i8* @_Znwm(i64 72) #15, !dbg !4693, !heapallocsite !4694
  %0 = bitcast i8* %call to %"struct.std::thread::_State_impl.16"*, !dbg !4693
  %1 = load void (i32, double*, float*, float*, float*, float, i32, i32)*, void (i32, double*, float*, float*, float*, float, i32, i32)** %__f.addr, align 8, !dbg !5389
  %call16 = call nonnull void (i32, double*, float*, float*, float*, float, i32, i32)* @_ZSt7forwardIRFviRdPfS1_S1_fiiEEOT_RNSt16remove_referenceIS4_E4typeE(void (i32, double*, float*, float*, float*, float, i32, i32)* nonnull %1) #9, !dbg !5390
  %2 = load i32*, i32** %__args.addr, align 8, !dbg !5391
  %call17 = call nonnull align 4 dereferenceable(4) i32* @_ZSt7forwardIRKiEOT_RNSt16remove_referenceIS2_E4typeE(i32* nonnull align 4 dereferenceable(4) %2) #9, !dbg !5392
  %3 = load %"class.std::reference_wrapper"*, %"class.std::reference_wrapper"** %__args.addr2, align 8, !dbg !5391
  %call18 = call nonnull align 8 dereferenceable(8) %"class.std::reference_wrapper"* @_ZSt7forwardISt17reference_wrapperIdEEOT_RNSt16remove_referenceIS2_E4typeE(%"class.std::reference_wrapper"* nonnull align 8 dereferenceable(8) %3) #9, !dbg !5392
  %4 = load float**, float*** %__args.addr4, align 8, !dbg !5391
  %call19 = call nonnull align 8 dereferenceable(8) float** @_ZSt7forwardIRPfEOT_RNSt16remove_referenceIS2_E4typeE(float** nonnull align 8 dereferenceable(8) %4) #9, !dbg !5392
  %5 = load float**, float*** %__args.addr6, align 8, !dbg !5391
  %call20 = call nonnull align 8 dereferenceable(8) float** @_ZSt7forwardIRPfEOT_RNSt16remove_referenceIS2_E4typeE(float** nonnull align 8 dereferenceable(8) %5) #9, !dbg !5392
  %6 = load float**, float*** %__args.addr8, align 8, !dbg !5391
  %call21 = call nonnull align 8 dereferenceable(8) float** @_ZSt7forwardIRPfEOT_RNSt16remove_referenceIS2_E4typeE(float** nonnull align 8 dereferenceable(8) %6) #9, !dbg !5392
  %7 = load float*, float** %__args.addr10, align 8, !dbg !5391
  %call22 = call nonnull align 4 dereferenceable(4) float* @_ZSt7forwardIRKfEOT_RNSt16remove_referenceIS2_E4typeE(float* nonnull align 4 dereferenceable(4) %7) #9, !dbg !5392
  %8 = load i32*, i32** %__args.addr12, align 8, !dbg !5391
  %call23 = call nonnull align 4 dereferenceable(4) i32* @_ZSt7forwardIRiEOT_RNSt16remove_referenceIS1_E4typeE(i32* nonnull align 4 dereferenceable(4) %8) #9, !dbg !5392
  %9 = load i32*, i32** %__args.addr14, align 8, !dbg !5391
  %call24 = call nonnull align 4 dereferenceable(4) i32* @_ZSt7forwardIRKiEOT_RNSt16remove_referenceIS2_E4typeE(i32* nonnull align 4 dereferenceable(4) %9) #9, !dbg !5392
  invoke void @_ZNSt6thread11_State_implINS_8_InvokerISt5tupleIJPFviRdPfS4_S4_fiiEiSt17reference_wrapperIdES4_S4_S4_fiiEEEEEC2IJRS5_RKiS8_RS4_SG_SG_RKfRiSF_EEEDpOT_(%"struct.std::thread::_State_impl.16"* %0, void (i32, double*, float*, float*, float*, float, i32, i32)* nonnull %call16, i32* nonnull align 4 dereferenceable(4) %call17, %"class.std::reference_wrapper"* nonnull align 8 dereferenceable(8) %call18, float** nonnull align 8 dereferenceable(8) %call19, float** nonnull align 8 dereferenceable(8) %call20, float** nonnull align 8 dereferenceable(8) %call21, float* nonnull align 4 dereferenceable(4) %call22, i32* nonnull align 4 dereferenceable(4) %call23, i32* nonnull align 4 dereferenceable(4) %call24)
          to label %invoke.cont unwind label %lpad, !dbg !5393

invoke.cont:                                      ; preds = %entry
  %10 = bitcast %"struct.std::thread::_State_impl.16"* %0 to %"struct.std::thread::_State"*, !dbg !4693
  call void @_ZNSt10unique_ptrINSt6thread6_StateESt14default_deleteIS1_EEC2IS3_vEEPS1_(%"class.std::unique_ptr"* %agg.tmp, %"struct.std::thread::_State"* %10) #9, !dbg !5394
  invoke void @_ZNSt6thread15_M_start_threadESt10unique_ptrINS_6_StateESt14default_deleteIS1_EEPFvvE(%"class.std::thread"* %this15, %"class.std::unique_ptr"* %agg.tmp, void ()* null)
          to label %invoke.cont26 unwind label %lpad25, !dbg !5395

invoke.cont26:                                    ; preds = %invoke.cont
  call void @_ZNSt10unique_ptrINSt6thread6_StateESt14default_deleteIS1_EED2Ev(%"class.std::unique_ptr"* %agg.tmp) #9, !dbg !5395
  ret void, !dbg !5396

lpad:                                             ; preds = %entry
  %11 = landingpad { i8*, i32 }
          cleanup, !dbg !5397
  %12 = extractvalue { i8*, i32 } %11, 0, !dbg !5397
  store i8* %12, i8** %exn.slot, align 8, !dbg !5397
  %13 = extractvalue { i8*, i32 } %11, 1, !dbg !5397
  store i32 %13, i32* %ehselector.slot, align 4, !dbg !5397
  call void @_ZdlPv(i8* %call) #16, !dbg !4693
  br label %eh.resume, !dbg !4693

lpad25:                                           ; preds = %invoke.cont
  %14 = landingpad { i8*, i32 }
          cleanup, !dbg !5397
  %15 = extractvalue { i8*, i32 } %14, 0, !dbg !5397
  store i8* %15, i8** %exn.slot, align 8, !dbg !5397
  %16 = extractvalue { i8*, i32 } %14, 1, !dbg !5397
  store i32 %16, i32* %ehselector.slot, align 4, !dbg !5397
  call void @_ZNSt10unique_ptrINSt6thread6_StateESt14default_deleteIS1_EED2Ev(%"class.std::unique_ptr"* %agg.tmp) #9, !dbg !5395
  br label %eh.resume, !dbg !5395

eh.resume:                                        ; preds = %lpad25, %lpad
  %exn = load i8*, i8** %exn.slot, align 8, !dbg !4693
  %sel = load i32, i32* %ehselector.slot, align 4, !dbg !4693
  %lpad.val = insertvalue { i8*, i32 } undef, i8* %exn, 0, !dbg !4693
  %lpad.val27 = insertvalue { i8*, i32 } %lpad.val, i32 %sel, 1, !dbg !4693
  resume { i8*, i32 } %lpad.val27, !dbg !4693
}

; Function Attrs: nounwind
declare void @llvm.stackrestore(i8*) #9

; Function Attrs: noinline nounwind optnone uwtable
define linkonce_odr void @_ZNSt6thread2idC2Ev(%"class.std::thread::id"* %this) unnamed_addr #5 comdat align 2 !dbg !5398 {
entry:
  %this.addr = alloca %"class.std::thread::id"*, align 8
  store %"class.std::thread::id"* %this, %"class.std::thread::id"** %this.addr, align 8
  call void @llvm.dbg.declare(metadata %"class.std::thread::id"** %this.addr, metadata !5399, metadata !DIExpression()), !dbg !5401
  %this1 = load %"class.std::thread::id"*, %"class.std::thread::id"** %this.addr, align 8
  %_M_thread = getelementptr inbounds %"class.std::thread::id", %"class.std::thread::id"* %this1, i32 0, i32 0, !dbg !5402
  store i64 0, i64* %_M_thread, align 8, !dbg !5402
  ret void, !dbg !5403
}

; Function Attrs: noinline nounwind optnone uwtable
define internal float @_ZL9atomicAddIfET_PS0_S0_(float* %addr, float %val) #5 !dbg !5404 {
entry:
  call void @__dp_func_entry(i32 32829, i32 0), !dp.md.instr.id !5409
  %addr.addr = alloca float*, align 8, !dp.md.instr.id !5410
  %0 = ptrtoint float** %addr.addr to i64, !dp.md.instr.id !5411
  %val.addr = alloca float, align 4, !dp.md.instr.id !5412
  %1 = ptrtoint float* %val.addr to i64, !dp.md.instr.id !5413
  %old = alloca float, align 4, !dp.md.instr.id !5414
  %2 = ptrtoint float* %old to i64, !dp.md.instr.id !5415
  call void @__dp_alloca(i32 32829, i8* getelementptr inbounds ([4 x i8], [4 x i8]* @.str.136, i32 0, i32 0), i64 %2, i64 %2, i64 4, i64 1), !dp.md.instr.id !5416
  %3 = ptrtoint float** %addr.addr to i64
  store float* %addr, float** %addr.addr, align 8, !dp.md.instr.id !5417
  call void @llvm.dbg.declare(metadata float** %addr.addr, metadata !5418, metadata !DIExpression()), !dbg !5419, !dp.md.instr.id !5420
  %4 = ptrtoint float* %val.addr to i64
  store float %val, float* %val.addr, align 4, !dp.md.instr.id !5421
  call void @llvm.dbg.declare(metadata float* %val.addr, metadata !5422, metadata !DIExpression()), !dbg !5423, !dp.md.instr.id !5424
  call void @llvm.dbg.declare(metadata float* %old, metadata !5425, metadata !DIExpression()), !dbg !5426, !dp.md.instr.id !5427
  %5 = ptrtoint float** %addr.addr to i64
  %6 = load float*, float** %addr.addr, align 8, !dbg !5428, !dp.md.instr.id !5429
  %7 = bitcast float* %6 to %"struct.std::atomic"*, !dbg !5430, !dp.md.instr.id !5431
  call void @__dp_call(i32 32831), !dbg !5430
  %call = call float @_ZNKSt6atomicIfE4loadESt12memory_order(%"struct.std::atomic"* %7, i32 5) #9, !dbg !5430, !dp.md.instr.id !5432
  %8 = ptrtoint float* %old to i64
  call void @__dp_write(i32 1362, i64 %8, i8* getelementptr inbounds ([4 x i8], [4 x i8]* @.str.136, i32 0, i32 0))
  store float %call, float* %old, align 4, !dbg !5426, !dp.md.instr.id !5433
  call void @__dp_report_bb(i32 161)
  br label %while.cond, !dbg !5434, !dp.md.instr.id !5435

while.cond:                                       ; preds = %while.body, %entry
  call void @__dp_loop_entry(i32 32832, i32 14), !dp.md.instr.id !5436
  %9 = ptrtoint float* %old to i64
  call void @__dp_read(i32 1365, i64 %9, i8* getelementptr inbounds ([4 x i8], [4 x i8]* @.str.136, i32 0, i32 0))
  %10 = load float, float* %old, align 4, !dbg !5437, !dp.md.instr.id !5438
  %11 = ptrtoint float* %old to i64
  call void @__dp_read(i32 1366, i64 %11, i8* getelementptr inbounds ([4 x i8], [4 x i8]* @.str.136, i32 0, i32 0))
  %12 = load float, float* %old, align 4, !dbg !5439, !dp.md.instr.id !5440
  %13 = ptrtoint float* %val.addr to i64
  %14 = load float, float* %val.addr, align 4, !dbg !5441, !dp.md.instr.id !5442
  %add = fadd float %12, %14, !dbg !5443, !dp.md.instr.id !5444
  %cmp = fcmp une float %10, %add, !dbg !5445, !dp.md.instr.id !5446
  call void @__dp_report_bb(i32 160)
  br i1 %cmp, label %land.rhs, label %land.end, !dbg !5447, !dp.md.instr.id !5448

land.rhs:                                         ; preds = %while.cond
  call void @__dp_loop_incr(i32 15)
  %15 = ptrtoint float** %addr.addr to i64
  %16 = load float*, float** %addr.addr, align 8, !dbg !5449, !dp.md.instr.id !5450
  %17 = bitcast float* %16 to %"struct.std::atomic"*, !dbg !5451, !dp.md.instr.id !5452
  %18 = ptrtoint float* %old to i64
  call void @__dp_read(i32 1373, i64 %18, i8* getelementptr inbounds ([4 x i8], [4 x i8]* @.str.136, i32 0, i32 0))
  %19 = load float, float* %old, align 4, !dbg !5453, !dp.md.instr.id !5454
  %20 = ptrtoint float* %val.addr to i64
  %21 = load float, float* %val.addr, align 4, !dbg !5455, !dp.md.instr.id !5456
  %add1 = fadd float %19, %21, !dbg !5457, !dp.md.instr.id !5458
  call void @__dp_call(i32 32832), !dbg !5451
  %call2 = call zeroext i1 @_ZNSt6atomicIfE21compare_exchange_weakERffSt12memory_order(%"struct.std::atomic"* %17, float* nonnull align 4 dereferenceable(4) %old, float %add1, i32 5) #9, !dbg !5451, !dp.md.instr.id !5459
  %lnot = xor i1 %call2, true, !dbg !5460, !dp.md.instr.id !5461
  call void @__dp_report_bb(i32 162)
  br label %land.end, !dp.md.instr.id !5462

land.end:                                         ; preds = %land.rhs, %while.cond
  %22 = phi i1 [ false, %while.cond ], [ %lnot, %land.rhs ], !dbg !5463, !dp.md.instr.id !5464
  br i1 %22, label %while.body, label %while.end, !dbg !5434, !dp.md.instr.id !5465

while.body:                                       ; preds = %land.end
  br label %while.cond, !dbg !5434, !llvm.loop !5466, !dp.md.instr.id !5468

while.end:                                        ; preds = %land.end
  call void @__dp_loop_exit(i32 32833, i32 14), !dp.md.instr.id !5469
  %23 = ptrtoint float* %old to i64
  call void @__dp_read(i32 1383, i64 %23, i8* getelementptr inbounds ([4 x i8], [4 x i8]* @.str.136, i32 0, i32 0))
  %24 = load float, float* %old, align 4, !dbg !5470, !dp.md.instr.id !5471
  call void @__dp_func_exit(i32 32833, i32 0), !dbg !5472
  ret float %24, !dbg !5472, !dp.md.instr.id !5473
}

; Function Attrs: noinline nounwind optnone uwtable
define linkonce_odr float @_ZNKSt6atomicIfE4loadESt12memory_order(%"struct.std::atomic"* %this, i32 %__m) #5 comdat align 2 !dbg !5474 {
entry:
  %this.addr = alloca %"struct.std::atomic"*, align 8
  %__m.addr = alloca i32, align 4
  %__buf = alloca [4 x i8], align 4
  %__ptr = alloca float*, align 8
  store %"struct.std::atomic"* %this, %"struct.std::atomic"** %this.addr, align 8
  call void @llvm.dbg.declare(metadata %"struct.std::atomic"** %this.addr, metadata !5475, metadata !DIExpression()), !dbg !5477
  store i32 %__m, i32* %__m.addr, align 4
  call void @llvm.dbg.declare(metadata i32* %__m.addr, metadata !5478, metadata !DIExpression()), !dbg !5479
  %this1 = load %"struct.std::atomic"*, %"struct.std::atomic"** %this.addr, align 8
  call void @llvm.dbg.declare(metadata [4 x i8]* %__buf, metadata !5480, metadata !DIExpression()), !dbg !5482
  call void @llvm.dbg.declare(metadata float** %__ptr, metadata !5483, metadata !DIExpression()), !dbg !5484
  %arraydecay = getelementptr inbounds [4 x i8], [4 x i8]* %__buf, i64 0, i64 0, !dbg !5485
  %0 = bitcast i8* %arraydecay to float*, !dbg !5486
  store float* %0, float** %__ptr, align 8, !dbg !5484
  %_M_i = getelementptr inbounds %"struct.std::atomic", %"struct.std::atomic"* %this1, i32 0, i32 0, !dbg !5487
  %call = call float* @_ZSt11__addressofIKfEPT_RS1_(float* nonnull align 4 dereferenceable(4) %_M_i) #9, !dbg !5488
  %1 = load i32, i32* %__m.addr, align 4, !dbg !5489
  %2 = load float*, float** %__ptr, align 8, !dbg !5490
  %3 = bitcast float* %call to i32*, !dbg !5491
  %4 = bitcast float* %2 to i32*, !dbg !5491
  switch i32 %1, label %monotonic [
    i32 1, label %acquire
    i32 2, label %acquire
    i32 5, label %seqcst
  ], !dbg !5491

monotonic:                                        ; preds = %entry
  %5 = load atomic i32, i32* %3 monotonic, align 4, !dbg !5491
  store i32 %5, i32* %4, align 4, !dbg !5491
  br label %atomic.continue, !dbg !5491

acquire:                                          ; preds = %entry, %entry
  %6 = load atomic i32, i32* %3 acquire, align 4, !dbg !5491
  store i32 %6, i32* %4, align 4, !dbg !5491
  br label %atomic.continue, !dbg !5491

seqcst:                                           ; preds = %entry
  %7 = load atomic i32, i32* %3 seq_cst, align 4, !dbg !5491
  store i32 %7, i32* %4, align 4, !dbg !5491
  br label %atomic.continue, !dbg !5491

atomic.continue:                                  ; preds = %seqcst, %acquire, %monotonic
  %8 = load float*, float** %__ptr, align 8, !dbg !5492
  %9 = load float, float* %8, align 4, !dbg !5493
  ret float %9, !dbg !5494
}

; Function Attrs: noinline nounwind optnone uwtable
define linkonce_odr zeroext i1 @_ZNSt6atomicIfE21compare_exchange_weakERffSt12memory_order(%"struct.std::atomic"* %this, float* nonnull align 4 dereferenceable(4) %__e, float %__i, i32 %__m) #5 comdat align 2 !dbg !5495 {
entry:
  %this.addr = alloca %"struct.std::atomic"*, align 8
  %__e.addr = alloca float*, align 8
  %__i.addr = alloca float, align 4
  %__m.addr = alloca i32, align 4
  store %"struct.std::atomic"* %this, %"struct.std::atomic"** %this.addr, align 8
  call void @llvm.dbg.declare(metadata %"struct.std::atomic"** %this.addr, metadata !5496, metadata !DIExpression()), !dbg !5497
  store float* %__e, float** %__e.addr, align 8
  call void @llvm.dbg.declare(metadata float** %__e.addr, metadata !5498, metadata !DIExpression()), !dbg !5499
  store float %__i, float* %__i.addr, align 4
  call void @llvm.dbg.declare(metadata float* %__i.addr, metadata !5500, metadata !DIExpression()), !dbg !5501
  store i32 %__m, i32* %__m.addr, align 4
  call void @llvm.dbg.declare(metadata i32* %__m.addr, metadata !5502, metadata !DIExpression()), !dbg !5503
  %this1 = load %"struct.std::atomic"*, %"struct.std::atomic"** %this.addr, align 8
  %0 = load float*, float** %__e.addr, align 8, !dbg !5504
  %1 = load float, float* %__i.addr, align 4, !dbg !5505
  %2 = load i32, i32* %__m.addr, align 4, !dbg !5506
  %3 = load i32, i32* %__m.addr, align 4, !dbg !5507
  %call = call i32 @_ZSt23__cmpexch_failure_orderSt12memory_order(i32 %3) #9, !dbg !5508
  %call2 = call zeroext i1 @_ZNSt6atomicIfE21compare_exchange_weakERffSt12memory_orderS2_(%"struct.std::atomic"* %this1, float* nonnull align 4 dereferenceable(4) %0, float %1, i32 %2, i32 %call) #9, !dbg !5509
  ret i1 %call2, !dbg !5510
}

; Function Attrs: noinline nounwind optnone uwtable
define linkonce_odr float* @_ZSt11__addressofIKfEPT_RS1_(float* nonnull align 4 dereferenceable(4) %__r) #5 comdat !dbg !5511 {
entry:
  %__r.addr = alloca float*, align 8
  store float* %__r, float** %__r.addr, align 8
  call void @llvm.dbg.declare(metadata float** %__r.addr, metadata !5518, metadata !DIExpression()), !dbg !5519
  %0 = load float*, float** %__r.addr, align 8, !dbg !5520
  ret float* %0, !dbg !5521
}

; Function Attrs: noinline nounwind optnone uwtable
define linkonce_odr zeroext i1 @_ZNSt6atomicIfE21compare_exchange_weakERffSt12memory_orderS2_(%"struct.std::atomic"* %this, float* nonnull align 4 dereferenceable(4) %__e, float %__i, i32 %__s, i32 %__f) #5 comdat align 2 !dbg !5522 {
entry:
  %this.addr = alloca %"struct.std::atomic"*, align 8
  %__e.addr = alloca float*, align 8
  %__i.addr = alloca float, align 4
  %__s.addr = alloca i32, align 4
  %__f.addr = alloca i32, align 4
  %cmpxchg.bool = alloca i8, align 1
  store %"struct.std::atomic"* %this, %"struct.std::atomic"** %this.addr, align 8
  call void @llvm.dbg.declare(metadata %"struct.std::atomic"** %this.addr, metadata !5523, metadata !DIExpression()), !dbg !5524
  store float* %__e, float** %__e.addr, align 8
  call void @llvm.dbg.declare(metadata float** %__e.addr, metadata !5525, metadata !DIExpression()), !dbg !5526
  store float %__i, float* %__i.addr, align 4
  call void @llvm.dbg.declare(metadata float* %__i.addr, metadata !5527, metadata !DIExpression()), !dbg !5528
  store i32 %__s, i32* %__s.addr, align 4
  call void @llvm.dbg.declare(metadata i32* %__s.addr, metadata !5529, metadata !DIExpression()), !dbg !5530
  store i32 %__f, i32* %__f.addr, align 4
  call void @llvm.dbg.declare(metadata i32* %__f.addr, metadata !5531, metadata !DIExpression()), !dbg !5532
  %this1 = load %"struct.std::atomic"*, %"struct.std::atomic"** %this.addr, align 8
  br label %do.body, !dbg !5533

do.body:                                          ; preds = %entry
  br label %do.cond, !dbg !5534

do.cond:                                          ; preds = %do.body
  br label %do.end, !dbg !5534

do.end:                                           ; preds = %do.cond
  %_M_i = getelementptr inbounds %"struct.std::atomic", %"struct.std::atomic"* %this1, i32 0, i32 0, !dbg !5536
  %call = call float* @_ZSt11__addressofIfEPT_RS0_(float* nonnull align 4 dereferenceable(4) %_M_i) #9, !dbg !5537
  %0 = load i32, i32* %__s.addr, align 4, !dbg !5538
  %1 = load float*, float** %__e.addr, align 8, !dbg !5539
  %call2 = call float* @_ZSt11__addressofIfEPT_RS0_(float* nonnull align 4 dereferenceable(4) %1) #9, !dbg !5540
  %call3 = call float* @_ZSt11__addressofIfEPT_RS0_(float* nonnull align 4 dereferenceable(4) %__i.addr) #9, !dbg !5541
  %2 = load i32, i32* %__f.addr, align 4, !dbg !5542
  %3 = bitcast float* %call to i32*, !dbg !5543
  %4 = bitcast float* %call2 to i32*, !dbg !5543
  %5 = bitcast float* %call3 to i32*, !dbg !5543
  switch i32 %0, label %monotonic [
    i32 1, label %acquire
    i32 2, label %acquire
    i32 3, label %release
    i32 4, label %acqrel
    i32 5, label %seqcst
  ], !dbg !5543

monotonic:                                        ; preds = %do.end
  switch i32 %2, label %monotonic_fail [
  ], !dbg !5543

acquire:                                          ; preds = %do.end, %do.end
  switch i32 %2, label %monotonic_fail5 [
    i32 1, label %acquire_fail
    i32 2, label %acquire_fail
  ], !dbg !5543

release:                                          ; preds = %do.end
  switch i32 %2, label %monotonic_fail13 [
  ], !dbg !5543

acqrel:                                           ; preds = %do.end
  switch i32 %2, label %monotonic_fail18 [
    i32 1, label %acquire_fail19
    i32 2, label %acquire_fail19
  ], !dbg !5543

seqcst:                                           ; preds = %do.end
  switch i32 %2, label %monotonic_fail27 [
    i32 1, label %acquire_fail28
    i32 2, label %acquire_fail28
    i32 5, label %seqcst_fail
  ], !dbg !5543

atomic.continue:                                  ; preds = %atomic.continue29, %atomic.continue20, %atomic.continue14, %atomic.continue6, %atomic.continue4
  %6 = load i8, i8* %cmpxchg.bool, align 1, !dbg !5543
  %tobool = trunc i8 %6 to i1, !dbg !5543
  ret i1 %tobool, !dbg !5544

monotonic_fail:                                   ; preds = %monotonic
  %7 = load i32, i32* %4, align 4, !dbg !5543
  %8 = load i32, i32* %5, align 4, !dbg !5543
  %9 = cmpxchg weak i32* %3, i32 %7, i32 %8 monotonic monotonic, !dbg !5543
  %10 = extractvalue { i32, i1 } %9, 0, !dbg !5543
  %11 = extractvalue { i32, i1 } %9, 1, !dbg !5543
  br i1 %11, label %cmpxchg.continue, label %cmpxchg.store_expected, !dbg !5543

atomic.continue4:                                 ; preds = %cmpxchg.continue
  br label %atomic.continue, !dbg !5543

cmpxchg.store_expected:                           ; preds = %monotonic_fail
  store i32 %10, i32* %4, align 4, !dbg !5543
  br label %cmpxchg.continue, !dbg !5543

cmpxchg.continue:                                 ; preds = %cmpxchg.store_expected, %monotonic_fail
  %frombool = zext i1 %11 to i8, !dbg !5543
  store i8 %frombool, i8* %cmpxchg.bool, align 1, !dbg !5543
  br label %atomic.continue4, !dbg !5543

monotonic_fail5:                                  ; preds = %acquire
  %12 = load i32, i32* %4, align 4, !dbg !5543
  %13 = load i32, i32* %5, align 4, !dbg !5543
  %14 = cmpxchg weak i32* %3, i32 %12, i32 %13 acquire monotonic, !dbg !5543
  %15 = extractvalue { i32, i1 } %14, 0, !dbg !5543
  %16 = extractvalue { i32, i1 } %14, 1, !dbg !5543
  br i1 %16, label %cmpxchg.continue8, label %cmpxchg.store_expected7, !dbg !5543

acquire_fail:                                     ; preds = %acquire, %acquire
  %17 = load i32, i32* %4, align 4, !dbg !5543
  %18 = load i32, i32* %5, align 4, !dbg !5543
  %19 = cmpxchg weak i32* %3, i32 %17, i32 %18 acquire acquire, !dbg !5543
  %20 = extractvalue { i32, i1 } %19, 0, !dbg !5543
  %21 = extractvalue { i32, i1 } %19, 1, !dbg !5543
  br i1 %21, label %cmpxchg.continue11, label %cmpxchg.store_expected10, !dbg !5543

atomic.continue6:                                 ; preds = %cmpxchg.continue11, %cmpxchg.continue8
  br label %atomic.continue, !dbg !5543

cmpxchg.store_expected7:                          ; preds = %monotonic_fail5
  store i32 %15, i32* %4, align 4, !dbg !5543
  br label %cmpxchg.continue8, !dbg !5543

cmpxchg.continue8:                                ; preds = %cmpxchg.store_expected7, %monotonic_fail5
  %frombool9 = zext i1 %16 to i8, !dbg !5543
  store i8 %frombool9, i8* %cmpxchg.bool, align 1, !dbg !5543
  br label %atomic.continue6, !dbg !5543

cmpxchg.store_expected10:                         ; preds = %acquire_fail
  store i32 %20, i32* %4, align 4, !dbg !5543
  br label %cmpxchg.continue11, !dbg !5543

cmpxchg.continue11:                               ; preds = %cmpxchg.store_expected10, %acquire_fail
  %frombool12 = zext i1 %21 to i8, !dbg !5543
  store i8 %frombool12, i8* %cmpxchg.bool, align 1, !dbg !5543
  br label %atomic.continue6, !dbg !5543

monotonic_fail13:                                 ; preds = %release
  %22 = load i32, i32* %4, align 4, !dbg !5543
  %23 = load i32, i32* %5, align 4, !dbg !5543
  %24 = cmpxchg weak i32* %3, i32 %22, i32 %23 release monotonic, !dbg !5543
  %25 = extractvalue { i32, i1 } %24, 0, !dbg !5543
  %26 = extractvalue { i32, i1 } %24, 1, !dbg !5543
  br i1 %26, label %cmpxchg.continue16, label %cmpxchg.store_expected15, !dbg !5543

atomic.continue14:                                ; preds = %cmpxchg.continue16
  br label %atomic.continue, !dbg !5543

cmpxchg.store_expected15:                         ; preds = %monotonic_fail13
  store i32 %25, i32* %4, align 4, !dbg !5543
  br label %cmpxchg.continue16, !dbg !5543

cmpxchg.continue16:                               ; preds = %cmpxchg.store_expected15, %monotonic_fail13
  %frombool17 = zext i1 %26 to i8, !dbg !5543
  store i8 %frombool17, i8* %cmpxchg.bool, align 1, !dbg !5543
  br label %atomic.continue14, !dbg !5543

monotonic_fail18:                                 ; preds = %acqrel
  %27 = load i32, i32* %4, align 4, !dbg !5543
  %28 = load i32, i32* %5, align 4, !dbg !5543
  %29 = cmpxchg weak i32* %3, i32 %27, i32 %28 acq_rel monotonic, !dbg !5543
  %30 = extractvalue { i32, i1 } %29, 0, !dbg !5543
  %31 = extractvalue { i32, i1 } %29, 1, !dbg !5543
  br i1 %31, label %cmpxchg.continue22, label %cmpxchg.store_expected21, !dbg !5543

acquire_fail19:                                   ; preds = %acqrel, %acqrel
  %32 = load i32, i32* %4, align 4, !dbg !5543
  %33 = load i32, i32* %5, align 4, !dbg !5543
  %34 = cmpxchg weak i32* %3, i32 %32, i32 %33 acq_rel acquire, !dbg !5543
  %35 = extractvalue { i32, i1 } %34, 0, !dbg !5543
  %36 = extractvalue { i32, i1 } %34, 1, !dbg !5543
  br i1 %36, label %cmpxchg.continue25, label %cmpxchg.store_expected24, !dbg !5543

atomic.continue20:                                ; preds = %cmpxchg.continue25, %cmpxchg.continue22
  br label %atomic.continue, !dbg !5543

cmpxchg.store_expected21:                         ; preds = %monotonic_fail18
  store i32 %30, i32* %4, align 4, !dbg !5543
  br label %cmpxchg.continue22, !dbg !5543

cmpxchg.continue22:                               ; preds = %cmpxchg.store_expected21, %monotonic_fail18
