; ModuleID = 'codes/cpp/tc-cpp/TC_CPP_E_IntType_Reduction_Block.cpp'
source_filename = "codes/cpp/tc-cpp/TC_CPP_E_IntType_Reduction_Block.cpp"
target datalayout = "e-m:e-p270:32:32-p271:32:32-p272:64:64-i64:64-f80:128-n8:16:32:64-S128"
target triple = "x86_64-unknown-linux-gnu"

%struct._IO_FILE = type { i32, i8*, i8*, i8*, i8*, i8*, i8*, i8*, i8*, i8*, i8*, i8*, %struct._IO_marker*, %struct._IO_FILE*, i32, i32, i64, i16, i8, [1 x i8], i8*, i64, %struct._IO_codecvt*, %struct._IO_wide_data*, %struct._IO_FILE*, i8*, i64, i32, [20 x i8] }
%struct._IO_marker = type opaque
%struct._IO_codecvt = type opaque
%struct._IO_wide_data = type opaque
%struct.ECLgraph = type { i32, i32, i32*, i32*, i32* }
%struct.timeval = type { i64, i64 }
%"class.std::thread" = type { %"class.std::thread::id" }
%"class.std::thread::id" = type { i64 }
%"class.std::reference_wrapper" = type { i32* }
%"struct.__gnu_cxx::__ops::_Iter_less_iter" = type { i8 }
%"struct.__gnu_cxx::__ops::_Iter_less_val" = type { i8 }
%"struct.__gnu_cxx::__ops::_Val_less_iter" = type { i8 }
%"class.std::unique_ptr" = type { %"struct.std::__uniq_ptr_data" }
%"struct.std::__uniq_ptr_data" = type { %"class.std::__uniq_ptr_impl" }
%"class.std::__uniq_ptr_impl" = type { %"class.std::tuple" }
%"class.std::tuple" = type { %"struct.std::_Tuple_impl" }
%"struct.std::_Tuple_impl" = type { %"struct.std::_Head_base.1" }
%"struct.std::_Head_base.1" = type { %"struct.std::thread::_State"* }
%"struct.std::thread::_State" = type { i32 (...)** }
%"struct.std::thread::_State_impl" = type { %"struct.std::thread::_State", %"struct.std::thread::_Invoker" }
%"struct.std::thread::_Invoker" = type { %"class.std::tuple.2" }
%"class.std::tuple.2" = type { %"struct.std::_Tuple_impl.3" }
%"struct.std::_Tuple_impl.3" = type { %"struct.std::_Tuple_impl.4", %"struct.std::_Head_base.18" }
%"struct.std::_Tuple_impl.4" = type { %"struct.std::_Tuple_impl.base", %"struct.std::_Head_base.17" }
%"struct.std::_Tuple_impl.base" = type <{ %"struct.std::_Tuple_impl.6", %"struct.std::_Head_base.16" }>
%"struct.std::_Tuple_impl.6" = type { %"struct.std::_Tuple_impl.7", %"struct.std::_Head_base.15" }
%"struct.std::_Tuple_impl.7" = type { %"struct.std::_Tuple_impl.8", %"struct.std::_Head_base.14" }
%"struct.std::_Tuple_impl.8" = type { %"struct.std::_Tuple_impl.9", %"struct.std::_Head_base.13" }
%"struct.std::_Tuple_impl.9" = type { %"struct.std::_Tuple_impl.10", %"struct.std::_Head_base.12" }
%"struct.std::_Tuple_impl.10" = type { %"struct.std::_Head_base.11" }
%"struct.std::_Head_base.11" = type { i32 }
%"struct.std::_Head_base.12" = type { i32 }
%"struct.std::_Head_base.13" = type { i32* }
%"struct.std::_Head_base.14" = type { i32* }
%"struct.std::_Head_base.15" = type { i32* }
%"struct.std::_Head_base.16" = type { i32 }
%"struct.std::_Head_base.17" = type { %"class.std::reference_wrapper" }
%"struct.std::_Head_base.18" = type { void (i32*, i32, i32*, i32*, i32*, i32, i32)* }
%"struct.std::_Reference_wrapper_base_memfun" = type { i8 }
%"struct.std::default_delete" = type { i8 }
%"struct.std::_Tuple_impl.5" = type <{ %"struct.std::_Tuple_impl.6", %"struct.std::_Head_base.16", [4 x i8] }>
%"struct.std::_Index_tuple" = type { i8 }
%"struct.std::__invoke_other" = type { i8 }
%"struct.std::_Tuple_impl.0" = type { i8 }
%"struct.std::_Head_base" = type { i8 }

$_ZSt3maxIiERKT_S2_S2_ = comdat any

$_ZSt4sortIPdEvT_S1_ = comdat any

$_ZSt6__sortIPdN9__gnu_cxx5__ops15_Iter_less_iterEEvT_S4_T0_ = comdat any

$_ZN9__gnu_cxx5__ops16__iter_less_iterEv = comdat any

$_ZSt16__introsort_loopIPdlN9__gnu_cxx5__ops15_Iter_less_iterEEvT_S4_T0_T1_ = comdat any

$_ZSt4__lgl = comdat any

$_ZSt22__final_insertion_sortIPdN9__gnu_cxx5__ops15_Iter_less_iterEEvT_S4_T0_ = comdat any

$_ZSt14__partial_sortIPdN9__gnu_cxx5__ops15_Iter_less_iterEEvT_S4_S4_T0_ = comdat any

$_ZSt27__unguarded_partition_pivotIPdN9__gnu_cxx5__ops15_Iter_less_iterEET_S4_S4_T0_ = comdat any

$_ZSt13__heap_selectIPdN9__gnu_cxx5__ops15_Iter_less_iterEEvT_S4_S4_T0_ = comdat any

$_ZSt11__sort_heapIPdN9__gnu_cxx5__ops15_Iter_less_iterEEvT_S4_RT0_ = comdat any

$_ZSt11__make_heapIPdN9__gnu_cxx5__ops15_Iter_less_iterEEvT_S4_RT0_ = comdat any

$_ZNK9__gnu_cxx5__ops15_Iter_less_iterclIPdS3_EEbT_T0_ = comdat any

$_ZSt10__pop_heapIPdN9__gnu_cxx5__ops15_Iter_less_iterEEvT_S4_S4_RT0_ = comdat any

$_ZSt4moveIRdEONSt16remove_referenceIT_E4typeEOS2_ = comdat any

$_ZSt13__adjust_heapIPdldN9__gnu_cxx5__ops15_Iter_less_iterEEvT_T0_S5_T1_T2_ = comdat any

$_ZSt4moveIRN9__gnu_cxx5__ops15_Iter_less_iterEEONSt16remove_referenceIT_E4typeEOS5_ = comdat any

$_ZN9__gnu_cxx5__ops14_Iter_less_valC2ENS0_15_Iter_less_iterE = comdat any

$_ZSt11__push_heapIPdldN9__gnu_cxx5__ops14_Iter_less_valEEvT_T0_S5_T1_RT2_ = comdat any

$_ZNK9__gnu_cxx5__ops14_Iter_less_valclIPddEEbT_RT0_ = comdat any

$_ZSt22__move_median_to_firstIPdN9__gnu_cxx5__ops15_Iter_less_iterEEvT_S4_S4_S4_T0_ = comdat any

$_ZSt21__unguarded_partitionIPdN9__gnu_cxx5__ops15_Iter_less_iterEET_S4_S4_S4_T0_ = comdat any

$_ZSt9iter_swapIPdS0_EvT_T0_ = comdat any

$_ZSt4swapIdENSt9enable_ifIXsr6__and_ISt6__not_ISt15__is_tuple_likeIT_EESt21is_move_constructibleIS3_ESt18is_move_assignableIS3_EEE5valueEvE4typeERS3_SC_ = comdat any

$_ZSt16__insertion_sortIPdN9__gnu_cxx5__ops15_Iter_less_iterEEvT_S4_T0_ = comdat any

$_ZSt26__unguarded_insertion_sortIPdN9__gnu_cxx5__ops15_Iter_less_iterEEvT_S4_T0_ = comdat any

$_ZSt13move_backwardIPdS0_ET0_T_S2_S1_ = comdat any

$_ZSt25__unguarded_linear_insertIPdN9__gnu_cxx5__ops14_Val_less_iterEEvT_T0_ = comdat any

$_ZN9__gnu_cxx5__ops15__val_comp_iterENS0_15_Iter_less_iterE = comdat any

$_ZSt22__copy_move_backward_aILb1EPdS0_ET1_T0_S2_S1_ = comdat any

$_ZSt12__miter_baseIPdET_S1_ = comdat any

$_ZSt12__niter_wrapIPdET_RKS1_S1_ = comdat any

$_ZSt23__copy_move_backward_a1ILb1EPdS0_ET1_T0_S2_S1_ = comdat any

$_ZSt12__niter_baseIPdET_S1_ = comdat any

$_ZSt23__copy_move_backward_a2ILb1EPdS0_ET1_T0_S2_S1_ = comdat any

$_ZNSt20__copy_move_backwardILb1ELb1ESt26random_access_iterator_tagE13__copy_move_bIdEEPT_PKS3_S6_S4_ = comdat any

$_ZNK9__gnu_cxx5__ops14_Val_less_iterclIdPdEEbRT_T0_ = comdat any

$_ZNSt6threadC2Ev = comdat any

$_ZSt3refIiESt17reference_wrapperIT_ERS1_ = comdat any

$_ZNSt6threadC2IRFvRiiPKiS3_S3_iiEJSt17reference_wrapperIiERS2_RKS3_SA_SA_S1_S8_EvEEOT_DpOT0_ = comdat any

$_ZNSt6threadaSEOS_ = comdat any

$_ZNSt6threadD2Ev = comdat any

$_ZNSt6thread2idC2Ev = comdat any

$_ZNSt17reference_wrapperIiEC2IRivPiEEOT_ = comdat any

$_ZNSt17reference_wrapperIiE6_S_funERi = comdat any

$_ZSt7forwardIRiEOT_RNSt16remove_referenceIS1_E4typeE = comdat any

$_ZSt11__addressofIiEPT_RS0_ = comdat any

$_ZSt7forwardIRFvRiiPKiS2_S2_iiEEOT_RNSt16remove_referenceIS5_E4typeE = comdat any

$_ZSt7forwardISt17reference_wrapperIiEEOT_RNSt16remove_referenceIS2_E4typeE = comdat any

$_ZSt7forwardIRKiEOT_RNSt16remove_referenceIS2_E4typeE = comdat any

$_ZSt7forwardIRKPKiEOT_RNSt16remove_referenceIS4_E4typeE = comdat any

$_ZNSt6thread11_State_implINS_8_InvokerISt5tupleIJPFvRiiPKiS5_S5_iiESt17reference_wrapperIiEiS5_S5_S5_iiEEEEEC2IJRS6_S9_RS4_RKS5_SH_SH_S3_SF_EEEDpOT_ = comdat any

$_ZNSt10unique_ptrINSt6thread6_StateESt14default_deleteIS1_EEC2IS3_vEEPS1_ = comdat any

$_ZNSt10unique_ptrINSt6thread6_StateESt14default_deleteIS1_EED2Ev = comdat any

$_ZNSt6thread6_StateC2Ev = comdat any

$_ZNSt6thread8_InvokerISt5tupleIJPFvRiiPKiS4_S4_iiESt17reference_wrapperIiEiS4_S4_S4_iiEEEC2IJRS5_S8_RS3_RKS4_SF_SF_S2_SD_EEEDpOT_ = comdat any

$_ZNSt6thread11_State_implINS_8_InvokerISt5tupleIJPFvRiiPKiS5_S5_iiESt17reference_wrapperIiEiS5_S5_S5_iiEEEEED2Ev = comdat any

$_ZNSt6thread11_State_implINS_8_InvokerISt5tupleIJPFvRiiPKiS5_S5_iiESt17reference_wrapperIiEiS5_S5_S5_iiEEEEED0Ev = comdat any

$_ZNSt6thread11_State_implINS_8_InvokerISt5tupleIJPFvRiiPKiS5_S5_iiESt17reference_wrapperIiEiS5_S5_S5_iiEEEEE6_M_runEv = comdat any

$_ZNSt5tupleIJPFvRiiPKiS2_S2_iiESt17reference_wrapperIiEiS2_S2_S2_iiEEC2IJRS3_S6_RS1_RKS2_SC_SC_S0_SA_ELb1ELb1EEEDpOT_ = comdat any

$_ZNSt11_Tuple_implILm0EJPFvRiiPKiS2_S2_iiESt17reference_wrapperIiEiS2_S2_S2_iiEEC2IRS3_JS6_RS1_RKS2_SC_SC_S0_SA_EvEEOT_DpOT0_ = comdat any

$__clang_call_terminate = comdat any

$_ZNSt11_Tuple_implILm1EJSt17reference_wrapperIiEiPKiS3_S3_iiEEC2IS1_JRS2_RKS3_S8_S8_RiS6_EvEEOT_DpOT0_ = comdat any

$_ZNSt10_Head_baseILm0EPFvRiiPKiS2_S2_iiELb0EEC2ERKS4_ = comdat any

$_ZNSt11_Tuple_implILm2EJiPKiS1_S1_iiEEC2IRS0_JRKS1_S6_S6_RiS4_EvEEOT_DpOT0_ = comdat any

$_ZNSt10_Head_baseILm1ESt17reference_wrapperIiELb0EEC2IS1_EEOT_ = comdat any

$_ZNSt11_Tuple_implILm3EJPKiS1_S1_iiEEC2IRKS1_JS5_S5_RiRS0_EvEEOT_DpOT0_ = comdat any

$_ZNSt10_Head_baseILm2EiLb0EEC2ERKi = comdat any

$_ZNSt11_Tuple_implILm4EJPKiS1_iiEEC2IRKS1_JS5_RiRS0_EvEEOT_DpOT0_ = comdat any

$_ZNSt10_Head_baseILm3EPKiLb0EEC2ERKS1_ = comdat any

$_ZNSt11_Tuple_implILm5EJPKiiiEEC2IRKS1_JRiRS0_EvEEOT_DpOT0_ = comdat any

$_ZNSt10_Head_baseILm4EPKiLb0EEC2ERKS1_ = comdat any

$_ZNSt11_Tuple_implILm6EJiiEEC2IRiJRKiEvEEOT_DpOT0_ = comdat any

$_ZNSt10_Head_baseILm5EPKiLb0EEC2ERKS1_ = comdat any

$_ZNSt11_Tuple_implILm7EJiEEC2ERKi = comdat any

$_ZNSt10_Head_baseILm6EiLb0EEC2IRiEEOT_ = comdat any

$_ZNSt10_Head_baseILm7EiLb0EEC2ERKi = comdat any

$_ZNSt6thread8_InvokerISt5tupleIJPFvRiiPKiS4_S4_iiESt17reference_wrapperIiEiS4_S4_S4_iiEEEclEv = comdat any

$_ZNSt6thread8_InvokerISt5tupleIJPFvRiiPKiS4_S4_iiESt17reference_wrapperIiEiS4_S4_S4_iiEEE9_M_invokeIJLm0ELm1ELm2ELm3ELm4ELm5ELm6ELm7EEEEvSt12_Index_tupleIJXspT_EEE = comdat any

$_ZSt8__invokeIPFvRiiPKiS2_S2_iiEJSt17reference_wrapperIiEiS2_S2_S2_iiEENSt15__invoke_resultIT_JDpT0_EE4typeEOS8_DpOS9_ = comdat any

$_ZSt3getILm0EJPFvRiiPKiS2_S2_iiESt17reference_wrapperIiEiS2_S2_S2_iiEEONSt13tuple_elementIXT_ESt5tupleIJDpT0_EEE4typeEOSB_ = comdat any

$_ZSt4moveIRSt5tupleIJPFvRiiPKiS3_S3_iiESt17reference_wrapperIiEiS3_S3_S3_iiEEEONSt16remove_referenceIT_E4typeEOSB_ = comdat any

$_ZSt3getILm1EJPFvRiiPKiS2_S2_iiESt17reference_wrapperIiEiS2_S2_S2_iiEEONSt13tuple_elementIXT_ESt5tupleIJDpT0_EEE4typeEOSB_ = comdat any

$_ZSt3getILm2EJPFvRiiPKiS2_S2_iiESt17reference_wrapperIiEiS2_S2_S2_iiEEONSt13tuple_elementIXT_ESt5tupleIJDpT0_EEE4typeEOSB_ = comdat any

$_ZSt3getILm3EJPFvRiiPKiS2_S2_iiESt17reference_wrapperIiEiS2_S2_S2_iiEEONSt13tuple_elementIXT_ESt5tupleIJDpT0_EEE4typeEOSB_ = comdat any

$_ZSt3getILm4EJPFvRiiPKiS2_S2_iiESt17reference_wrapperIiEiS2_S2_S2_iiEEONSt13tuple_elementIXT_ESt5tupleIJDpT0_EEE4typeEOSB_ = comdat any

$_ZSt3getILm5EJPFvRiiPKiS2_S2_iiESt17reference_wrapperIiEiS2_S2_S2_iiEEONSt13tuple_elementIXT_ESt5tupleIJDpT0_EEE4typeEOSB_ = comdat any

$_ZSt3getILm6EJPFvRiiPKiS2_S2_iiESt17reference_wrapperIiEiS2_S2_S2_iiEEONSt13tuple_elementIXT_ESt5tupleIJDpT0_EEE4typeEOSB_ = comdat any

$_ZSt3getILm7EJPFvRiiPKiS2_S2_iiESt17reference_wrapperIiEiS2_S2_S2_iiEEONSt13tuple_elementIXT_ESt5tupleIJDpT0_EEE4typeEOSB_ = comdat any

$_ZSt13__invoke_implIvPFvRiiPKiS2_S2_iiEJSt17reference_wrapperIiEiS2_S2_S2_iiEET_St14__invoke_otherOT0_DpOT1_ = comdat any

$_ZSt7forwardIPFvRiiPKiS2_S2_iiEEOT_RNSt16remove_referenceIS5_E4typeE = comdat any

$_ZSt7forwardIiEOT_RNSt16remove_referenceIS0_E4typeE = comdat any

$_ZSt7forwardIPKiEOT_RNSt16remove_referenceIS2_E4typeE = comdat any

$_ZNKSt17reference_wrapperIiEcvRiEv = comdat any

$_ZNKSt17reference_wrapperIiE3getEv = comdat any

$_ZSt12__get_helperILm0EPFvRiiPKiS2_S2_iiEJSt17reference_wrapperIiEiS2_S2_S2_iiEERT0_RSt11_Tuple_implIXT_EJS7_DpT1_EE = comdat any

$_ZNSt11_Tuple_implILm0EJPFvRiiPKiS2_S2_iiESt17reference_wrapperIiEiS2_S2_S2_iiEE7_M_headERS7_ = comdat any

$_ZNSt10_Head_baseILm0EPFvRiiPKiS2_S2_iiELb0EE7_M_headERS5_ = comdat any

$_ZSt12__get_helperILm1ESt17reference_wrapperIiEJiPKiS3_S3_iiEERT0_RSt11_Tuple_implIXT_EJS4_DpT1_EE = comdat any

$_ZNSt11_Tuple_implILm1EJSt17reference_wrapperIiEiPKiS3_S3_iiEE7_M_headERS4_ = comdat any

$_ZNSt10_Head_baseILm1ESt17reference_wrapperIiELb0EE7_M_headERS2_ = comdat any

$_ZSt12__get_helperILm2EiJPKiS1_S1_iiEERT0_RSt11_Tuple_implIXT_EJS2_DpT1_EE = comdat any

$_ZNSt11_Tuple_implILm2EJiPKiS1_S1_iiEE7_M_headERS2_ = comdat any

$_ZNSt10_Head_baseILm2EiLb0EE7_M_headERS0_ = comdat any

$_ZSt12__get_helperILm3EPKiJS1_S1_iiEERT0_RSt11_Tuple_implIXT_EJS2_DpT1_EE = comdat any

$_ZNSt11_Tuple_implILm3EJPKiS1_S1_iiEE7_M_headERS2_ = comdat any

$_ZNSt10_Head_baseILm3EPKiLb0EE7_M_headERS2_ = comdat any

$_ZSt12__get_helperILm4EPKiJS1_iiEERT0_RSt11_Tuple_implIXT_EJS2_DpT1_EE = comdat any

$_ZNSt11_Tuple_implILm4EJPKiS1_iiEE7_M_headERS2_ = comdat any

$_ZNSt10_Head_baseILm4EPKiLb0EE7_M_headERS2_ = comdat any

$_ZSt12__get_helperILm5EPKiJiiEERT0_RSt11_Tuple_implIXT_EJS2_DpT1_EE = comdat any

$_ZNSt11_Tuple_implILm5EJPKiiiEE7_M_headERS2_ = comdat any

$_ZNSt10_Head_baseILm5EPKiLb0EE7_M_headERS2_ = comdat any

$_ZSt12__get_helperILm6EiJiEERT0_RSt11_Tuple_implIXT_EJS0_DpT1_EE = comdat any

$_ZNSt11_Tuple_implILm6EJiiEE7_M_headERS0_ = comdat any

$_ZNSt10_Head_baseILm6EiLb0EE7_M_headERS0_ = comdat any

$_ZSt12__get_helperILm7EiJEERT0_RSt11_Tuple_implIXT_EJS0_DpT1_EE = comdat any

$_ZNSt11_Tuple_implILm7EJiEE7_M_headERS0_ = comdat any

$_ZNSt10_Head_baseILm7EiLb0EE7_M_headERS0_ = comdat any

$_ZNSt15__uniq_ptr_dataINSt6thread6_StateESt14default_deleteIS1_ELb1ELb1EECI2St15__uniq_ptr_implIS1_S3_EEPS1_ = comdat any

$_ZNSt15__uniq_ptr_implINSt6thread6_StateESt14default_deleteIS1_EEC2EPS1_ = comdat any

$_ZNSt5tupleIJPNSt6thread6_StateESt14default_deleteIS1_EEEC2ILb1ELb1EEEv = comdat any

$_ZNSt15__uniq_ptr_implINSt6thread6_StateESt14default_deleteIS1_EE6_M_ptrEv = comdat any

$_ZNSt11_Tuple_implILm0EJPNSt6thread6_StateESt14default_deleteIS1_EEEC2Ev = comdat any

$_ZNSt11_Tuple_implILm1EJSt14default_deleteINSt6thread6_StateEEEEC2Ev = comdat any

$_ZNSt10_Head_baseILm0EPNSt6thread6_StateELb0EEC2Ev = comdat any

$_ZNSt10_Head_baseILm1ESt14default_deleteINSt6thread6_StateEELb1EEC2Ev = comdat any

$_ZSt3getILm0EJPNSt6thread6_StateESt14default_deleteIS1_EEERNSt13tuple_elementIXT_ESt5tupleIJDpT0_EEE4typeERS9_ = comdat any

$_ZSt12__get_helperILm0EPNSt6thread6_StateEJSt14default_deleteIS1_EEERT0_RSt11_Tuple_implIXT_EJS5_DpT1_EE = comdat any

$_ZNSt11_Tuple_implILm0EJPNSt6thread6_StateESt14default_deleteIS1_EEE7_M_headERS5_ = comdat any

$_ZNSt10_Head_baseILm0EPNSt6thread6_StateELb0EE7_M_headERS3_ = comdat any

$_ZNSt10unique_ptrINSt6thread6_StateESt14default_deleteIS1_EE11get_deleterEv = comdat any

$_ZNKSt14default_deleteINSt6thread6_StateEEclEPS1_ = comdat any

$_ZSt4moveIRPNSt6thread6_StateEEONSt16remove_referenceIT_E4typeEOS5_ = comdat any

$_ZNSt15__uniq_ptr_implINSt6thread6_StateESt14default_deleteIS1_EE10_M_deleterEv = comdat any

$_ZSt3getILm1EJPNSt6thread6_StateESt14default_deleteIS1_EEERNSt13tuple_elementIXT_ESt5tupleIJDpT0_EEE4typeERS9_ = comdat any

$_ZSt12__get_helperILm1ESt14default_deleteINSt6thread6_StateEEJEERT0_RSt11_Tuple_implIXT_EJS4_DpT1_EE = comdat any

$_ZNSt11_Tuple_implILm1EJSt14default_deleteINSt6thread6_StateEEEE7_M_headERS4_ = comdat any

$_ZNSt10_Head_baseILm1ESt14default_deleteINSt6thread6_StateEELb1EE7_M_headERS4_ = comdat any

$_ZNKSt6thread8joinableEv = comdat any

$_ZNSt6thread4swapERS_ = comdat any

$_ZSteqNSt6thread2idES0_ = comdat any

$_ZSt4swapINSt6thread2idEENSt9enable_ifIXsr6__and_ISt6__not_ISt15__is_tuple_likeIT_EESt21is_move_constructibleIS5_ESt18is_move_assignableIS5_EEE5valueEvE4typeERS5_SE_ = comdat any

$_ZSt4moveIRNSt6thread2idEEONSt16remove_referenceIT_E4typeEOS4_ = comdat any

$_ZTVNSt6thread11_State_implINS_8_InvokerISt5tupleIJPFvRiiPKiS5_S5_iiESt17reference_wrapperIiEiS5_S5_S5_iiEEEEEE = comdat any

$_ZTSNSt6thread11_State_implINS_8_InvokerISt5tupleIJPFvRiiPKiS5_S5_iiESt17reference_wrapperIiEiS5_S5_S5_iiEEEEEE = comdat any

$_ZTINSt6thread11_State_implINS_8_InvokerISt5tupleIJPFvRiiPKiS5_S5_iiESt17reference_wrapperIiEiS5_S5_S5_iiEEEEEE = comdat any

@.str = private unnamed_addr constant [3 x i8] c"rb\00", align 1
@stderr = external global %struct._IO_FILE*, align 8
@.str.1 = private unnamed_addr constant [32 x i8] c"ERROR: could not open file %s\0A\0A\00", align 1
@.str.2 = private unnamed_addr constant [30 x i8] c"ERROR: failed to read nodes\0A\0A\00", align 1
@.str.3 = private unnamed_addr constant [30 x i8] c"ERROR: failed to read edges\0A\0A\00", align 1
@.str.4 = private unnamed_addr constant [36 x i8] c"input graph: %d nodes and %d edges\0A\00", align 1
@.str.5 = private unnamed_addr constant [36 x i8] c"ERROR: node or edge count too low\0A\0A\00", align 1
@.str.6 = private unnamed_addr constant [34 x i8] c"ERROR: memory allocation failed\0A\0A\00", align 1
@.str.7 = private unnamed_addr constant [44 x i8] c"ERROR: failed to read neighbor index list\0A\0A\00", align 1
@.str.8 = private unnamed_addr constant [38 x i8] c"ERROR: failed to read neighbor list\0A\0A\00", align 1
@.str.9 = private unnamed_addr constant [37 x i8] c"ERROR: failed to read edge weights\0A\0A\00", align 1
@.str.10 = private unnamed_addr constant [3 x i8] c"wb\00", align 1
@.str.11 = private unnamed_addr constant [31 x i8] c"ERROR: failed to write nodes\0A\0A\00", align 1
@.str.12 = private unnamed_addr constant [31 x i8] c"ERROR: failed to write edges\0A\0A\00", align 1
@.str.13 = private unnamed_addr constant [45 x i8] c"ERROR: failed to write neighbor index list\0A\0A\00", align 1
@.str.14 = private unnamed_addr constant [39 x i8] c"ERROR: failed to write neighbor list\0A\0A\00", align 1
@.str.15 = private unnamed_addr constant [38 x i8] c"ERROR: failed to write edge weights\0A\0A\00", align 1
@.str.16 = private unnamed_addr constant [41 x i8] c"Triangle counting edge-centric CPP (%s)\0A\00", align 1
@.str.17 = private unnamed_addr constant [80 x i8] c"/home/lukasrothenberger/git/Parallelization-Artifact-SC23/include/tc_edge_cpp.h\00", align 1
@.str.18 = private unnamed_addr constant [54 x i8] c"USAGE: %s input_graph verify thread_count(optional)\0A\0A\00", align 1
@.str.19 = private unnamed_addr constant [11 x i8] c"graph: %s\0A\00", align 1
@.str.20 = private unnamed_addr constant [11 x i8] c"nodes: %d\0A\00", align 1
@.str.21 = private unnamed_addr constant [11 x i8] c"edges: %d\0A\00", align 1
@.str.22 = private unnamed_addr constant [18 x i8] c"avg degree: %.2f\0A\00", align 1
@.str.23 = private unnamed_addr constant [16 x i8] c"max degree: %d\0A\00", align 1
@.str.24 = private unnamed_addr constant [56 x i8] c"ERROR: adjacency list not sorted or contains self edge\0A\00", align 1
@.str.25 = private unnamed_addr constant [14 x i8] c"Threads: %d\0A\0A\00", align 1
@.str.26 = private unnamed_addr constant [21 x i8] c"CPP runtime: %.6f s\0A\00", align 1
@.str.27 = private unnamed_addr constant [34 x i8] c"CPP Throughput: %.6f gigaedges/s\0A\00", align 1
@.str.28 = private unnamed_addr constant [51 x i8] c"has to be 0 (turn off) or 1 (turn on) verification\00", align 1
@.str.29 = private unnamed_addr constant [27 x i8] c"ERROR: host %ld device %ld\00", align 1
@.str.30 = private unnamed_addr constant [31 x i8] c"the pattern occurs %ld times\0A\0A\00", align 1
@_ZTVNSt6thread11_State_implINS_8_InvokerISt5tupleIJPFvRiiPKiS5_S5_iiESt17reference_wrapperIiEiS5_S5_S5_iiEEEEEE = linkonce_odr unnamed_addr constant { [5 x i8*] } { [5 x i8*] [i8* null, i8* bitcast ({ i8*, i8*, i8* }* @_ZTINSt6thread11_State_implINS_8_InvokerISt5tupleIJPFvRiiPKiS5_S5_iiESt17reference_wrapperIiEiS5_S5_S5_iiEEEEEE to i8*), i8* bitcast (void (%"struct.std::thread::_State_impl"*)* @_ZNSt6thread11_State_implINS_8_InvokerISt5tupleIJPFvRiiPKiS5_S5_iiESt17reference_wrapperIiEiS5_S5_S5_iiEEEEED2Ev to i8*), i8* bitcast (void (%"struct.std::thread::_State_impl"*)* @_ZNSt6thread11_State_implINS_8_InvokerISt5tupleIJPFvRiiPKiS5_S5_iiESt17reference_wrapperIiEiS5_S5_S5_iiEEEEED0Ev to i8*), i8* bitcast (void (%"struct.std::thread::_State_impl"*)* @_ZNSt6thread11_State_implINS_8_InvokerISt5tupleIJPFvRiiPKiS5_S5_iiESt17reference_wrapperIiEiS5_S5_S5_iiEEEEE6_M_runEv to i8*)] }, comdat, align 8
@_ZTVN10__cxxabiv120__si_class_type_infoE = external global i8*
@_ZTSNSt6thread11_State_implINS_8_InvokerISt5tupleIJPFvRiiPKiS5_S5_iiESt17reference_wrapperIiEiS5_S5_S5_iiEEEEEE = linkonce_odr constant [108 x i8] c"NSt6thread11_State_implINS_8_InvokerISt5tupleIJPFvRiiPKiS5_S5_iiESt17reference_wrapperIiEiS5_S5_S5_iiEEEEEE\00", comdat, align 1
@_ZTINSt6thread6_StateE = external constant i8*
@_ZTINSt6thread11_State_implINS_8_InvokerISt5tupleIJPFvRiiPKiS5_S5_iiESt17reference_wrapperIiEiS5_S5_S5_iiEEEEEE = linkonce_odr constant { i8*, i8*, i8* } { i8* bitcast (i8** getelementptr inbounds (i8*, i8** @_ZTVN10__cxxabiv120__si_class_type_infoE, i64 2) to i8*), i8* getelementptr inbounds ([108 x i8], [108 x i8]* @_ZTSNSt6thread11_State_implINS_8_InvokerISt5tupleIJPFvRiiPKiS5_S5_iiESt17reference_wrapperIiEiS5_S5_S5_iiEEEEEE, i32 0, i32 0), i8* bitcast (i8** @_ZTINSt6thread6_StateE to i8*) }, comdat, align 8
@_ZTVNSt6thread6_StateE = external unnamed_addr constant { [5 x i8*] }, align 8
@.str.31 = private unnamed_addr constant [6 x i8] c"fname\00", align 1
@.str.32 = private unnamed_addr constant [4 x i8] c"cnt\00", align 1
@.str.33 = private unnamed_addr constant [2 x i8] c"f\00", align 1
@.str.34 = private unnamed_addr constant [7 x i8] c"stderr\00", align 1
@.str.35 = private unnamed_addr constant [21 x i8] c"GEPRESULT_agg.result\00", align 1
@.str.36 = private unnamed_addr constant [1 x i8] zeroinitializer, align 1
@.str.37 = private unnamed_addr constant [12 x i8] c"GEPRESULT_g\00", align 1
@.str.38 = private unnamed_addr constant [2 x i8] c"g\00", align 1
@.str.39 = private unnamed_addr constant [5 x i8] c".str\00", align 1
@.str.40 = private unnamed_addr constant [7 x i8] c".str.1\00", align 1
@.str.41 = private unnamed_addr constant [7 x i8] c".str.2\00", align 1
@.str.42 = private unnamed_addr constant [7 x i8] c".str.3\00", align 1
@.str.43 = private unnamed_addr constant [7 x i8] c".str.4\00", align 1
@.str.44 = private unnamed_addr constant [7 x i8] c".str.5\00", align 1
@.str.45 = private unnamed_addr constant [7 x i8] c".str.6\00", align 1
@.str.46 = private unnamed_addr constant [7 x i8] c".str.7\00", align 1
@.str.47 = private unnamed_addr constant [7 x i8] c".str.8\00", align 1
@.str.48 = private unnamed_addr constant [7 x i8] c".str.9\00", align 1
@.str.49 = private unnamed_addr constant [8 x i8] c".str.10\00", align 1
@.str.50 = private unnamed_addr constant [8 x i8] c".str.11\00", align 1
@.str.51 = private unnamed_addr constant [8 x i8] c".str.12\00", align 1
@.str.52 = private unnamed_addr constant [8 x i8] c".str.13\00", align 1
@.str.53 = private unnamed_addr constant [8 x i8] c".str.14\00", align 1
@.str.54 = private unnamed_addr constant [8 x i8] c".str.15\00", align 1
@.str.55 = private unnamed_addr constant [8 x i8] c".str.16\00", align 1
@.str.56 = private unnamed_addr constant [8 x i8] c".str.17\00", align 1
@.str.57 = private unnamed_addr constant [8 x i8] c".str.18\00", align 1
@.str.58 = private unnamed_addr constant [8 x i8] c".str.19\00", align 1
@.str.59 = private unnamed_addr constant [8 x i8] c".str.20\00", align 1
@.str.60 = private unnamed_addr constant [8 x i8] c".str.21\00", align 1
@.str.61 = private unnamed_addr constant [8 x i8] c".str.22\00", align 1
@.str.62 = private unnamed_addr constant [8 x i8] c".str.23\00", align 1
@.str.63 = private unnamed_addr constant [8 x i8] c".str.24\00", align 1
@.str.64 = private unnamed_addr constant [8 x i8] c".str.25\00", align 1
@.str.65 = private unnamed_addr constant [8 x i8] c".str.26\00", align 1
@.str.66 = private unnamed_addr constant [8 x i8] c".str.27\00", align 1
@.str.67 = private unnamed_addr constant [8 x i8] c".str.28\00", align 1
@.str.68 = private unnamed_addr constant [8 x i8] c".str.29\00", align 1
@.str.69 = private unnamed_addr constant [8 x i8] c".str.30\00", align 1
@.str.70 = private unnamed_addr constant [112 x i8] c"_ZTVNSt6thread11_State_implINS_8_InvokerISt5tupleIJPFvRiiPKiS5_S5_iiESt17reference_wrapperIiEiS5_S5_S5_iiEEEEEE\00", align 1
@.str.71 = private unnamed_addr constant [41 x i8] c"_ZTVN10__cxxabiv120__si_class_type_infoE\00", align 1
@.str.72 = private unnamed_addr constant [112 x i8] c"_ZTSNSt6thread11_State_implINS_8_InvokerISt5tupleIJPFvRiiPKiS5_S5_iiESt17reference_wrapperIiEiS5_S5_S5_iiEEEEEE\00", align 1
@.str.73 = private unnamed_addr constant [23 x i8] c"_ZTINSt6thread6_StateE\00", align 1
@.str.74 = private unnamed_addr constant [112 x i8] c"_ZTINSt6thread11_State_implINS_8_InvokerISt5tupleIJPFvRiiPKiS5_S5_iiESt17reference_wrapperIiEiS5_S5_S5_iiEEEEEE\00", align 1
@.str.75 = private unnamed_addr constant [23 x i8] c"_ZTVNSt6thread6_StateE\00", align 1
@.str.76 = private unnamed_addr constant [8 x i8] c".str.31\00", align 1
@.str.77 = private unnamed_addr constant [8 x i8] c".str.32\00", align 1
@.str.78 = private unnamed_addr constant [8 x i8] c".str.33\00", align 1
@.str.79 = private unnamed_addr constant [8 x i8] c".str.34\00", align 1
@.str.80 = private unnamed_addr constant [8 x i8] c".str.35\00", align 1
@.str.81 = private unnamed_addr constant [8 x i8] c".str.36\00", align 1
@.str.82 = private unnamed_addr constant [8 x i8] c".str.37\00", align 1
@.str.83 = private unnamed_addr constant [7 x i8] c"retval\00", align 1
@.str.84 = private unnamed_addr constant [5 x i8] c"argc\00", align 1
@.str.85 = private unnamed_addr constant [5 x i8] c"argv\00", align 1
@.str.86 = private unnamed_addr constant [5 x i8] c"mdeg\00", align 1
@.str.87 = private unnamed_addr constant [2 x i8] c"v\00", align 1
@.str.88 = private unnamed_addr constant [8 x i8] c"ref.tmp\00", align 1
@.str.89 = private unnamed_addr constant [2 x i8] c"i\00", align 1
@.str.90 = private unnamed_addr constant [3 x i8] c"sp\00", align 1
@.str.91 = private unnamed_addr constant [2 x i8] c"j\00", align 1
@.str.92 = private unnamed_addr constant [12 x i8] c"threadCount\00", align 1
@.str.93 = private unnamed_addr constant [9 x i8] c"countInt\00", align 1
@.str.94 = private unnamed_addr constant [6 x i8] c"count\00", align 1
@.str.95 = private unnamed_addr constant [5 x i8] c"runs\00", align 1
@.str.96 = private unnamed_addr constant [9 x i8] c"runtimes\00", align 1
@.str.97 = private unnamed_addr constant [4 x i8] c"med\00", align 1
@.str.98 = private unnamed_addr constant [7 x i8] c"verify\00", align 1
@.str.99 = private unnamed_addr constant [6 x i8] c"start\00", align 1
@.str.100 = private unnamed_addr constant [4 x i8] c"end\00", align 1
@.str.101 = private unnamed_addr constant [8 x i8] c"h_count\00", align 1
@.str.102 = private unnamed_addr constant [15 x i8] c"GEPRESULT_argv\00", align 1
@.str.103 = private unnamed_addr constant [22 x i8] c"GEPRESULT_GEPRESULT_g\00", align 1
@.str.104 = private unnamed_addr constant [7 x i8] c"call18\00", align 1
@.str.105 = private unnamed_addr constant [13 x i8] c"GEPRESULT_sp\00", align 1
@.str.106 = private unnamed_addr constant [19 x i8] c"GEPRESULT_runtimes\00", align 1
@.str.107 = private unnamed_addr constant [6 x i8] c"edges\00", align 1
@.str.108 = private unnamed_addr constant [7 x i8] c"nindex\00", align 1
@.str.109 = private unnamed_addr constant [6 x i8] c"nlist\00", align 1
@.str.110 = private unnamed_addr constant [12 x i8] c"saved_stack\00", align 1
@.str.111 = private unnamed_addr constant [12 x i8] c"__vla_expr0\00", align 1
@.str.112 = private unnamed_addr constant [12 x i8] c"__vla_expr1\00", align 1
@.str.113 = private unnamed_addr constant [9 x i8] c"ref.tmp2\00", align 1
@.str.114 = private unnamed_addr constant [9 x i8] c"exn.slot\00", align 1
@.str.115 = private unnamed_addr constant [16 x i8] c"ehselector.slot\00", align 1
@.str.116 = private unnamed_addr constant [14 x i8] c"threadHandles\00", align 1
@.str.117 = private unnamed_addr constant [10 x i8] c"localSums\00", align 1
@.str.118 = private unnamed_addr constant [19 x i8] c"GEPRESULT_ref.tmp2\00", align 1
@.str.119 = private unnamed_addr constant [15 x i8] c"GEPRESULT_vla1\00", align 1
@.str.120 = private unnamed_addr constant [14 x i8] c"GEPRESULT_end\00", align 1
@.str.121 = private unnamed_addr constant [16 x i8] c"GEPRESULT_start\00", align 1
@.str.122 = private unnamed_addr constant [6 x i8] c"array\00", align 1
@.str.123 = private unnamed_addr constant [2 x i8] c"n\00", align 1
@.str.124 = private unnamed_addr constant [7 x i8] c"median\00", align 1
@.str.125 = private unnamed_addr constant [16 x i8] c"GEPRESULT_array\00", align 1
@.str.126 = private unnamed_addr constant [6 x i8] c"nodes\00", align 1
@.str.127 = private unnamed_addr constant [5 x i8] c"beg1\00", align 1
@.str.128 = private unnamed_addr constant [5 x i8] c"end1\00", align 1
@.str.129 = private unnamed_addr constant [7 x i8] c"start1\00", align 1
@.str.130 = private unnamed_addr constant [2 x i8] c"u\00", align 1
@.str.131 = private unnamed_addr constant [5 x i8] c"beg2\00", align 1
@.str.132 = private unnamed_addr constant [5 x i8] c"end2\00", align 1
@.str.133 = private unnamed_addr constant [7 x i8] c"start2\00", align 1
@.str.134 = private unnamed_addr constant [17 x i8] c"GEPRESULT_nindex\00", align 1
@.str.135 = private unnamed_addr constant [16 x i8] c"GEPRESULT_nlist\00", align 1
@.str.136 = private unnamed_addr constant [7 x i8] c"common\00", align 1
@.str.137 = private unnamed_addr constant [5 x i8] c"pos1\00", align 1
@.str.138 = private unnamed_addr constant [5 x i8] c"pos2\00", align 1
@.str.139 = private unnamed_addr constant [8 x i8] c"g_count\00", align 1
@.str.140 = private unnamed_addr constant [9 x i8] c"threadID\00", align 1
@.str.141 = private unnamed_addr constant [8 x i8] c"begEdge\00", align 1
@.str.142 = private unnamed_addr constant [8 x i8] c"endEdge\00", align 1
@.str.143 = private unnamed_addr constant [2 x i8] c"e\00", align 1
@.str.144 = private unnamed_addr constant [4 x i8] c"src\00", align 1
@.str.145 = private unnamed_addr constant [4 x i8] c"dst\00", align 1
@.str.146 = private unnamed_addr constant [7 x i8] c"target\00", align 1
@.str.147 = private unnamed_addr constant [4 x i8] c"beg\00", align 1
@.str.148 = private unnamed_addr constant [5 x i8] c"left\00", align 1
@.str.149 = private unnamed_addr constant [6 x i8] c"right\00", align 1
@.str.150 = private unnamed_addr constant [7 x i8] c"middle\00", align 1

; Function Attrs: noinline optnone uwtable
define void @_Z12readECLgraphPKc(%struct.ECLgraph* noalias sret align 8 %agg.result, i8* %fname) #0 !dbg !1315 {
entry:
  call void @__dp_func_entry(i32 16436, i32 0), !dp.md.instr.id !1327
  %fname.addr = alloca i8*, align 8, !dp.md.instr.id !1328
  %0 = ptrtoint i8** %fname.addr to i64, !dp.md.instr.id !1329
  %cnt = alloca i32, align 4, !dp.md.instr.id !1330
  %1 = ptrtoint i32* %cnt to i64, !dp.md.instr.id !1331
  %f = alloca %struct._IO_FILE*, align 8, !dp.md.instr.id !1332
  %2 = ptrtoint %struct._IO_FILE** %f to i64, !dp.md.instr.id !1333
  %3 = ptrtoint i8** %fname.addr to i64
  store i8* %fname, i8** %fname.addr, align 8, !dp.md.instr.id !1334
  call void @llvm.dbg.declare(metadata i8** %fname.addr, metadata !1335, metadata !DIExpression()), !dbg !1336, !dp.md.instr.id !1337
  call void @llvm.dbg.declare(metadata %struct.ECLgraph* %agg.result, metadata !1338, metadata !DIExpression()), !dbg !1339, !dp.md.instr.id !1340
  call void @llvm.dbg.declare(metadata i32* %cnt, metadata !1341, metadata !DIExpression()), !dbg !1342, !dp.md.instr.id !1343
  call void @llvm.dbg.declare(metadata %struct._IO_FILE** %f, metadata !1344, metadata !DIExpression()), !dbg !1345, !dp.md.instr.id !1346
  %4 = ptrtoint i8** %fname.addr to i64
  %5 = load i8*, i8** %fname.addr, align 8, !dbg !1347, !dp.md.instr.id !1348
  call void @__dp_call(i32 16441), !dbg !1349
  %call = call noalias %struct._IO_FILE* @fopen(i8* %5, i8* getelementptr inbounds ([3 x i8], [3 x i8]* @.str, i64 0, i64 0)), !dbg !1349, !dp.md.instr.id !1350
  %6 = ptrtoint %struct._IO_FILE** %f to i64
  store %struct._IO_FILE* %call, %struct._IO_FILE** %f, align 8, !dbg !1345, !dp.md.instr.id !1351
  %7 = ptrtoint %struct._IO_FILE** %f to i64
  %8 = load %struct._IO_FILE*, %struct._IO_FILE** %f, align 8, !dbg !1352, !dp.md.instr.id !1354
  %cmp = icmp eq %struct._IO_FILE* %8, null, !dbg !1355, !dp.md.instr.id !1356
  call void @__dp_report_bb(i32 0)
  br i1 %cmp, label %if.then, label %if.end, !dbg !1357, !dp.md.instr.id !1358

if.then:                                          ; preds = %entry
  %9 = ptrtoint %struct._IO_FILE** @stderr to i64
  call void @__dp_read(i32 22, i64 %9, i8* getelementptr inbounds ([7 x i8], [7 x i8]* @.str.34, i32 0, i32 0))
  %10 = load %struct._IO_FILE*, %struct._IO_FILE** @stderr, align 8, !dbg !1359, !dp.md.instr.id !1361
  %11 = ptrtoint i8** %fname.addr to i64
  %12 = load i8*, i8** %fname.addr, align 8, !dbg !1362, !dp.md.instr.id !1363
  call void @__dp_call(i32 16441), !dbg !1364
  %call1 = call i32 (%struct._IO_FILE*, i8*, ...) @fprintf(%struct._IO_FILE* %10, i8* getelementptr inbounds ([32 x i8], [32 x i8]* @.str.1, i64 0, i64 0), i8* %12), !dbg !1364, !dp.md.instr.id !1365
  call void @__dp_finalize(i32 16441), !dbg !1366
  call void @exit(i32 -1) #13, !dbg !1366, !dp.md.instr.id !1367
  call void @__dp_report_bb(i32 1)
  unreachable, !dbg !1366, !dp.md.instr.id !1368

if.end:                                           ; preds = %entry
  %nodes = getelementptr inbounds %struct.ECLgraph, %struct.ECLgraph* %agg.result, i32 0, i32 0, !dbg !1369, !dp.md.instr.id !1370
  %13 = bitcast i32* %nodes to i8*, !dbg !1371, !dp.md.instr.id !1372
  %14 = ptrtoint %struct._IO_FILE** %f to i64
  %15 = load %struct._IO_FILE*, %struct._IO_FILE** %f, align 8, !dbg !1373, !dp.md.instr.id !1374
  call void @__dp_call(i32 16442), !dbg !1375
  %call2 = call i64 @fread(i8* %13, i64 4, i64 1, %struct._IO_FILE* %15), !dbg !1375, !dp.md.instr.id !1376
  %conv = trunc i64 %call2 to i32, !dbg !1375, !dp.md.instr.id !1377
  %16 = ptrtoint i32* %cnt to i64
  store i32 %conv, i32* %cnt, align 4, !dbg !1378, !dp.md.instr.id !1379
  %17 = ptrtoint i32* %cnt to i64
  %18 = load i32, i32* %cnt, align 4, !dbg !1380, !dp.md.instr.id !1382
  %cmp3 = icmp ne i32 %18, 1, !dbg !1383, !dp.md.instr.id !1384
  call void @__dp_report_bb(i32 2)
  br i1 %cmp3, label %if.then4, label %if.end6, !dbg !1385, !dp.md.instr.id !1386

if.then4:                                         ; preds = %if.end
  %19 = ptrtoint %struct._IO_FILE** @stderr to i64
  call void @__dp_read(i32 36, i64 %19, i8* getelementptr inbounds ([7 x i8], [7 x i8]* @.str.34, i32 0, i32 0))
  %20 = load %struct._IO_FILE*, %struct._IO_FILE** @stderr, align 8, !dbg !1387, !dp.md.instr.id !1389
  call void @__dp_call(i32 16442), !dbg !1390
  %call5 = call i32 (%struct._IO_FILE*, i8*, ...) @fprintf(%struct._IO_FILE* %20, i8* getelementptr inbounds ([30 x i8], [30 x i8]* @.str.2, i64 0, i64 0)), !dbg !1390, !dp.md.instr.id !1391
  call void @__dp_finalize(i32 16442), !dbg !1392
  call void @exit(i32 -1) #13, !dbg !1392, !dp.md.instr.id !1393
  unreachable, !dbg !1392, !dp.md.instr.id !1394

if.end6:                                          ; preds = %if.end
  %edges = getelementptr inbounds %struct.ECLgraph, %struct.ECLgraph* %agg.result, i32 0, i32 1, !dbg !1395, !dp.md.instr.id !1396
  %21 = bitcast i32* %edges to i8*, !dbg !1397, !dp.md.instr.id !1398
  %22 = ptrtoint %struct._IO_FILE** %f to i64
  %23 = load %struct._IO_FILE*, %struct._IO_FILE** %f, align 8, !dbg !1399, !dp.md.instr.id !1400
  call void @__dp_call(i32 16443), !dbg !1401
  %call7 = call i64 @fread(i8* %21, i64 4, i64 1, %struct._IO_FILE* %23), !dbg !1401, !dp.md.instr.id !1402
  %conv8 = trunc i64 %call7 to i32, !dbg !1401, !dp.md.instr.id !1403
  %24 = ptrtoint i32* %cnt to i64
  store i32 %conv8, i32* %cnt, align 4, !dbg !1404, !dp.md.instr.id !1405
  %25 = ptrtoint i32* %cnt to i64
  %26 = load i32, i32* %cnt, align 4, !dbg !1406, !dp.md.instr.id !1408
  %cmp9 = icmp ne i32 %26, 1, !dbg !1409, !dp.md.instr.id !1410
  call void @__dp_report_bb(i32 3)
  br i1 %cmp9, label %if.then10, label %if.end12, !dbg !1411, !dp.md.instr.id !1412

if.then10:                                        ; preds = %if.end6
  %27 = ptrtoint %struct._IO_FILE** @stderr to i64
  call void @__dp_read(i32 49, i64 %27, i8* getelementptr inbounds ([7 x i8], [7 x i8]* @.str.34, i32 0, i32 0))
  %28 = load %struct._IO_FILE*, %struct._IO_FILE** @stderr, align 8, !dbg !1413, !dp.md.instr.id !1415
  call void @__dp_call(i32 16443), !dbg !1416
  %call11 = call i32 (%struct._IO_FILE*, i8*, ...) @fprintf(%struct._IO_FILE* %28, i8* getelementptr inbounds ([30 x i8], [30 x i8]* @.str.3, i64 0, i64 0)), !dbg !1416, !dp.md.instr.id !1417
  call void @__dp_finalize(i32 16443), !dbg !1418
  call void @exit(i32 -1) #13, !dbg !1418, !dp.md.instr.id !1419
  unreachable, !dbg !1418, !dp.md.instr.id !1420

if.end12:                                         ; preds = %if.end6
  %nodes13 = getelementptr inbounds %struct.ECLgraph, %struct.ECLgraph* %agg.result, i32 0, i32 0, !dbg !1421, !dp.md.instr.id !1422
  %29 = ptrtoint i32* %nodes13 to i64
  call void @__dp_read(i32 54, i64 %29, i8* getelementptr inbounds ([21 x i8], [21 x i8]* @.str.35, i32 0, i32 0))
  %30 = load i32, i32* %nodes13, align 8, !dbg !1421, !dp.md.instr.id !1423
  %edges14 = getelementptr inbounds %struct.ECLgraph, %struct.ECLgraph* %agg.result, i32 0, i32 1, !dbg !1424, !dp.md.instr.id !1425
  %31 = ptrtoint i32* %edges14 to i64
  call void @__dp_read(i32 56, i64 %31, i8* getelementptr inbounds ([21 x i8], [21 x i8]* @.str.35, i32 0, i32 0))
  %32 = load i32, i32* %edges14, align 4, !dbg !1424, !dp.md.instr.id !1426
  call void @__dp_call(i32 16444), !dbg !1427
  %call15 = call i32 (i8*, ...) @printf(i8* getelementptr inbounds ([36 x i8], [36 x i8]* @.str.4, i64 0, i64 0), i32 %30, i32 %32), !dbg !1427, !dp.md.instr.id !1428
  %nodes16 = getelementptr inbounds %struct.ECLgraph, %struct.ECLgraph* %agg.result, i32 0, i32 0, !dbg !1429, !dp.md.instr.id !1431
  %33 = ptrtoint i32* %nodes16 to i64
  call void @__dp_read(i32 59, i64 %33, i8* getelementptr inbounds ([21 x i8], [21 x i8]* @.str.35, i32 0, i32 0))
  %34 = load i32, i32* %nodes16, align 8, !dbg !1429, !dp.md.instr.id !1432
  %cmp17 = icmp slt i32 %34, 1, !dbg !1433, !dp.md.instr.id !1434
  br i1 %cmp17, label %if.then20, label %lor.lhs.false, !dbg !1435, !dp.md.instr.id !1436

lor.lhs.false:                                    ; preds = %if.end12
  %edges18 = getelementptr inbounds %struct.ECLgraph, %struct.ECLgraph* %agg.result, i32 0, i32 1, !dbg !1437, !dp.md.instr.id !1438
  %35 = ptrtoint i32* %edges18 to i64
  call void @__dp_read(i32 63, i64 %35, i8* getelementptr inbounds ([21 x i8], [21 x i8]* @.str.35, i32 0, i32 0))
  %36 = load i32, i32* %edges18, align 4, !dbg !1437, !dp.md.instr.id !1439
  %cmp19 = icmp slt i32 %36, 0, !dbg !1440, !dp.md.instr.id !1441
  br i1 %cmp19, label %if.then20, label %if.end22, !dbg !1442, !dp.md.instr.id !1443

if.then20:                                        ; preds = %lor.lhs.false, %if.end12
  %37 = ptrtoint %struct._IO_FILE** @stderr to i64
  call void @__dp_read(i32 66, i64 %37, i8* getelementptr inbounds ([7 x i8], [7 x i8]* @.str.34, i32 0, i32 0))
  %38 = load %struct._IO_FILE*, %struct._IO_FILE** @stderr, align 8, !dbg !1444, !dp.md.instr.id !1446
  call void @__dp_call(i32 16445), !dbg !1447
  %call21 = call i32 (%struct._IO_FILE*, i8*, ...) @fprintf(%struct._IO_FILE* %38, i8* getelementptr inbounds ([36 x i8], [36 x i8]* @.str.5, i64 0, i64 0)), !dbg !1447, !dp.md.instr.id !1448
  call void @__dp_finalize(i32 16445), !dbg !1449
  call void @exit(i32 -1) #13, !dbg !1449, !dp.md.instr.id !1450
  unreachable, !dbg !1449, !dp.md.instr.id !1451

if.end22:                                         ; preds = %lor.lhs.false
  %nodes23 = getelementptr inbounds %struct.ECLgraph, %struct.ECLgraph* %agg.result, i32 0, i32 0, !dbg !1452, !dp.md.instr.id !1453
  %39 = ptrtoint i32* %nodes23 to i64
  call void @__dp_read(i32 71, i64 %39, i8* getelementptr inbounds ([21 x i8], [21 x i8]* @.str.35, i32 0, i32 0))
  %40 = load i32, i32* %nodes23, align 8, !dbg !1452, !dp.md.instr.id !1454
  %add = add nsw i32 %40, 1, !dbg !1455, !dp.md.instr.id !1456
  %conv24 = sext i32 %add to i64, !dbg !1457, !dp.md.instr.id !1458
  %mul = mul i64 %conv24, 4, !dbg !1459, !dp.md.instr.id !1460
  %call25 = call noalias i8* @malloc(i64 %mul) #10, !dbg !1461, !dp.md.instr.id !1462
  %41 = ptrtoint i8* %call25 to i64, !dp.md.instr.id !1463
  call void @__dp_new(i32 16447, i64 %41, i64 %41, i64 %mul), !dbg !1464, !dp.md.instr.id !1465
  %42 = bitcast i8* %call25 to i32*, !dbg !1464, !dp.md.instr.id !1466
  %nindex = getelementptr inbounds %struct.ECLgraph, %struct.ECLgraph* %agg.result, i32 0, i32 2, !dbg !1467, !dp.md.instr.id !1468
  %43 = ptrtoint i32** %nindex to i64
  call void @__dp_write(i32 80, i64 %43, i8* getelementptr inbounds ([21 x i8], [21 x i8]* @.str.35, i32 0, i32 0))
  store i32* %42, i32** %nindex, align 8, !dbg !1469, !dp.md.instr.id !1470
  %edges26 = getelementptr inbounds %struct.ECLgraph, %struct.ECLgraph* %agg.result, i32 0, i32 1, !dbg !1471, !dp.md.instr.id !1472
  %44 = ptrtoint i32* %edges26 to i64
  call void @__dp_read(i32 82, i64 %44, i8* getelementptr inbounds ([21 x i8], [21 x i8]* @.str.35, i32 0, i32 0))
  %45 = load i32, i32* %edges26, align 4, !dbg !1471, !dp.md.instr.id !1473
  %conv27 = sext i32 %45 to i64, !dbg !1474, !dp.md.instr.id !1475
  %mul28 = mul i64 %conv27, 4, !dbg !1476, !dp.md.instr.id !1477
  %call29 = call noalias i8* @malloc(i64 %mul28) #10, !dbg !1478, !dp.md.instr.id !1479
  %46 = ptrtoint i8* %call29 to i64, !dp.md.instr.id !1480
  call void @__dp_new(i32 16448, i64 %46, i64 %46, i64 %mul28), !dbg !1481, !dp.md.instr.id !1482
  %47 = bitcast i8* %call29 to i32*, !dbg !1481, !dp.md.instr.id !1483
  %nlist = getelementptr inbounds %struct.ECLgraph, %struct.ECLgraph* %agg.result, i32 0, i32 3, !dbg !1484, !dp.md.instr.id !1485
  %48 = ptrtoint i32** %nlist to i64
  call void @__dp_write(i32 90, i64 %48, i8* getelementptr inbounds ([21 x i8], [21 x i8]* @.str.35, i32 0, i32 0))
  store i32* %47, i32** %nlist, align 8, !dbg !1486, !dp.md.instr.id !1487
  %edges30 = getelementptr inbounds %struct.ECLgraph, %struct.ECLgraph* %agg.result, i32 0, i32 1, !dbg !1488, !dp.md.instr.id !1489
  %49 = ptrtoint i32* %edges30 to i64
  call void @__dp_read(i32 92, i64 %49, i8* getelementptr inbounds ([21 x i8], [21 x i8]* @.str.35, i32 0, i32 0))
  %50 = load i32, i32* %edges30, align 4, !dbg !1488, !dp.md.instr.id !1490
  %conv31 = sext i32 %50 to i64, !dbg !1491, !dp.md.instr.id !1492
  %mul32 = mul i64 %conv31, 4, !dbg !1493, !dp.md.instr.id !1494
  %call33 = call noalias i8* @malloc(i64 %mul32) #10, !dbg !1495, !dp.md.instr.id !1496
  %51 = ptrtoint i8* %call33 to i64, !dp.md.instr.id !1497
  call void @__dp_new(i32 16449, i64 %51, i64 %51, i64 %mul32), !dbg !1498, !dp.md.instr.id !1499
  %52 = bitcast i8* %call33 to i32*, !dbg !1498, !dp.md.instr.id !1500
  %eweight = getelementptr inbounds %struct.ECLgraph, %struct.ECLgraph* %agg.result, i32 0, i32 4, !dbg !1501, !dp.md.instr.id !1502
  %53 = ptrtoint i32** %eweight to i64
  call void @__dp_write(i32 100, i64 %53, i8* getelementptr inbounds ([21 x i8], [21 x i8]* @.str.35, i32 0, i32 0))
  store i32* %52, i32** %eweight, align 8, !dbg !1503, !dp.md.instr.id !1504
  %nindex34 = getelementptr inbounds %struct.ECLgraph, %struct.ECLgraph* %agg.result, i32 0, i32 2, !dbg !1505, !dp.md.instr.id !1507
  %54 = ptrtoint i32** %nindex34 to i64
  call void @__dp_read(i32 102, i64 %54, i8* getelementptr inbounds ([21 x i8], [21 x i8]* @.str.35, i32 0, i32 0))
  %55 = load i32*, i32** %nindex34, align 8, !dbg !1505, !dp.md.instr.id !1508
  %cmp35 = icmp eq i32* %55, null, !dbg !1509, !dp.md.instr.id !1510
  br i1 %cmp35, label %if.then42, label %lor.lhs.false36, !dbg !1511, !dp.md.instr.id !1512

lor.lhs.false36:                                  ; preds = %if.end22
  %nlist37 = getelementptr inbounds %struct.ECLgraph, %struct.ECLgraph* %agg.result, i32 0, i32 3, !dbg !1513, !dp.md.instr.id !1514
  %56 = ptrtoint i32** %nlist37 to i64
  call void @__dp_read(i32 106, i64 %56, i8* getelementptr inbounds ([21 x i8], [21 x i8]* @.str.35, i32 0, i32 0))
  %57 = load i32*, i32** %nlist37, align 8, !dbg !1513, !dp.md.instr.id !1515
  %cmp38 = icmp eq i32* %57, null, !dbg !1516, !dp.md.instr.id !1517
  br i1 %cmp38, label %if.then42, label %lor.lhs.false39, !dbg !1518, !dp.md.instr.id !1519

lor.lhs.false39:                                  ; preds = %lor.lhs.false36
  %eweight40 = getelementptr inbounds %struct.ECLgraph, %struct.ECLgraph* %agg.result, i32 0, i32 4, !dbg !1520, !dp.md.instr.id !1521
  %58 = ptrtoint i32** %eweight40 to i64
  call void @__dp_read(i32 110, i64 %58, i8* getelementptr inbounds ([21 x i8], [21 x i8]* @.str.35, i32 0, i32 0))
  %59 = load i32*, i32** %eweight40, align 8, !dbg !1520, !dp.md.instr.id !1522
  %cmp41 = icmp eq i32* %59, null, !dbg !1523, !dp.md.instr.id !1524
  br i1 %cmp41, label %if.then42, label %if.end44, !dbg !1525, !dp.md.instr.id !1526

if.then42:                                        ; preds = %lor.lhs.false39, %lor.lhs.false36, %if.end22
  %60 = ptrtoint %struct._IO_FILE** @stderr to i64
  call void @__dp_read(i32 113, i64 %60, i8* getelementptr inbounds ([7 x i8], [7 x i8]* @.str.34, i32 0, i32 0))
  %61 = load %struct._IO_FILE*, %struct._IO_FILE** @stderr, align 8, !dbg !1527, !dp.md.instr.id !1529
  call void @__dp_call(i32 16450), !dbg !1530
  %call43 = call i32 (%struct._IO_FILE*, i8*, ...) @fprintf(%struct._IO_FILE* %61, i8* getelementptr inbounds ([34 x i8], [34 x i8]* @.str.6, i64 0, i64 0)), !dbg !1530, !dp.md.instr.id !1531
  call void @__dp_finalize(i32 16450), !dbg !1532
  call void @exit(i32 -1) #13, !dbg !1532, !dp.md.instr.id !1533
  unreachable, !dbg !1532, !dp.md.instr.id !1534

if.end44:                                         ; preds = %lor.lhs.false39
  %nindex45 = getelementptr inbounds %struct.ECLgraph, %struct.ECLgraph* %agg.result, i32 0, i32 2, !dbg !1535, !dp.md.instr.id !1536
  %62 = ptrtoint i32** %nindex45 to i64
  call void @__dp_read(i32 118, i64 %62, i8* getelementptr inbounds ([21 x i8], [21 x i8]* @.str.35, i32 0, i32 0))
  %63 = load i32*, i32** %nindex45, align 8, !dbg !1535, !dp.md.instr.id !1537
  %64 = bitcast i32* %63 to i8*, !dbg !1538, !dp.md.instr.id !1539
  %nodes46 = getelementptr inbounds %struct.ECLgraph, %struct.ECLgraph* %agg.result, i32 0, i32 0, !dbg !1540, !dp.md.instr.id !1541
  %65 = ptrtoint i32* %nodes46 to i64
  call void @__dp_read(i32 121, i64 %65, i8* getelementptr inbounds ([21 x i8], [21 x i8]* @.str.35, i32 0, i32 0))
  %66 = load i32, i32* %nodes46, align 8, !dbg !1540, !dp.md.instr.id !1542
  %add47 = add nsw i32 %66, 1, !dbg !1543, !dp.md.instr.id !1544
  %conv48 = sext i32 %add47 to i64, !dbg !1545, !dp.md.instr.id !1546
  %67 = ptrtoint %struct._IO_FILE** %f to i64
  %68 = load %struct._IO_FILE*, %struct._IO_FILE** %f, align 8, !dbg !1547, !dp.md.instr.id !1548
  call void @__dp_call(i32 16452), !dbg !1549
  %call49 = call i64 @fread(i8* %64, i64 4, i64 %conv48, %struct._IO_FILE* %68), !dbg !1549, !dp.md.instr.id !1550
  %conv50 = trunc i64 %call49 to i32, !dbg !1549, !dp.md.instr.id !1551
  %69 = ptrtoint i32* %cnt to i64
  store i32 %conv50, i32* %cnt, align 4, !dbg !1552, !dp.md.instr.id !1553
  %70 = ptrtoint i32* %cnt to i64
  %71 = load i32, i32* %cnt, align 4, !dbg !1554, !dp.md.instr.id !1556
  %nodes51 = getelementptr inbounds %struct.ECLgraph, %struct.ECLgraph* %agg.result, i32 0, i32 0, !dbg !1557, !dp.md.instr.id !1558
  %72 = ptrtoint i32* %nodes51 to i64
  call void @__dp_read(i32 130, i64 %72, i8* getelementptr inbounds ([21 x i8], [21 x i8]* @.str.35, i32 0, i32 0))
  %73 = load i32, i32* %nodes51, align 8, !dbg !1557, !dp.md.instr.id !1559
  %add52 = add nsw i32 %73, 1, !dbg !1560, !dp.md.instr.id !1561
  %cmp53 = icmp ne i32 %71, %add52, !dbg !1562, !dp.md.instr.id !1563
  call void @__dp_report_bb(i32 4)
  br i1 %cmp53, label %if.then54, label %if.end56, !dbg !1564, !dp.md.instr.id !1565

if.then54:                                        ; preds = %if.end44
  %74 = ptrtoint %struct._IO_FILE** @stderr to i64
  call void @__dp_read(i32 134, i64 %74, i8* getelementptr inbounds ([7 x i8], [7 x i8]* @.str.34, i32 0, i32 0))
  %75 = load %struct._IO_FILE*, %struct._IO_FILE** @stderr, align 8, !dbg !1566, !dp.md.instr.id !1568
  call void @__dp_call(i32 16452), !dbg !1569
  %call55 = call i32 (%struct._IO_FILE*, i8*, ...) @fprintf(%struct._IO_FILE* %75, i8* getelementptr inbounds ([44 x i8], [44 x i8]* @.str.7, i64 0, i64 0)), !dbg !1569, !dp.md.instr.id !1570
  call void @__dp_finalize(i32 16452), !dbg !1571
  call void @exit(i32 -1) #13, !dbg !1571, !dp.md.instr.id !1572
  unreachable, !dbg !1571, !dp.md.instr.id !1573

if.end56:                                         ; preds = %if.end44
  %nlist57 = getelementptr inbounds %struct.ECLgraph, %struct.ECLgraph* %agg.result, i32 0, i32 3, !dbg !1574, !dp.md.instr.id !1575
  %76 = ptrtoint i32** %nlist57 to i64
  call void @__dp_read(i32 139, i64 %76, i8* getelementptr inbounds ([21 x i8], [21 x i8]* @.str.35, i32 0, i32 0))
  %77 = load i32*, i32** %nlist57, align 8, !dbg !1574, !dp.md.instr.id !1576
  %78 = bitcast i32* %77 to i8*, !dbg !1577, !dp.md.instr.id !1578
  %edges58 = getelementptr inbounds %struct.ECLgraph, %struct.ECLgraph* %agg.result, i32 0, i32 1, !dbg !1579, !dp.md.instr.id !1580
  %79 = ptrtoint i32* %edges58 to i64
  call void @__dp_read(i32 142, i64 %79, i8* getelementptr inbounds ([21 x i8], [21 x i8]* @.str.35, i32 0, i32 0))
  %80 = load i32, i32* %edges58, align 4, !dbg !1579, !dp.md.instr.id !1581
  %conv59 = sext i32 %80 to i64, !dbg !1582, !dp.md.instr.id !1583
  %81 = ptrtoint %struct._IO_FILE** %f to i64
  %82 = load %struct._IO_FILE*, %struct._IO_FILE** %f, align 8, !dbg !1584, !dp.md.instr.id !1585
  call void @__dp_call(i32 16453), !dbg !1586
  %call60 = call i64 @fread(i8* %78, i64 4, i64 %conv59, %struct._IO_FILE* %82), !dbg !1586, !dp.md.instr.id !1587
  %conv61 = trunc i64 %call60 to i32, !dbg !1586, !dp.md.instr.id !1588
  %83 = ptrtoint i32* %cnt to i64
  store i32 %conv61, i32* %cnt, align 4, !dbg !1589, !dp.md.instr.id !1590
  %84 = ptrtoint i32* %cnt to i64
  %85 = load i32, i32* %cnt, align 4, !dbg !1591, !dp.md.instr.id !1593
  %edges62 = getelementptr inbounds %struct.ECLgraph, %struct.ECLgraph* %agg.result, i32 0, i32 1, !dbg !1594, !dp.md.instr.id !1595
  %86 = ptrtoint i32* %edges62 to i64
  call void @__dp_read(i32 150, i64 %86, i8* getelementptr inbounds ([21 x i8], [21 x i8]* @.str.35, i32 0, i32 0))
  %87 = load i32, i32* %edges62, align 4, !dbg !1594, !dp.md.instr.id !1596
  %cmp63 = icmp ne i32 %85, %87, !dbg !1597, !dp.md.instr.id !1598
  call void @__dp_report_bb(i32 6)
  br i1 %cmp63, label %if.then64, label %if.end66, !dbg !1599, !dp.md.instr.id !1600

if.then64:                                        ; preds = %if.end56
  %88 = ptrtoint %struct._IO_FILE** @stderr to i64
  call void @__dp_read(i32 153, i64 %88, i8* getelementptr inbounds ([7 x i8], [7 x i8]* @.str.34, i32 0, i32 0))
  %89 = load %struct._IO_FILE*, %struct._IO_FILE** @stderr, align 8, !dbg !1601, !dp.md.instr.id !1603
  call void @__dp_call(i32 16453), !dbg !1604
  %call65 = call i32 (%struct._IO_FILE*, i8*, ...) @fprintf(%struct._IO_FILE* %89, i8* getelementptr inbounds ([38 x i8], [38 x i8]* @.str.8, i64 0, i64 0)), !dbg !1604, !dp.md.instr.id !1605
  call void @__dp_finalize(i32 16453), !dbg !1606
  call void @exit(i32 -1) #13, !dbg !1606, !dp.md.instr.id !1607
  unreachable, !dbg !1606, !dp.md.instr.id !1608

if.end66:                                         ; preds = %if.end56
  %eweight67 = getelementptr inbounds %struct.ECLgraph, %struct.ECLgraph* %agg.result, i32 0, i32 4, !dbg !1609, !dp.md.instr.id !1610
  %90 = ptrtoint i32** %eweight67 to i64
  call void @__dp_read(i32 158, i64 %90, i8* getelementptr inbounds ([21 x i8], [21 x i8]* @.str.35, i32 0, i32 0))
  %91 = load i32*, i32** %eweight67, align 8, !dbg !1609, !dp.md.instr.id !1611
  %92 = bitcast i32* %91 to i8*, !dbg !1612, !dp.md.instr.id !1613
  %edges68 = getelementptr inbounds %struct.ECLgraph, %struct.ECLgraph* %agg.result, i32 0, i32 1, !dbg !1614, !dp.md.instr.id !1615
  %93 = ptrtoint i32* %edges68 to i64
  call void @__dp_read(i32 161, i64 %93, i8* getelementptr inbounds ([21 x i8], [21 x i8]* @.str.35, i32 0, i32 0))
  %94 = load i32, i32* %edges68, align 4, !dbg !1614, !dp.md.instr.id !1616
  %conv69 = sext i32 %94 to i64, !dbg !1617, !dp.md.instr.id !1618
  %95 = ptrtoint %struct._IO_FILE** %f to i64
  %96 = load %struct._IO_FILE*, %struct._IO_FILE** %f, align 8, !dbg !1619, !dp.md.instr.id !1620
  call void @__dp_call(i32 16454), !dbg !1621
  %call70 = call i64 @fread(i8* %92, i64 4, i64 %conv69, %struct._IO_FILE* %96), !dbg !1621, !dp.md.instr.id !1622
  %conv71 = trunc i64 %call70 to i32, !dbg !1621, !dp.md.instr.id !1623
  %97 = ptrtoint i32* %cnt to i64
  store i32 %conv71, i32* %cnt, align 4, !dbg !1624, !dp.md.instr.id !1625
  %98 = ptrtoint i32* %cnt to i64
  %99 = load i32, i32* %cnt, align 4, !dbg !1626, !dp.md.instr.id !1628
  %cmp72 = icmp eq i32 %99, 0, !dbg !1629, !dp.md.instr.id !1630
  call void @__dp_report_bb(i32 5)
  br i1 %cmp72, label %if.then73, label %if.else, !dbg !1631, !dp.md.instr.id !1632

if.then73:                                        ; preds = %if.end66
  %eweight74 = getelementptr inbounds %struct.ECLgraph, %struct.ECLgraph* %agg.result, i32 0, i32 4, !dbg !1633, !dp.md.instr.id !1635
  %100 = ptrtoint i32** %eweight74 to i64
  call void @__dp_read(i32 171, i64 %100, i8* getelementptr inbounds ([21 x i8], [21 x i8]* @.str.35, i32 0, i32 0))
  %101 = load i32*, i32** %eweight74, align 8, !dbg !1633, !dp.md.instr.id !1636
  %102 = bitcast i32* %101 to i8*, !dbg !1637, !dp.md.instr.id !1638
  call void @free(i8* %102) #10, !dbg !1639, !dp.md.instr.id !1640
  %103 = ptrtoint i8* %102 to i64, !dp.md.instr.id !1641
  call void @__dp_delete(i32 16456, i64 %103), !dbg !1642, !dp.md.instr.id !1643
  %eweight75 = getelementptr inbounds %struct.ECLgraph, %struct.ECLgraph* %agg.result, i32 0, i32 4, !dbg !1642, !dp.md.instr.id !1644
  %104 = ptrtoint i32** %eweight75 to i64
  call void @__dp_write(i32 177, i64 %104, i8* getelementptr inbounds ([21 x i8], [21 x i8]* @.str.35, i32 0, i32 0))
  store i32* null, i32** %eweight75, align 8, !dbg !1645, !dp.md.instr.id !1646
  br label %if.end81, !dbg !1647, !dp.md.instr.id !1648

if.else:                                          ; preds = %if.end66
  %105 = ptrtoint i32* %cnt to i64
  %106 = load i32, i32* %cnt, align 4, !dbg !1649, !dp.md.instr.id !1652
  %edges76 = getelementptr inbounds %struct.ECLgraph, %struct.ECLgraph* %agg.result, i32 0, i32 1, !dbg !1653, !dp.md.instr.id !1654
  %107 = ptrtoint i32* %edges76 to i64
  call void @__dp_read(i32 181, i64 %107, i8* getelementptr inbounds ([21 x i8], [21 x i8]* @.str.35, i32 0, i32 0))
  %108 = load i32, i32* %edges76, align 4, !dbg !1653, !dp.md.instr.id !1655
  %cmp77 = icmp ne i32 %106, %108, !dbg !1656, !dp.md.instr.id !1657
  call void @__dp_report_bb(i32 8)
  br i1 %cmp77, label %if.then78, label %if.end80, !dbg !1658, !dp.md.instr.id !1659

if.then78:                                        ; preds = %if.else
  %109 = ptrtoint %struct._IO_FILE** @stderr to i64
  call void @__dp_read(i32 184, i64 %109, i8* getelementptr inbounds ([7 x i8], [7 x i8]* @.str.34, i32 0, i32 0))
  %110 = load %struct._IO_FILE*, %struct._IO_FILE** @stderr, align 8, !dbg !1660, !dp.md.instr.id !1662
  call void @__dp_call(i32 16459), !dbg !1663
  %call79 = call i32 (%struct._IO_FILE*, i8*, ...) @fprintf(%struct._IO_FILE* %110, i8* getelementptr inbounds ([37 x i8], [37 x i8]* @.str.9, i64 0, i64 0)), !dbg !1663, !dp.md.instr.id !1664
  call void @__dp_finalize(i32 16459), !dbg !1665
  call void @exit(i32 -1) #13, !dbg !1665, !dp.md.instr.id !1666
  unreachable, !dbg !1665, !dp.md.instr.id !1667

if.end80:                                         ; preds = %if.else
  br label %if.end81, !dp.md.instr.id !1668

if.end81:                                         ; preds = %if.end80, %if.then73
  %111 = ptrtoint %struct._IO_FILE** %f to i64
  %112 = load %struct._IO_FILE*, %struct._IO_FILE** %f, align 8, !dbg !1669, !dp.md.instr.id !1670
  call void @__dp_call(i32 16461), !dbg !1671
  %call82 = call i32 @fclose(%struct._IO_FILE* %112), !dbg !1671, !dp.md.instr.id !1672
  call void @__dp_report_bb(i32 7)
  call void @__dp_func_exit(i32 16463, i32 0), !dbg !1673
  ret void, !dbg !1673, !dp.md.instr.id !1674
}

; Function Attrs: nounwind readnone speculatable willreturn
declare void @llvm.dbg.declare(metadata, metadata, metadata) #1

declare noalias %struct._IO_FILE* @fopen(i8*, i8*) #2

declare i32 @fprintf(%struct._IO_FILE*, i8*, ...) #2

; Function Attrs: noreturn nounwind
declare void @exit(i32) #3

declare i64 @fread(i8*, i64, i64, %struct._IO_FILE*) #2

declare i32 @printf(i8*, ...) #2

; Function Attrs: nounwind
declare noalias i8* @malloc(i64) #4

; Function Attrs: nounwind
declare void @free(i8*) #4

declare i32 @fclose(%struct._IO_FILE*) #2

; Function Attrs: noinline optnone uwtable
define void @_Z13writeECLgraph8ECLgraphPKc(%struct.ECLgraph* byval(%struct.ECLgraph) align 8 %g, i8* %fname) #0 !dbg !1675 {
entry:
  call void @__dp_func_entry(i32 16466, i32 0), !dp.md.instr.id !1679
  %fname.addr = alloca i8*, align 8, !dp.md.instr.id !1680
  %0 = ptrtoint i8** %fname.addr to i64, !dp.md.instr.id !1681
  %cnt = alloca i32, align 4, !dp.md.instr.id !1682
  %1 = ptrtoint i32* %cnt to i64, !dp.md.instr.id !1683
  %f = alloca %struct._IO_FILE*, align 8, !dp.md.instr.id !1684
  %2 = ptrtoint %struct._IO_FILE** %f to i64, !dbg !1685, !dp.md.instr.id !1686
  call void @llvm.dbg.declare(metadata %struct.ECLgraph* %g, metadata !1687, metadata !DIExpression()), !dbg !1685, !dp.md.instr.id !1688
  %3 = ptrtoint i8** %fname.addr to i64
  store i8* %fname, i8** %fname.addr, align 8, !dp.md.instr.id !1689
  call void @llvm.dbg.declare(metadata i8** %fname.addr, metadata !1690, metadata !DIExpression()), !dbg !1691, !dp.md.instr.id !1692
  %nodes = getelementptr inbounds %struct.ECLgraph, %struct.ECLgraph* %g, i32 0, i32 0, !dbg !1693, !dp.md.instr.id !1695
  %4 = ptrtoint i32* %nodes to i64
  call void @__dp_read(i32 206, i64 %4, i8* getelementptr inbounds ([12 x i8], [12 x i8]* @.str.37, i32 0, i32 0))
  %5 = load i32, i32* %nodes, align 8, !dbg !1693, !dp.md.instr.id !1696
  %cmp = icmp slt i32 %5, 1, !dbg !1697, !dp.md.instr.id !1698
  call void @__dp_report_bb(i32 9)
  br i1 %cmp, label %if.then, label %lor.lhs.false, !dbg !1699, !dp.md.instr.id !1700

lor.lhs.false:                                    ; preds = %entry
  %edges = getelementptr inbounds %struct.ECLgraph, %struct.ECLgraph* %g, i32 0, i32 1, !dbg !1701, !dp.md.instr.id !1702
  %6 = ptrtoint i32* %edges to i64
  call void @__dp_read(i32 210, i64 %6, i8* getelementptr inbounds ([12 x i8], [12 x i8]* @.str.37, i32 0, i32 0))
  %7 = load i32, i32* %edges, align 4, !dbg !1701, !dp.md.instr.id !1703
  %cmp1 = icmp slt i32 %7, 0, !dbg !1704, !dp.md.instr.id !1705
  br i1 %cmp1, label %if.then, label %if.end, !dbg !1706, !dp.md.instr.id !1707

if.then:                                          ; preds = %lor.lhs.false, %entry
  %8 = ptrtoint %struct._IO_FILE** @stderr to i64
  call void @__dp_read(i32 213, i64 %8, i8* getelementptr inbounds ([7 x i8], [7 x i8]* @.str.34, i32 0, i32 0))
  %9 = load %struct._IO_FILE*, %struct._IO_FILE** @stderr, align 8, !dbg !1708, !dp.md.instr.id !1710
  call void @__dp_call(i32 16468), !dbg !1711
  %call = call i32 (%struct._IO_FILE*, i8*, ...) @fprintf(%struct._IO_FILE* %9, i8* getelementptr inbounds ([36 x i8], [36 x i8]* @.str.5, i64 0, i64 0)), !dbg !1711, !dp.md.instr.id !1712
  call void @__dp_finalize(i32 16468), !dbg !1713
  call void @exit(i32 -1) #13, !dbg !1713, !dp.md.instr.id !1714
  unreachable, !dbg !1713, !dp.md.instr.id !1715

if.end:                                           ; preds = %lor.lhs.false
  call void @llvm.dbg.declare(metadata i32* %cnt, metadata !1716, metadata !DIExpression()), !dbg !1717, !dp.md.instr.id !1718
  call void @llvm.dbg.declare(metadata %struct._IO_FILE** %f, metadata !1719, metadata !DIExpression()), !dbg !1720, !dp.md.instr.id !1721
  %10 = ptrtoint i8** %fname.addr to i64
  %11 = load i8*, i8** %fname.addr, align 8, !dbg !1722, !dp.md.instr.id !1723
  call void @__dp_call(i32 16470), !dbg !1724
  %call2 = call noalias %struct._IO_FILE* @fopen(i8* %11, i8* getelementptr inbounds ([3 x i8], [3 x i8]* @.str.10, i64 0, i64 0)), !dbg !1724, !dp.md.instr.id !1725
  %12 = ptrtoint %struct._IO_FILE** %f to i64
  store %struct._IO_FILE* %call2, %struct._IO_FILE** %f, align 8, !dbg !1720, !dp.md.instr.id !1726
  %13 = ptrtoint %struct._IO_FILE** %f to i64
  %14 = load %struct._IO_FILE*, %struct._IO_FILE** %f, align 8, !dbg !1727, !dp.md.instr.id !1729
  %cmp3 = icmp eq %struct._IO_FILE* %14, null, !dbg !1730, !dp.md.instr.id !1731
  call void @__dp_report_bb(i32 10)
  br i1 %cmp3, label %if.then4, label %if.end6, !dbg !1732, !dp.md.instr.id !1733

if.then4:                                         ; preds = %if.end
  %15 = ptrtoint %struct._IO_FILE** @stderr to i64
  call void @__dp_read(i32 225, i64 %15, i8* getelementptr inbounds ([7 x i8], [7 x i8]* @.str.34, i32 0, i32 0))
  %16 = load %struct._IO_FILE*, %struct._IO_FILE** @stderr, align 8, !dbg !1734, !dp.md.instr.id !1736
  %17 = ptrtoint i8** %fname.addr to i64
  %18 = load i8*, i8** %fname.addr, align 8, !dbg !1737, !dp.md.instr.id !1738
  call void @__dp_call(i32 16470), !dbg !1739
  %call5 = call i32 (%struct._IO_FILE*, i8*, ...) @fprintf(%struct._IO_FILE* %16, i8* getelementptr inbounds ([32 x i8], [32 x i8]* @.str.1, i64 0, i64 0), i8* %18), !dbg !1739, !dp.md.instr.id !1740
  call void @__dp_finalize(i32 16470), !dbg !1741
  call void @exit(i32 -1) #13, !dbg !1741, !dp.md.instr.id !1742
  call void @__dp_report_bb(i32 11)
  unreachable, !dbg !1741, !dp.md.instr.id !1743

if.end6:                                          ; preds = %if.end
  %nodes7 = getelementptr inbounds %struct.ECLgraph, %struct.ECLgraph* %g, i32 0, i32 0, !dbg !1744, !dp.md.instr.id !1745
  %19 = bitcast i32* %nodes7 to i8*, !dbg !1746, !dp.md.instr.id !1747
  %20 = ptrtoint %struct._IO_FILE** %f to i64
  %21 = load %struct._IO_FILE*, %struct._IO_FILE** %f, align 8, !dbg !1748, !dp.md.instr.id !1749
  call void @__dp_call(i32 16471), !dbg !1750
  %call8 = call i64 @fwrite(i8* %19, i64 4, i64 1, %struct._IO_FILE* %21), !dbg !1750, !dp.md.instr.id !1751
  %conv = trunc i64 %call8 to i32, !dbg !1750, !dp.md.instr.id !1752
  %22 = ptrtoint i32* %cnt to i64
  store i32 %conv, i32* %cnt, align 4, !dbg !1753, !dp.md.instr.id !1754
  %23 = ptrtoint i32* %cnt to i64
  %24 = load i32, i32* %cnt, align 4, !dbg !1755, !dp.md.instr.id !1757
  %cmp9 = icmp ne i32 %24, 1, !dbg !1758, !dp.md.instr.id !1759
  call void @__dp_report_bb(i32 12)
  br i1 %cmp9, label %if.then10, label %if.end12, !dbg !1760, !dp.md.instr.id !1761

if.then10:                                        ; preds = %if.end6
  %25 = ptrtoint %struct._IO_FILE** @stderr to i64
  call void @__dp_read(i32 239, i64 %25, i8* getelementptr inbounds ([7 x i8], [7 x i8]* @.str.34, i32 0, i32 0))
  %26 = load %struct._IO_FILE*, %struct._IO_FILE** @stderr, align 8, !dbg !1762, !dp.md.instr.id !1764
  call void @__dp_call(i32 16471), !dbg !1765
  %call11 = call i32 (%struct._IO_FILE*, i8*, ...) @fprintf(%struct._IO_FILE* %26, i8* getelementptr inbounds ([31 x i8], [31 x i8]* @.str.11, i64 0, i64 0)), !dbg !1765, !dp.md.instr.id !1766
  call void @__dp_finalize(i32 16471), !dbg !1767
  call void @exit(i32 -1) #13, !dbg !1767, !dp.md.instr.id !1768
  unreachable, !dbg !1767, !dp.md.instr.id !1769

if.end12:                                         ; preds = %if.end6
  %edges13 = getelementptr inbounds %struct.ECLgraph, %struct.ECLgraph* %g, i32 0, i32 1, !dbg !1770, !dp.md.instr.id !1771
  %27 = bitcast i32* %edges13 to i8*, !dbg !1772, !dp.md.instr.id !1773
  %28 = ptrtoint %struct._IO_FILE** %f to i64
  %29 = load %struct._IO_FILE*, %struct._IO_FILE** %f, align 8, !dbg !1774, !dp.md.instr.id !1775
  call void @__dp_call(i32 16472), !dbg !1776
  %call14 = call i64 @fwrite(i8* %27, i64 4, i64 1, %struct._IO_FILE* %29), !dbg !1776, !dp.md.instr.id !1777
  %conv15 = trunc i64 %call14 to i32, !dbg !1776, !dp.md.instr.id !1778
  %30 = ptrtoint i32* %cnt to i64
  store i32 %conv15, i32* %cnt, align 4, !dbg !1779, !dp.md.instr.id !1780
  %31 = ptrtoint i32* %cnt to i64
  %32 = load i32, i32* %cnt, align 4, !dbg !1781, !dp.md.instr.id !1783
  %cmp16 = icmp ne i32 %32, 1, !dbg !1784, !dp.md.instr.id !1785
  call void @__dp_report_bb(i32 13)
  br i1 %cmp16, label %if.then17, label %if.end19, !dbg !1786, !dp.md.instr.id !1787

if.then17:                                        ; preds = %if.end12
  %33 = ptrtoint %struct._IO_FILE** @stderr to i64
  call void @__dp_read(i32 252, i64 %33, i8* getelementptr inbounds ([7 x i8], [7 x i8]* @.str.34, i32 0, i32 0))
  %34 = load %struct._IO_FILE*, %struct._IO_FILE** @stderr, align 8, !dbg !1788, !dp.md.instr.id !1790
  call void @__dp_call(i32 16472), !dbg !1791
  %call18 = call i32 (%struct._IO_FILE*, i8*, ...) @fprintf(%struct._IO_FILE* %34, i8* getelementptr inbounds ([31 x i8], [31 x i8]* @.str.12, i64 0, i64 0)), !dbg !1791, !dp.md.instr.id !1792
  call void @__dp_finalize(i32 16472), !dbg !1793
  call void @exit(i32 -1) #13, !dbg !1793, !dp.md.instr.id !1794
  unreachable, !dbg !1793, !dp.md.instr.id !1795

if.end19:                                         ; preds = %if.end12
  %nindex = getelementptr inbounds %struct.ECLgraph, %struct.ECLgraph* %g, i32 0, i32 2, !dbg !1796, !dp.md.instr.id !1797
  %35 = ptrtoint i32** %nindex to i64
  call void @__dp_read(i32 257, i64 %35, i8* getelementptr inbounds ([12 x i8], [12 x i8]* @.str.37, i32 0, i32 0))
  %36 = load i32*, i32** %nindex, align 8, !dbg !1796, !dp.md.instr.id !1798
  %37 = bitcast i32* %36 to i8*, !dbg !1799, !dp.md.instr.id !1800
  %nodes20 = getelementptr inbounds %struct.ECLgraph, %struct.ECLgraph* %g, i32 0, i32 0, !dbg !1801, !dp.md.instr.id !1802
  %38 = ptrtoint i32* %nodes20 to i64
  call void @__dp_read(i32 260, i64 %38, i8* getelementptr inbounds ([12 x i8], [12 x i8]* @.str.37, i32 0, i32 0))
  %39 = load i32, i32* %nodes20, align 8, !dbg !1801, !dp.md.instr.id !1803
  %add = add nsw i32 %39, 1, !dbg !1804, !dp.md.instr.id !1805
  %conv21 = sext i32 %add to i64, !dbg !1806, !dp.md.instr.id !1807
  %40 = ptrtoint %struct._IO_FILE** %f to i64
  %41 = load %struct._IO_FILE*, %struct._IO_FILE** %f, align 8, !dbg !1808, !dp.md.instr.id !1809
  call void @__dp_call(i32 16474), !dbg !1810
  %call22 = call i64 @fwrite(i8* %37, i64 4, i64 %conv21, %struct._IO_FILE* %41), !dbg !1810, !dp.md.instr.id !1811
  %conv23 = trunc i64 %call22 to i32, !dbg !1810, !dp.md.instr.id !1812
  %42 = ptrtoint i32* %cnt to i64
  store i32 %conv23, i32* %cnt, align 4, !dbg !1813, !dp.md.instr.id !1814
  %43 = ptrtoint i32* %cnt to i64
  %44 = load i32, i32* %cnt, align 4, !dbg !1815, !dp.md.instr.id !1817
  %nodes24 = getelementptr inbounds %struct.ECLgraph, %struct.ECLgraph* %g, i32 0, i32 0, !dbg !1818, !dp.md.instr.id !1819
  %45 = ptrtoint i32* %nodes24 to i64
  call void @__dp_read(i32 269, i64 %45, i8* getelementptr inbounds ([12 x i8], [12 x i8]* @.str.37, i32 0, i32 0))
  %46 = load i32, i32* %nodes24, align 8, !dbg !1818, !dp.md.instr.id !1820
  %add25 = add nsw i32 %46, 1, !dbg !1821, !dp.md.instr.id !1822
  %cmp26 = icmp ne i32 %44, %add25, !dbg !1823, !dp.md.instr.id !1824
  call void @__dp_report_bb(i32 14)
  br i1 %cmp26, label %if.then27, label %if.end29, !dbg !1825, !dp.md.instr.id !1826

if.then27:                                        ; preds = %if.end19
  %47 = ptrtoint %struct._IO_FILE** @stderr to i64
  call void @__dp_read(i32 273, i64 %47, i8* getelementptr inbounds ([7 x i8], [7 x i8]* @.str.34, i32 0, i32 0))
  %48 = load %struct._IO_FILE*, %struct._IO_FILE** @stderr, align 8, !dbg !1827, !dp.md.instr.id !1829
  call void @__dp_call(i32 16474), !dbg !1830
  %call28 = call i32 (%struct._IO_FILE*, i8*, ...) @fprintf(%struct._IO_FILE* %48, i8* getelementptr inbounds ([45 x i8], [45 x i8]* @.str.13, i64 0, i64 0)), !dbg !1830, !dp.md.instr.id !1831
  call void @__dp_finalize(i32 16474), !dbg !1832
  call void @exit(i32 -1) #13, !dbg !1832, !dp.md.instr.id !1833
  unreachable, !dbg !1832, !dp.md.instr.id !1834

if.end29:                                         ; preds = %if.end19
  %nlist = getelementptr inbounds %struct.ECLgraph, %struct.ECLgraph* %g, i32 0, i32 3, !dbg !1835, !dp.md.instr.id !1836
  %49 = ptrtoint i32** %nlist to i64
  call void @__dp_read(i32 278, i64 %49, i8* getelementptr inbounds ([12 x i8], [12 x i8]* @.str.37, i32 0, i32 0))
  %50 = load i32*, i32** %nlist, align 8, !dbg !1835, !dp.md.instr.id !1837
  %51 = bitcast i32* %50 to i8*, !dbg !1838, !dp.md.instr.id !1839
  %edges30 = getelementptr inbounds %struct.ECLgraph, %struct.ECLgraph* %g, i32 0, i32 1, !dbg !1840, !dp.md.instr.id !1841
  %52 = ptrtoint i32* %edges30 to i64
  call void @__dp_read(i32 281, i64 %52, i8* getelementptr inbounds ([12 x i8], [12 x i8]* @.str.37, i32 0, i32 0))
  %53 = load i32, i32* %edges30, align 4, !dbg !1840, !dp.md.instr.id !1842
  %conv31 = sext i32 %53 to i64, !dbg !1843, !dp.md.instr.id !1844
  %54 = ptrtoint %struct._IO_FILE** %f to i64
  %55 = load %struct._IO_FILE*, %struct._IO_FILE** %f, align 8, !dbg !1845, !dp.md.instr.id !1846
  call void @__dp_call(i32 16475), !dbg !1847
  %call32 = call i64 @fwrite(i8* %51, i64 4, i64 %conv31, %struct._IO_FILE* %55), !dbg !1847, !dp.md.instr.id !1848
  %conv33 = trunc i64 %call32 to i32, !dbg !1847, !dp.md.instr.id !1849
  %56 = ptrtoint i32* %cnt to i64
  store i32 %conv33, i32* %cnt, align 4, !dbg !1850, !dp.md.instr.id !1851
  %57 = ptrtoint i32* %cnt to i64
  %58 = load i32, i32* %cnt, align 4, !dbg !1852, !dp.md.instr.id !1854
  %edges34 = getelementptr inbounds %struct.ECLgraph, %struct.ECLgraph* %g, i32 0, i32 1, !dbg !1855, !dp.md.instr.id !1856
  %59 = ptrtoint i32* %edges34 to i64
  call void @__dp_read(i32 289, i64 %59, i8* getelementptr inbounds ([12 x i8], [12 x i8]* @.str.37, i32 0, i32 0))
  %60 = load i32, i32* %edges34, align 4, !dbg !1855, !dp.md.instr.id !1857
  %cmp35 = icmp ne i32 %58, %60, !dbg !1858, !dp.md.instr.id !1859
  call void @__dp_report_bb(i32 15)
  br i1 %cmp35, label %if.then36, label %if.end38, !dbg !1860, !dp.md.instr.id !1861

if.then36:                                        ; preds = %if.end29
  %61 = ptrtoint %struct._IO_FILE** @stderr to i64
  call void @__dp_read(i32 292, i64 %61, i8* getelementptr inbounds ([7 x i8], [7 x i8]* @.str.34, i32 0, i32 0))
  %62 = load %struct._IO_FILE*, %struct._IO_FILE** @stderr, align 8, !dbg !1862, !dp.md.instr.id !1864
  call void @__dp_call(i32 16475), !dbg !1865
  %call37 = call i32 (%struct._IO_FILE*, i8*, ...) @fprintf(%struct._IO_FILE* %62, i8* getelementptr inbounds ([39 x i8], [39 x i8]* @.str.14, i64 0, i64 0)), !dbg !1865, !dp.md.instr.id !1866
  call void @__dp_finalize(i32 16475), !dbg !1867
  call void @exit(i32 -1) #13, !dbg !1867, !dp.md.instr.id !1868
  unreachable, !dbg !1867, !dp.md.instr.id !1869

if.end38:                                         ; preds = %if.end29
  %eweight = getelementptr inbounds %struct.ECLgraph, %struct.ECLgraph* %g, i32 0, i32 4, !dbg !1870, !dp.md.instr.id !1872
  %63 = ptrtoint i32** %eweight to i64
  call void @__dp_read(i32 297, i64 %63, i8* getelementptr inbounds ([12 x i8], [12 x i8]* @.str.37, i32 0, i32 0))
  %64 = load i32*, i32** %eweight, align 8, !dbg !1870, !dp.md.instr.id !1873
  %cmp39 = icmp ne i32* %64, null, !dbg !1874, !dp.md.instr.id !1875
  br i1 %cmp39, label %if.then40, label %if.end51, !dbg !1876, !dp.md.instr.id !1877

if.then40:                                        ; preds = %if.end38
  %eweight41 = getelementptr inbounds %struct.ECLgraph, %struct.ECLgraph* %g, i32 0, i32 4, !dbg !1878, !dp.md.instr.id !1880
  %65 = ptrtoint i32** %eweight41 to i64
  call void @__dp_read(i32 301, i64 %65, i8* getelementptr inbounds ([12 x i8], [12 x i8]* @.str.37, i32 0, i32 0))
  %66 = load i32*, i32** %eweight41, align 8, !dbg !1878, !dp.md.instr.id !1881
  %67 = bitcast i32* %66 to i8*, !dbg !1882, !dp.md.instr.id !1883
  %edges42 = getelementptr inbounds %struct.ECLgraph, %struct.ECLgraph* %g, i32 0, i32 1, !dbg !1884, !dp.md.instr.id !1885
  %68 = ptrtoint i32* %edges42 to i64
  call void @__dp_read(i32 304, i64 %68, i8* getelementptr inbounds ([12 x i8], [12 x i8]* @.str.37, i32 0, i32 0))
  %69 = load i32, i32* %edges42, align 4, !dbg !1884, !dp.md.instr.id !1886
  %conv43 = sext i32 %69 to i64, !dbg !1887, !dp.md.instr.id !1888
  %70 = ptrtoint %struct._IO_FILE** %f to i64
  %71 = load %struct._IO_FILE*, %struct._IO_FILE** %f, align 8, !dbg !1889, !dp.md.instr.id !1890
  call void @__dp_call(i32 16477), !dbg !1891
  %call44 = call i64 @fwrite(i8* %67, i64 4, i64 %conv43, %struct._IO_FILE* %71), !dbg !1891, !dp.md.instr.id !1892
  %conv45 = trunc i64 %call44 to i32, !dbg !1891, !dp.md.instr.id !1893
  %72 = ptrtoint i32* %cnt to i64
  store i32 %conv45, i32* %cnt, align 4, !dbg !1894, !dp.md.instr.id !1895
  %73 = ptrtoint i32* %cnt to i64
  %74 = load i32, i32* %cnt, align 4, !dbg !1896, !dp.md.instr.id !1898
  %edges46 = getelementptr inbounds %struct.ECLgraph, %struct.ECLgraph* %g, i32 0, i32 1, !dbg !1899, !dp.md.instr.id !1900
  %75 = ptrtoint i32* %edges46 to i64
  call void @__dp_read(i32 312, i64 %75, i8* getelementptr inbounds ([12 x i8], [12 x i8]* @.str.37, i32 0, i32 0))
  %76 = load i32, i32* %edges46, align 4, !dbg !1899, !dp.md.instr.id !1901
  %cmp47 = icmp ne i32 %74, %76, !dbg !1902, !dp.md.instr.id !1903
  call void @__dp_report_bb(i32 16)
  br i1 %cmp47, label %if.then48, label %if.end50, !dbg !1904, !dp.md.instr.id !1905

if.then48:                                        ; preds = %if.then40
  %77 = ptrtoint %struct._IO_FILE** @stderr to i64
  call void @__dp_read(i32 315, i64 %77, i8* getelementptr inbounds ([7 x i8], [7 x i8]* @.str.34, i32 0, i32 0))
  %78 = load %struct._IO_FILE*, %struct._IO_FILE** @stderr, align 8, !dbg !1906, !dp.md.instr.id !1908
  call void @__dp_call(i32 16477), !dbg !1909
  %call49 = call i32 (%struct._IO_FILE*, i8*, ...) @fprintf(%struct._IO_FILE* %78, i8* getelementptr inbounds ([38 x i8], [38 x i8]* @.str.15, i64 0, i64 0)), !dbg !1909, !dp.md.instr.id !1910
  call void @__dp_finalize(i32 16477), !dbg !1911
  call void @exit(i32 -1) #13, !dbg !1911, !dp.md.instr.id !1912
  unreachable, !dbg !1911, !dp.md.instr.id !1913

if.end50:                                         ; preds = %if.then40
  br label %if.end51, !dbg !1914, !dp.md.instr.id !1915

if.end51:                                         ; preds = %if.end50, %if.end38
  %79 = ptrtoint %struct._IO_FILE** %f to i64
  %80 = load %struct._IO_FILE*, %struct._IO_FILE** %f, align 8, !dbg !1916, !dp.md.instr.id !1917
  call void @__dp_call(i32 16479), !dbg !1918
  %call52 = call i32 @fclose(%struct._IO_FILE* %80), !dbg !1918, !dp.md.instr.id !1919
  call void @__dp_report_bb(i32 17)
  call void @__dp_func_exit(i32 16480, i32 0), !dbg !1920
  ret void, !dbg !1920, !dp.md.instr.id !1921
}

declare i64 @fwrite(i8*, i64, i64, %struct._IO_FILE*) #2

; Function Attrs: noinline nounwind optnone uwtable
define void @_Z12freeECLgraphR8ECLgraph(%struct.ECLgraph* nonnull align 8 dereferenceable(32) %g) #5 !dbg !1922 {
entry:
  call void @__dp_func_entry(i32 16482, i32 0), !dp.md.instr.id !1926
  %g.addr = alloca %struct.ECLgraph*, align 8, !dp.md.instr.id !1927
  %0 = ptrtoint %struct.ECLgraph** %g.addr to i64, !dp.md.instr.id !1928
  %1 = ptrtoint %struct.ECLgraph** %g.addr to i64
  store %struct.ECLgraph* %g, %struct.ECLgraph** %g.addr, align 8, !dp.md.instr.id !1929
  call void @llvm.dbg.declare(metadata %struct.ECLgraph** %g.addr, metadata !1930, metadata !DIExpression()), !dbg !1931, !dp.md.instr.id !1932
  %2 = ptrtoint %struct.ECLgraph** %g.addr to i64
  %3 = load %struct.ECLgraph*, %struct.ECLgraph** %g.addr, align 8, !dbg !1933, !dp.md.instr.id !1935
  %nindex = getelementptr inbounds %struct.ECLgraph, %struct.ECLgraph* %3, i32 0, i32 2, !dbg !1936, !dp.md.instr.id !1937
  %4 = ptrtoint i32** %nindex to i64
  call void @__dp_read(i32 331, i64 %4, i8* getelementptr inbounds ([12 x i8], [12 x i8]* @.str.37, i32 0, i32 0))
  %5 = load i32*, i32** %nindex, align 8, !dbg !1936, !dp.md.instr.id !1938
  %cmp = icmp ne i32* %5, null, !dbg !1939, !dp.md.instr.id !1940
  call void @__dp_report_bb(i32 19)
  br i1 %cmp, label %if.then, label %if.end, !dbg !1941, !dp.md.instr.id !1942

if.then:                                          ; preds = %entry
  %6 = ptrtoint %struct.ECLgraph** %g.addr to i64
  %7 = load %struct.ECLgraph*, %struct.ECLgraph** %g.addr, align 8, !dbg !1943, !dp.md.instr.id !1944
  %nindex1 = getelementptr inbounds %struct.ECLgraph, %struct.ECLgraph* %7, i32 0, i32 2, !dbg !1945, !dp.md.instr.id !1946
  %8 = ptrtoint i32** %nindex1 to i64
  call void @__dp_read(i32 336, i64 %8, i8* getelementptr inbounds ([12 x i8], [12 x i8]* @.str.37, i32 0, i32 0))
  %9 = load i32*, i32** %nindex1, align 8, !dbg !1945, !dp.md.instr.id !1947
  %10 = bitcast i32* %9 to i8*, !dbg !1943, !dp.md.instr.id !1948
  call void @free(i8* %10) #10, !dbg !1949, !dp.md.instr.id !1950
  %11 = ptrtoint i8* %10 to i64, !dp.md.instr.id !1951
  call void @__dp_delete(i32 16484, i64 %11), !dbg !1949, !dp.md.instr.id !1952
  call void @__dp_report_bb(i32 18)
  br label %if.end, !dbg !1949, !dp.md.instr.id !1953

if.end:                                           ; preds = %if.then, %entry
  %12 = ptrtoint %struct.ECLgraph** %g.addr to i64
  %13 = load %struct.ECLgraph*, %struct.ECLgraph** %g.addr, align 8, !dbg !1954, !dp.md.instr.id !1956
  %nlist = getelementptr inbounds %struct.ECLgraph, %struct.ECLgraph* %13, i32 0, i32 3, !dbg !1957, !dp.md.instr.id !1958
  %14 = ptrtoint i32** %nlist to i64
  call void @__dp_read(i32 344, i64 %14, i8* getelementptr inbounds ([12 x i8], [12 x i8]* @.str.37, i32 0, i32 0))
  %15 = load i32*, i32** %nlist, align 8, !dbg !1957, !dp.md.instr.id !1959
  %cmp2 = icmp ne i32* %15, null, !dbg !1960, !dp.md.instr.id !1961
  call void @__dp_report_bb(i32 20)
  br i1 %cmp2, label %if.then3, label %if.end5, !dbg !1962, !dp.md.instr.id !1963

if.then3:                                         ; preds = %if.end
  %16 = ptrtoint %struct.ECLgraph** %g.addr to i64
  %17 = load %struct.ECLgraph*, %struct.ECLgraph** %g.addr, align 8, !dbg !1964, !dp.md.instr.id !1965
  %nlist4 = getelementptr inbounds %struct.ECLgraph, %struct.ECLgraph* %17, i32 0, i32 3, !dbg !1966, !dp.md.instr.id !1967
  %18 = ptrtoint i32** %nlist4 to i64
  call void @__dp_read(i32 349, i64 %18, i8* getelementptr inbounds ([12 x i8], [12 x i8]* @.str.37, i32 0, i32 0))
  %19 = load i32*, i32** %nlist4, align 8, !dbg !1966, !dp.md.instr.id !1968
  %20 = bitcast i32* %19 to i8*, !dbg !1964, !dp.md.instr.id !1969
  call void @free(i8* %20) #10, !dbg !1970, !dp.md.instr.id !1971
  %21 = ptrtoint i8* %20 to i64, !dp.md.instr.id !1972
  call void @__dp_delete(i32 16485, i64 %21), !dbg !1970, !dp.md.instr.id !1973
  call void @__dp_report_bb(i32 21)
  br label %if.end5, !dbg !1970, !dp.md.instr.id !1974

if.end5:                                          ; preds = %if.then3, %if.end
  %22 = ptrtoint %struct.ECLgraph** %g.addr to i64
  %23 = load %struct.ECLgraph*, %struct.ECLgraph** %g.addr, align 8, !dbg !1975, !dp.md.instr.id !1977
  %eweight = getelementptr inbounds %struct.ECLgraph, %struct.ECLgraph* %23, i32 0, i32 4, !dbg !1978, !dp.md.instr.id !1979
  %24 = ptrtoint i32** %eweight to i64
  call void @__dp_read(i32 357, i64 %24, i8* getelementptr inbounds ([12 x i8], [12 x i8]* @.str.37, i32 0, i32 0))
  %25 = load i32*, i32** %eweight, align 8, !dbg !1978, !dp.md.instr.id !1980
  %cmp6 = icmp ne i32* %25, null, !dbg !1981, !dp.md.instr.id !1982
  call void @__dp_report_bb(i32 22)
  br i1 %cmp6, label %if.then7, label %if.end9, !dbg !1983, !dp.md.instr.id !1984

if.then7:                                         ; preds = %if.end5
  %26 = ptrtoint %struct.ECLgraph** %g.addr to i64
  %27 = load %struct.ECLgraph*, %struct.ECLgraph** %g.addr, align 8, !dbg !1985, !dp.md.instr.id !1986
  %eweight8 = getelementptr inbounds %struct.ECLgraph, %struct.ECLgraph* %27, i32 0, i32 4, !dbg !1987, !dp.md.instr.id !1988
  %28 = ptrtoint i32** %eweight8 to i64
  call void @__dp_read(i32 362, i64 %28, i8* getelementptr inbounds ([12 x i8], [12 x i8]* @.str.37, i32 0, i32 0))
  %29 = load i32*, i32** %eweight8, align 8, !dbg !1987, !dp.md.instr.id !1989
  %30 = bitcast i32* %29 to i8*, !dbg !1985, !dp.md.instr.id !1990
  call void @free(i8* %30) #10, !dbg !1991, !dp.md.instr.id !1992
  %31 = ptrtoint i8* %30 to i64, !dp.md.instr.id !1993
  call void @__dp_delete(i32 16486, i64 %31), !dbg !1991, !dp.md.instr.id !1994
  call void @__dp_report_bb(i32 23)
  br label %if.end9, !dbg !1991, !dp.md.instr.id !1995

if.end9:                                          ; preds = %if.then7, %if.end5
  %32 = ptrtoint %struct.ECLgraph** %g.addr to i64
  %33 = load %struct.ECLgraph*, %struct.ECLgraph** %g.addr, align 8, !dbg !1996, !dp.md.instr.id !1997
  %nindex10 = getelementptr inbounds %struct.ECLgraph, %struct.ECLgraph* %33, i32 0, i32 2, !dbg !1998, !dp.md.instr.id !1999
  %34 = ptrtoint i32** %nindex10 to i64
  call void @__dp_write(i32 370, i64 %34, i8* getelementptr inbounds ([12 x i8], [12 x i8]* @.str.37, i32 0, i32 0))
  store i32* null, i32** %nindex10, align 8, !dbg !2000, !dp.md.instr.id !2001
  %35 = ptrtoint %struct.ECLgraph** %g.addr to i64
  %36 = load %struct.ECLgraph*, %struct.ECLgraph** %g.addr, align 8, !dbg !2002, !dp.md.instr.id !2003
  %nlist11 = getelementptr inbounds %struct.ECLgraph, %struct.ECLgraph* %36, i32 0, i32 3, !dbg !2004, !dp.md.instr.id !2005
  %37 = ptrtoint i32** %nlist11 to i64
  call void @__dp_write(i32 373, i64 %37, i8* getelementptr inbounds ([12 x i8], [12 x i8]* @.str.37, i32 0, i32 0))
  store i32* null, i32** %nlist11, align 8, !dbg !2006, !dp.md.instr.id !2007
  %38 = ptrtoint %struct.ECLgraph** %g.addr to i64
  %39 = load %struct.ECLgraph*, %struct.ECLgraph** %g.addr, align 8, !dbg !2008, !dp.md.instr.id !2009
  %eweight12 = getelementptr inbounds %struct.ECLgraph, %struct.ECLgraph* %39, i32 0, i32 4, !dbg !2010, !dp.md.instr.id !2011
  %40 = ptrtoint i32** %eweight12 to i64
  call void @__dp_write(i32 376, i64 %40, i8* getelementptr inbounds ([12 x i8], [12 x i8]* @.str.37, i32 0, i32 0))
  store i32* null, i32** %eweight12, align 8, !dbg !2012, !dp.md.instr.id !2013
  call void @__dp_report_bb(i32 24)
  call void @__dp_func_exit(i32 16490, i32 0), !dbg !2014
  ret void, !dbg !2014, !dp.md.instr.id !2015
}

; Function Attrs: noinline norecurse optnone uwtable
define i32 @main(i32 %argc, i8** %argv) #6 !dbg !2016 {
entry:
  call void @__dp_func_entry(i32 32887, i32 1), !dp.md.instr.id !2020
  %__dp_bb136 = alloca i32, align 4
  store i32 0, i32* %__dp_bb136, align 4
  %__dp_bb135 = alloca i32, align 4
  store i32 0, i32* %__dp_bb135, align 4
  %__dp_bb134 = alloca i32, align 4
  store i32 0, i32* %__dp_bb134, align 4
  %__dp_bb133 = alloca i32, align 4
  store i32 0, i32* %__dp_bb133, align 4
  %__dp_bb132 = alloca i32, align 4
  store i32 0, i32* %__dp_bb132, align 4
  %__dp_bb131 = alloca i32, align 4
  store i32 0, i32* %__dp_bb131, align 4
  %__dp_bb130 = alloca i32, align 4
  store i32 0, i32* %__dp_bb130, align 4
  %__dp_bb129 = alloca i32, align 4
  store i32 0, i32* %__dp_bb129, align 4
  %__dp_bb = alloca i32, align 4
  store i32 0, i32* %__dp_bb, align 4
  %retval = alloca i32, align 4, !dp.md.instr.id !2021
  %0 = ptrtoint i32* %retval to i64, !dp.md.instr.id !2022
  %argc.addr = alloca i32, align 4, !dp.md.instr.id !2023
  %1 = ptrtoint i32* %argc.addr to i64, !dp.md.instr.id !2024
  %argv.addr = alloca i8**, align 8, !dp.md.instr.id !2025
  %2 = ptrtoint i8*** %argv.addr to i64, !dp.md.instr.id !2026
  %g = alloca %struct.ECLgraph, align 8, !dp.md.instr.id !2027
  %3 = ptrtoint %struct.ECLgraph* %g to i64, !dp.md.instr.id !2028
  call void @__dp_alloca(i32 32887, i8* getelementptr inbounds ([2 x i8], [2 x i8]* @.str.38, i32 0, i32 0), i64 %3, i64 %3, i64 0, i64 1), !dp.md.instr.id !2029
  %mdeg = alloca i32, align 4, !dp.md.instr.id !2030
  %4 = ptrtoint i32* %mdeg to i64, !dp.md.instr.id !2031
  call void @__dp_alloca(i32 32887, i8* getelementptr inbounds ([5 x i8], [5 x i8]* @.str.86, i32 0, i32 0), i64 %4, i64 %4, i64 4, i64 1), !dp.md.instr.id !2032
  %v = alloca i32, align 4, !dp.md.instr.id !2033
  %5 = ptrtoint i32* %v to i64, !dp.md.instr.id !2034
  %ref.tmp = alloca i32, align 4, !dp.md.instr.id !2035
  %6 = ptrtoint i32* %ref.tmp to i64, !dp.md.instr.id !2036
  call void @__dp_alloca(i32 32887, i8* getelementptr inbounds ([8 x i8], [8 x i8]* @.str.88, i32 0, i32 0), i64 %6, i64 %6, i64 4, i64 1), !dp.md.instr.id !2037
  %v20 = alloca i32, align 4, !dp.md.instr.id !2038
  %7 = ptrtoint i32* %v20 to i64, !dp.md.instr.id !2039
  %i = alloca i32, align 4, !dp.md.instr.id !2040
  %8 = ptrtoint i32* %i to i64, !dp.md.instr.id !2041
  %sp = alloca i32*, align 8, !dp.md.instr.id !2042
  %9 = ptrtoint i32** %sp to i64, !dp.md.instr.id !2043
  %i55 = alloca i32, align 4, !dp.md.instr.id !2044
  %10 = ptrtoint i32* %i55 to i64, !dp.md.instr.id !2045
  %j = alloca i32, align 4, !dp.md.instr.id !2046
  %11 = ptrtoint i32* %j to i64, !dp.md.instr.id !2047
  %threadCount = alloca i32, align 4, !dp.md.instr.id !2048
  %12 = ptrtoint i32* %threadCount to i64, !dp.md.instr.id !2049
  %countInt = alloca i32, align 4, !dp.md.instr.id !2050
  %13 = ptrtoint i32* %countInt to i64, !dp.md.instr.id !2051
  %count = alloca i32, align 4, !dp.md.instr.id !2052
  %14 = ptrtoint i32* %count to i64, !dp.md.instr.id !2053
  call void @__dp_alloca(i32 32887, i8* getelementptr inbounds ([6 x i8], [6 x i8]* @.str.94, i32 0, i32 0), i64 %14, i64 %14, i64 4, i64 1), !dp.md.instr.id !2054
  %runs = alloca i32, align 4, !dp.md.instr.id !2055
  %15 = ptrtoint i32* %runs to i64, !dp.md.instr.id !2056
  %runtimes = alloca [3 x double], align 16, !dp.md.instr.id !2057
  %16 = ptrtoint [3 x double]* %runtimes to i64, !dp.md.instr.id !2058
  %17 = add i64 %16, 3, !dp.md.instr.id !2059
  call void @__dp_alloca(i32 32887, i8* getelementptr inbounds ([9 x i8], [9 x i8]* @.str.96, i32 0, i32 0), i64 %16, i64 %17, i64 24, i64 3), !dp.md.instr.id !2060
  %i87 = alloca i32, align 4, !dp.md.instr.id !2061
  %18 = ptrtoint i32* %i87 to i64, !dp.md.instr.id !2062
  %med = alloca double, align 8, !dp.md.instr.id !2063
  %19 = ptrtoint double* %med to i64, !dp.md.instr.id !2064
  %verify = alloca i32, align 4, !dp.md.instr.id !2065
  %20 = ptrtoint i32* %verify to i64, !dp.md.instr.id !2066
  %start = alloca %struct.timeval, align 8, !dp.md.instr.id !2067
  %21 = ptrtoint %struct.timeval* %start to i64, !dp.md.instr.id !2068
  call void @__dp_alloca(i32 32887, i8* getelementptr inbounds ([6 x i8], [6 x i8]* @.str.99, i32 0, i32 0), i64 %21, i64 %21, i64 0, i64 1), !dp.md.instr.id !2069
  %end = alloca %struct.timeval, align 8, !dp.md.instr.id !2070
  %22 = ptrtoint %struct.timeval* %end to i64, !dp.md.instr.id !2071
  call void @__dp_alloca(i32 32887, i8* getelementptr inbounds ([4 x i8], [4 x i8]* @.str.100, i32 0, i32 0), i64 %22, i64 %22, i64 0, i64 1), !dp.md.instr.id !2072
  %h_count = alloca i32, align 4, !dp.md.instr.id !2073
  %23 = ptrtoint i32* %h_count to i64, !dp.md.instr.id !2074
  %24 = ptrtoint i32* %retval to i64
  store i32 0, i32* %retval, align 4, !dp.md.instr.id !2075
  %25 = ptrtoint i32* %argc.addr to i64
  store i32 %argc, i32* %argc.addr, align 4, !dp.md.instr.id !2076
  call void @llvm.dbg.declare(metadata i32* %argc.addr, metadata !2077, metadata !DIExpression()), !dbg !2078, !dp.md.instr.id !2079
  %26 = ptrtoint i8*** %argv.addr to i64
  store i8** %argv, i8*** %argv.addr, align 8, !dp.md.instr.id !2080
  call void @llvm.dbg.declare(metadata i8*** %argv.addr, metadata !2081, metadata !DIExpression()), !dbg !2082, !dp.md.instr.id !2083
  call void @__dp_call(i32 32889), !dbg !2084
  %call = call i32 (i8*, ...) @printf(i8* getelementptr inbounds ([41 x i8], [41 x i8]* @.str.16, i64 0, i64 0), i8* getelementptr inbounds ([80 x i8], [80 x i8]* @.str.17, i64 0, i64 0)), !dbg !2084, !dp.md.instr.id !2085
  %27 = ptrtoint i32* %argc.addr to i64
  %28 = load i32, i32* %argc.addr, align 4, !dbg !2086, !dp.md.instr.id !2088
  %cmp = icmp ne i32 %28, 3, !dbg !2089, !dp.md.instr.id !2090
  call void @__dp_report_bb(i32 29)
  br i1 %cmp, label %land.lhs.true, label %if.end, !dbg !2091, !dp.md.instr.id !2092

land.lhs.true:                                    ; preds = %entry
  %29 = ptrtoint i32* %argc.addr to i64
  %30 = load i32, i32* %argc.addr, align 4, !dbg !2093, !dp.md.instr.id !2094
  %cmp1 = icmp ne i32 %30, 4, !dbg !2095, !dp.md.instr.id !2096
  call void @__dp_report_bb(i32 33)
  br i1 %cmp1, label %if.then, label %if.end, !dbg !2097, !dp.md.instr.id !2098

if.then:                                          ; preds = %land.lhs.true
  %31 = ptrtoint i8*** %argv.addr to i64
  %32 = load i8**, i8*** %argv.addr, align 8, !dbg !2099, !dp.md.instr.id !2101
  %arrayidx = getelementptr inbounds i8*, i8** %32, i64 0, !dbg !2099, !dp.md.instr.id !2102
  %33 = ptrtoint i8** %arrayidx to i64
  call void @__dp_read(i32 463, i64 %33, i8* getelementptr inbounds ([15 x i8], [15 x i8]* @.str.102, i32 0, i32 0))
  %34 = load i8*, i8** %arrayidx, align 8, !dbg !2099, !dp.md.instr.id !2103
  call void @__dp_call(i32 32891), !dbg !2104
  %call2 = call i32 (i8*, ...) @printf(i8* getelementptr inbounds ([54 x i8], [54 x i8]* @.str.18, i64 0, i64 0), i8* %34), !dbg !2104, !dp.md.instr.id !2105
  call void @__dp_finalize(i32 32891), !dbg !2106
  call void @exit(i32 -1) #13, !dbg !2106, !dp.md.instr.id !2107
  call void @__dp_report_bb(i32 31)
  unreachable, !dbg !2106, !dp.md.instr.id !2108

if.end:                                           ; preds = %land.lhs.true, %entry
  call void @llvm.dbg.declare(metadata %struct.ECLgraph* %g, metadata !2109, metadata !DIExpression()), !dbg !2110, !dp.md.instr.id !2111
  %35 = ptrtoint i8*** %argv.addr to i64
  %36 = load i8**, i8*** %argv.addr, align 8, !dbg !2112, !dp.md.instr.id !2113
  %arrayidx3 = getelementptr inbounds i8*, i8** %36, i64 1, !dbg !2112, !dp.md.instr.id !2114
  %37 = ptrtoint i8** %arrayidx3 to i64
  call void @__dp_read(i32 470, i64 %37, i8* getelementptr inbounds ([15 x i8], [15 x i8]* @.str.102, i32 0, i32 0))
  %38 = load i8*, i8** %arrayidx3, align 8, !dbg !2112, !dp.md.instr.id !2115
  call void @__dp_call(i32 32894), !dbg !2116
  call void @_Z12readECLgraphPKc(%struct.ECLgraph* sret align 8 %g, i8* %38), !dbg !2116, !dp.md.instr.id !2117
  %39 = ptrtoint i8*** %argv.addr to i64
  %40 = load i8**, i8*** %argv.addr, align 8, !dbg !2118, !dp.md.instr.id !2119
  %arrayidx4 = getelementptr inbounds i8*, i8** %40, i64 1, !dbg !2118, !dp.md.instr.id !2120
  %41 = ptrtoint i8** %arrayidx4 to i64
  call void @__dp_read(i32 474, i64 %41, i8* getelementptr inbounds ([15 x i8], [15 x i8]* @.str.102, i32 0, i32 0))
  %42 = load i8*, i8** %arrayidx4, align 8, !dbg !2118, !dp.md.instr.id !2121
  call void @__dp_call(i32 32895), !dbg !2122
  %call5 = call i32 (i8*, ...) @printf(i8* getelementptr inbounds ([11 x i8], [11 x i8]* @.str.19, i64 0, i64 0), i8* %42), !dbg !2122, !dp.md.instr.id !2123
  %nodes = getelementptr inbounds %struct.ECLgraph, %struct.ECLgraph* %g, i32 0, i32 0, !dbg !2124, !dp.md.instr.id !2125
  %43 = ptrtoint i32* %nodes to i64
  call void @__dp_read(i32 477, i64 %43, i8* getelementptr inbounds ([12 x i8], [12 x i8]* @.str.37, i32 0, i32 0))
  %44 = load i32, i32* %nodes, align 8, !dbg !2124, !dp.md.instr.id !2126
  call void @__dp_call(i32 32896), !dbg !2127
  %call6 = call i32 (i8*, ...) @printf(i8* getelementptr inbounds ([11 x i8], [11 x i8]* @.str.20, i64 0, i64 0), i32 %44), !dbg !2127, !dp.md.instr.id !2128
  %edges = getelementptr inbounds %struct.ECLgraph, %struct.ECLgraph* %g, i32 0, i32 1, !dbg !2129, !dp.md.instr.id !2130
  %45 = ptrtoint i32* %edges to i64
  call void @__dp_read(i32 480, i64 %45, i8* getelementptr inbounds ([12 x i8], [12 x i8]* @.str.37, i32 0, i32 0))
  %46 = load i32, i32* %edges, align 4, !dbg !2129, !dp.md.instr.id !2131
  call void @__dp_call(i32 32897), !dbg !2132
  %call7 = call i32 (i8*, ...) @printf(i8* getelementptr inbounds ([11 x i8], [11 x i8]* @.str.21, i64 0, i64 0), i32 %46), !dbg !2132, !dp.md.instr.id !2133
  %edges8 = getelementptr inbounds %struct.ECLgraph, %struct.ECLgraph* %g, i32 0, i32 1, !dbg !2134, !dp.md.instr.id !2135
  %47 = ptrtoint i32* %edges8 to i64
  call void @__dp_read(i32 483, i64 %47, i8* getelementptr inbounds ([12 x i8], [12 x i8]* @.str.37, i32 0, i32 0))
  %48 = load i32, i32* %edges8, align 4, !dbg !2134, !dp.md.instr.id !2136
  %conv = sitofp i32 %48 to double, !dbg !2137, !dp.md.instr.id !2138
  %mul = fmul double 1.000000e+00, %conv, !dbg !2139, !dp.md.instr.id !2140
  %nodes9 = getelementptr inbounds %struct.ECLgraph, %struct.ECLgraph* %g, i32 0, i32 0, !dbg !2141, !dp.md.instr.id !2142
  %49 = ptrtoint i32* %nodes9 to i64
  call void @__dp_read(i32 487, i64 %49, i8* getelementptr inbounds ([12 x i8], [12 x i8]* @.str.37, i32 0, i32 0))
  %50 = load i32, i32* %nodes9, align 8, !dbg !2141, !dp.md.instr.id !2143
  %conv10 = sitofp i32 %50 to double, !dbg !2144, !dp.md.instr.id !2145
  %div = fdiv double %mul, %conv10, !dbg !2146, !dp.md.instr.id !2147
  call void @__dp_call(i32 32898), !dbg !2148
  %call11 = call i32 (i8*, ...) @printf(i8* getelementptr inbounds ([18 x i8], [18 x i8]* @.str.22, i64 0, i64 0), double %div), !dbg !2148, !dp.md.instr.id !2149
  call void @llvm.dbg.declare(metadata i32* %mdeg, metadata !2150, metadata !DIExpression()), !dbg !2151, !dp.md.instr.id !2152
  %51 = ptrtoint i32* %mdeg to i64
  call void @__dp_write(i32 492, i64 %51, i8* getelementptr inbounds ([5 x i8], [5 x i8]* @.str.86, i32 0, i32 0))
  store i32 0, i32* %mdeg, align 4, !dbg !2151, !dp.md.instr.id !2153
  call void @llvm.dbg.declare(metadata i32* %v, metadata !2154, metadata !DIExpression()), !dbg !2156, !dp.md.instr.id !2157
  %52 = ptrtoint i32* %v to i64
  store i32 0, i32* %v, align 4, !dbg !2156, !dp.md.instr.id !2158
  call void @__dp_report_bb(i32 32)
  br label %for.cond, !dbg !2159, !dp.md.instr.id !2160

for.cond:                                         ; preds = %for.inc, %if.end
  call void @__dp_loop_entry(i32 32902, i32 0), !dp.md.instr.id !2161
  %53 = ptrtoint i32* %v to i64
  %54 = load i32, i32* %v, align 4, !dbg !2162, !dp.md.instr.id !2164
  %nodes12 = getelementptr inbounds %struct.ECLgraph, %struct.ECLgraph* %g, i32 0, i32 0, !dbg !2165, !dp.md.instr.id !2166
  %55 = ptrtoint i32* %nodes12 to i64
  call void @__dp_read(i32 499, i64 %55, i8* getelementptr inbounds ([12 x i8], [12 x i8]* @.str.37, i32 0, i32 0))
  %56 = load i32, i32* %nodes12, align 8, !dbg !2165, !dp.md.instr.id !2167
  %cmp13 = icmp slt i32 %54, %56, !dbg !2168, !dp.md.instr.id !2169
  call void @__dp_report_bb(i32 35)
  %57 = load i32, i32* %__dp_bb, align 4
  call void @__dp_report_bb_pair(i32 %57, i32 58)
  br i1 %cmp13, label %for.body, label %for.end, !dbg !2170, !dp.md.instr.id !2171

for.body:                                         ; preds = %for.cond
  call void @__dp_loop_incr(i32 6)
  %nindex = getelementptr inbounds %struct.ECLgraph, %struct.ECLgraph* %g, i32 0, i32 2, !dbg !2172, !dp.md.instr.id !2174
  %58 = ptrtoint i32** %nindex to i64
  call void @__dp_read(i32 503, i64 %58, i8* getelementptr inbounds ([12 x i8], [12 x i8]* @.str.37, i32 0, i32 0))
  %59 = load i32*, i32** %nindex, align 8, !dbg !2172, !dp.md.instr.id !2175
  %60 = ptrtoint i32* %v to i64
  %61 = load i32, i32* %v, align 4, !dbg !2176, !dp.md.instr.id !2177
  %add = add nsw i32 %61, 1, !dbg !2178, !dp.md.instr.id !2179
  %idxprom = sext i32 %add to i64, !dbg !2180, !dp.md.instr.id !2181
  %arrayidx14 = getelementptr inbounds i32, i32* %59, i64 %idxprom, !dbg !2180, !dp.md.instr.id !2182
  %62 = ptrtoint i32* %arrayidx14 to i64
  call void @__dp_read(i32 508, i64 %62, i8* getelementptr inbounds ([22 x i8], [22 x i8]* @.str.103, i32 0, i32 0))
  %63 = load i32, i32* %arrayidx14, align 4, !dbg !2180, !dp.md.instr.id !2183
  %nindex15 = getelementptr inbounds %struct.ECLgraph, %struct.ECLgraph* %g, i32 0, i32 2, !dbg !2184, !dp.md.instr.id !2185
  %64 = ptrtoint i32** %nindex15 to i64
  call void @__dp_read(i32 510, i64 %64, i8* getelementptr inbounds ([12 x i8], [12 x i8]* @.str.37, i32 0, i32 0))
  %65 = load i32*, i32** %nindex15, align 8, !dbg !2184, !dp.md.instr.id !2186
  %66 = ptrtoint i32* %v to i64
  %67 = load i32, i32* %v, align 4, !dbg !2187, !dp.md.instr.id !2188
  %idxprom16 = sext i32 %67 to i64, !dbg !2189, !dp.md.instr.id !2190
  %arrayidx17 = getelementptr inbounds i32, i32* %65, i64 %idxprom16, !dbg !2189, !dp.md.instr.id !2191
  %68 = ptrtoint i32* %arrayidx17 to i64
  call void @__dp_read(i32 514, i64 %68, i8* getelementptr inbounds ([22 x i8], [22 x i8]* @.str.103, i32 0, i32 0))
  %69 = load i32, i32* %arrayidx17, align 4, !dbg !2189, !dp.md.instr.id !2192
  %sub = sub nsw i32 %63, %69, !dbg !2193, !dp.md.instr.id !2194
  %70 = ptrtoint i32* %ref.tmp to i64
  call void @__dp_write(i32 516, i64 %70, i8* getelementptr inbounds ([8 x i8], [8 x i8]* @.str.88, i32 0, i32 0))
  store i32 %sub, i32* %ref.tmp, align 4, !dbg !2180, !dp.md.instr.id !2195
  call void @__dp_call(i32 32903), !dbg !2196
  %call18 = call nonnull align 4 dereferenceable(4) i32* @_ZSt3maxIiERKT_S2_S2_(i32* nonnull align 4 dereferenceable(4) %mdeg, i32* nonnull align 4 dereferenceable(4) %ref.tmp), !dbg !2196, !dp.md.instr.id !2197
  %71 = ptrtoint i32* %call18 to i64
  call void @__dp_read(i32 518, i64 %71, i8* getelementptr inbounds ([7 x i8], [7 x i8]* @.str.104, i32 0, i32 0))
  %72 = load i32, i32* %call18, align 4, !dbg !2196, !dp.md.instr.id !2198
  %73 = ptrtoint i32* %mdeg to i64
  call void @__dp_write(i32 519, i64 %73, i8* getelementptr inbounds ([5 x i8], [5 x i8]* @.str.86, i32 0, i32 0))
  store i32 %72, i32* %mdeg, align 4, !dbg !2199, !dp.md.instr.id !2200
  call void @__dp_report_bb(i32 37)
  %74 = load i32, i32* %__dp_bb, align 4
  call void @__dp_report_bb_pair(i32 %74, i32 60)
  br label %for.inc, !dbg !2201, !dp.md.instr.id !2202

for.inc:                                          ; preds = %for.body
  %75 = ptrtoint i32* %v to i64
  %76 = load i32, i32* %v, align 4, !dbg !2203, !dp.md.instr.id !2204
  %inc = add nsw i32 %76, 1, !dbg !2203, !dp.md.instr.id !2205
  %77 = ptrtoint i32* %v to i64
  store i32 %inc, i32* %v, align 4, !dbg !2203, !dp.md.instr.id !2206
  call void @__dp_report_bb(i32 36)
  %78 = load i32, i32* %__dp_bb, align 4
  call void @__dp_report_bb_pair(i32 %78, i32 59)
  store i32 1, i32* %__dp_bb, align 4
  br label %for.cond, !dbg !2207, !llvm.loop !2208, !dp.md.instr.id !2210

for.end:                                          ; preds = %for.cond
  call void @__dp_loop_exit(i32 32905, i32 0), !dp.md.instr.id !2211
  %79 = ptrtoint i32* %mdeg to i64
  call void @__dp_read(i32 526, i64 %79, i8* getelementptr inbounds ([5 x i8], [5 x i8]* @.str.86, i32 0, i32 0))
  %80 = load i32, i32* %mdeg, align 4, !dbg !2212, !dp.md.instr.id !2213
  call void @__dp_call(i32 32905), !dbg !2214
  %call19 = call i32 (i8*, ...) @printf(i8* getelementptr inbounds ([16 x i8], [16 x i8]* @.str.23, i64 0, i64 0), i32 %80), !dbg !2214, !dp.md.instr.id !2215
  call void @llvm.dbg.declare(metadata i32* %v20, metadata !2216, metadata !DIExpression()), !dbg !2218, !dp.md.instr.id !2219
  %81 = ptrtoint i32* %v20 to i64
  store i32 0, i32* %v20, align 4, !dbg !2218, !dp.md.instr.id !2220
  call void @__dp_report_bb(i32 34)
  br label %for.cond21, !dbg !2221, !dp.md.instr.id !2222

for.cond21:                                       ; preds = %for.inc49, %for.end
  call void @__dp_loop_entry(i32 32908, i32 1), !dp.md.instr.id !2223
  %82 = ptrtoint i32* %v20 to i64
  %83 = load i32, i32* %v20, align 4, !dbg !2224, !dp.md.instr.id !2226
  %nodes22 = getelementptr inbounds %struct.ECLgraph, %struct.ECLgraph* %g, i32 0, i32 0, !dbg !2227, !dp.md.instr.id !2228
  %84 = ptrtoint i32* %nodes22 to i64
  call void @__dp_read(i32 534, i64 %84, i8* getelementptr inbounds ([12 x i8], [12 x i8]* @.str.37, i32 0, i32 0))
  %85 = load i32, i32* %nodes22, align 8, !dbg !2227, !dp.md.instr.id !2229
  %cmp23 = icmp slt i32 %83, %85, !dbg !2230, !dp.md.instr.id !2231
  call void @__dp_report_bb(i32 41)
  %86 = load i32, i32* %__dp_bb131, align 4
  call void @__dp_report_bb_pair(i32 %86, i32 65)
  br i1 %cmp23, label %for.body24, label %for.end51, !dbg !2232, !dp.md.instr.id !2233

for.body24:                                       ; preds = %for.cond21
  call void @__dp_loop_incr(i32 4)
  call void @llvm.dbg.declare(metadata i32* %i, metadata !2234, metadata !DIExpression()), !dbg !2237, !dp.md.instr.id !2238
  %nindex25 = getelementptr inbounds %struct.ECLgraph, %struct.ECLgraph* %g, i32 0, i32 2, !dbg !2239, !dp.md.instr.id !2240
  %87 = ptrtoint i32** %nindex25 to i64
  call void @__dp_read(i32 539, i64 %87, i8* getelementptr inbounds ([12 x i8], [12 x i8]* @.str.37, i32 0, i32 0))
  %88 = load i32*, i32** %nindex25, align 8, !dbg !2239, !dp.md.instr.id !2241
  %89 = ptrtoint i32* %v20 to i64
  %90 = load i32, i32* %v20, align 4, !dbg !2242, !dp.md.instr.id !2243
  %idxprom26 = sext i32 %90 to i64, !dbg !2244, !dp.md.instr.id !2245
  %arrayidx27 = getelementptr inbounds i32, i32* %88, i64 %idxprom26, !dbg !2244, !dp.md.instr.id !2246
  %91 = ptrtoint i32* %arrayidx27 to i64
  call void @__dp_read(i32 543, i64 %91, i8* getelementptr inbounds ([22 x i8], [22 x i8]* @.str.103, i32 0, i32 0))
  %92 = load i32, i32* %arrayidx27, align 4, !dbg !2244, !dp.md.instr.id !2247
  %add28 = add nsw i32 %92, 1, !dbg !2248, !dp.md.instr.id !2249
  %93 = ptrtoint i32* %i to i64
  store i32 %add28, i32* %i, align 4, !dbg !2237, !dp.md.instr.id !2250
  call void @__dp_report_bb(i32 43)
  %94 = load i32, i32* %__dp_bb131, align 4
  call void @__dp_report_bb_pair(i32 %94, i32 67)
  %95 = load i32, i32* %__dp_bb132, align 4
  call void @__dp_report_bb_pair(i32 %95, i32 69)
  br label %for.cond29, !dbg !2251, !dp.md.instr.id !2252

for.cond29:                                       ; preds = %for.inc46, %for.body24
  call void @__dp_loop_entry(i32 32909, i32 2), !dp.md.instr.id !2253
  %96 = ptrtoint i32* %i to i64
  %97 = load i32, i32* %i, align 4, !dbg !2254, !dp.md.instr.id !2256
  %nindex30 = getelementptr inbounds %struct.ECLgraph, %struct.ECLgraph* %g, i32 0, i32 2, !dbg !2257, !dp.md.instr.id !2258
  %98 = ptrtoint i32** %nindex30 to i64
  call void @__dp_read(i32 550, i64 %98, i8* getelementptr inbounds ([12 x i8], [12 x i8]* @.str.37, i32 0, i32 0))
  %99 = load i32*, i32** %nindex30, align 8, !dbg !2257, !dp.md.instr.id !2259
  %100 = ptrtoint i32* %v20 to i64
  %101 = load i32, i32* %v20, align 4, !dbg !2260, !dp.md.instr.id !2261
  %add31 = add nsw i32 %101, 1, !dbg !2262, !dp.md.instr.id !2263
  %idxprom32 = sext i32 %add31 to i64, !dbg !2264, !dp.md.instr.id !2265
  %arrayidx33 = getelementptr inbounds i32, i32* %99, i64 %idxprom32, !dbg !2264, !dp.md.instr.id !2266
  %102 = ptrtoint i32* %arrayidx33 to i64
  call void @__dp_read(i32 555, i64 %102, i8* getelementptr inbounds ([22 x i8], [22 x i8]* @.str.103, i32 0, i32 0))
  %103 = load i32, i32* %arrayidx33, align 4, !dbg !2264, !dp.md.instr.id !2267
  %cmp34 = icmp slt i32 %97, %103, !dbg !2268, !dp.md.instr.id !2269
  call void @__dp_report_bb(i32 44)
  %104 = load i32, i32* %__dp_bb131, align 4
  call void @__dp_report_bb_pair(i32 %104, i32 68)
  store i32 1, i32* %__dp_bb132, align 4
  %105 = load i32, i32* %__dp_bb133, align 4
  call void @__dp_report_bb_pair(i32 %105, i32 70)
  br i1 %cmp34, label %for.body35, label %for.end48, !dbg !2270, !dp.md.instr.id !2271

for.body35:                                       ; preds = %for.cond29
  call void @__dp_loop_incr(i32 5)
  %nlist = getelementptr inbounds %struct.ECLgraph, %struct.ECLgraph* %g, i32 0, i32 3, !dbg !2272, !dp.md.instr.id !2275
  %106 = ptrtoint i32** %nlist to i64
  call void @__dp_read(i32 559, i64 %106, i8* getelementptr inbounds ([12 x i8], [12 x i8]* @.str.37, i32 0, i32 0))
  %107 = load i32*, i32** %nlist, align 8, !dbg !2272, !dp.md.instr.id !2276
  %108 = ptrtoint i32* %i to i64
  %109 = load i32, i32* %i, align 4, !dbg !2277, !dp.md.instr.id !2278
  %sub36 = sub nsw i32 %109, 1, !dbg !2279, !dp.md.instr.id !2280
  %idxprom37 = sext i32 %sub36 to i64, !dbg !2281, !dp.md.instr.id !2282
  %arrayidx38 = getelementptr inbounds i32, i32* %107, i64 %idxprom37, !dbg !2281, !dp.md.instr.id !2283
  %110 = ptrtoint i32* %arrayidx38 to i64
  call void @__dp_read(i32 564, i64 %110, i8* getelementptr inbounds ([22 x i8], [22 x i8]* @.str.103, i32 0, i32 0))
  %111 = load i32, i32* %arrayidx38, align 4, !dbg !2281, !dp.md.instr.id !2284
  %nlist39 = getelementptr inbounds %struct.ECLgraph, %struct.ECLgraph* %g, i32 0, i32 3, !dbg !2285, !dp.md.instr.id !2286
  %112 = ptrtoint i32** %nlist39 to i64
  call void @__dp_read(i32 566, i64 %112, i8* getelementptr inbounds ([12 x i8], [12 x i8]* @.str.37, i32 0, i32 0))
  %113 = load i32*, i32** %nlist39, align 8, !dbg !2285, !dp.md.instr.id !2287
  %114 = ptrtoint i32* %i to i64
  %115 = load i32, i32* %i, align 4, !dbg !2288, !dp.md.instr.id !2289
  %idxprom40 = sext i32 %115 to i64, !dbg !2290, !dp.md.instr.id !2291
  %arrayidx41 = getelementptr inbounds i32, i32* %113, i64 %idxprom40, !dbg !2290, !dp.md.instr.id !2292
  %116 = ptrtoint i32* %arrayidx41 to i64
  call void @__dp_read(i32 570, i64 %116, i8* getelementptr inbounds ([22 x i8], [22 x i8]* @.str.103, i32 0, i32 0))
  %117 = load i32, i32* %arrayidx41, align 4, !dbg !2290, !dp.md.instr.id !2293
  %cmp42 = icmp sge i32 %111, %117, !dbg !2294, !dp.md.instr.id !2295
  call void @__dp_report_bb(i32 46)
  %118 = load i32, i32* %__dp_bb133, align 4
  call void @__dp_report_bb_pair(i32 %118, i32 72)
  br i1 %cmp42, label %if.then43, label %if.end45, !dbg !2296, !dp.md.instr.id !2297

if.then43:                                        ; preds = %for.body35
  call void @__dp_call(i32 32911), !dbg !2298
  %call44 = call i32 (i8*, ...) @printf(i8* getelementptr inbounds ([56 x i8], [56 x i8]* @.str.24, i64 0, i64 0)), !dbg !2298, !dp.md.instr.id !2300
  call void @__dp_finalize(i32 32912), !dbg !2301
  call void @exit(i32 -1) #13, !dbg !2301, !dp.md.instr.id !2302
  unreachable, !dbg !2301, !dp.md.instr.id !2303

if.end45:                                         ; preds = %for.body35
  br label %for.inc46, !dbg !2304, !dp.md.instr.id !2305

for.inc46:                                        ; preds = %if.end45
  %119 = ptrtoint i32* %i to i64
  %120 = load i32, i32* %i, align 4, !dbg !2306, !dp.md.instr.id !2307
  %inc47 = add nsw i32 %120, 1, !dbg !2306, !dp.md.instr.id !2308
  %121 = ptrtoint i32* %i to i64
  store i32 %inc47, i32* %i, align 4, !dbg !2306, !dp.md.instr.id !2309
  call void @__dp_report_bb(i32 45)
  %122 = load i32, i32* %__dp_bb133, align 4
  call void @__dp_report_bb_pair(i32 %122, i32 71)
  store i32 1, i32* %__dp_bb133, align 4
  br label %for.cond29, !dbg !2310, !llvm.loop !2311, !dp.md.instr.id !2313

for.end48:                                        ; preds = %for.cond29
  call void @__dp_loop_exit(i32 32915, i32 2), !dp.md.instr.id !2314
  br label %for.inc49, !dbg !2315, !dp.md.instr.id !2316

for.inc49:                                        ; preds = %for.end48
  %123 = ptrtoint i32* %v20 to i64
  %124 = load i32, i32* %v20, align 4, !dbg !2317, !dp.md.instr.id !2318
  %inc50 = add nsw i32 %124, 1, !dbg !2317, !dp.md.instr.id !2319
  %125 = ptrtoint i32* %v20 to i64
  store i32 %inc50, i32* %v20, align 4, !dbg !2317, !dp.md.instr.id !2320
  call void @__dp_report_bb(i32 42)
  %126 = load i32, i32* %__dp_bb131, align 4
  call void @__dp_report_bb_pair(i32 %126, i32 66)
  store i32 1, i32* %__dp_bb131, align 4
  br label %for.cond21, !dbg !2321, !llvm.loop !2322, !dp.md.instr.id !2324

for.end51:                                        ; preds = %for.cond21
  call void @__dp_loop_exit(i32 32918, i32 1), !dp.md.instr.id !2325
  call void @llvm.dbg.declare(metadata i32** %sp, metadata !2326, metadata !DIExpression()), !dbg !2328, !dp.md.instr.id !2329
  %edges52 = getelementptr inbounds %struct.ECLgraph, %struct.ECLgraph* %g, i32 0, i32 1, !dbg !2330, !dp.md.instr.id !2331
  %127 = ptrtoint i32* %edges52 to i64
  call void @__dp_read(i32 590, i64 %127, i8* getelementptr inbounds ([12 x i8], [12 x i8]* @.str.37, i32 0, i32 0))
  %128 = load i32, i32* %edges52, align 4, !dbg !2330, !dp.md.instr.id !2332
  %conv53 = sext i32 %128 to i64, !dbg !2333, !dp.md.instr.id !2334
  call void @__dp_call(i32 32918), !dbg !2335
  %129 = call { i64, i1 } @llvm.umul.with.overflow.i64(i64 %conv53, i64 4), !dbg !2335, !dp.md.instr.id !2336
  %130 = extractvalue { i64, i1 } %129, 1, !dbg !2335, !dp.md.instr.id !2337
  %131 = extractvalue { i64, i1 } %129, 0, !dbg !2335, !dp.md.instr.id !2338
  %132 = select i1 %130, i64 -1, i64 %131, !dbg !2335, !dp.md.instr.id !2339
  %call54 = call noalias nonnull i8* @_Znam(i64 %132) #14, !dbg !2335, !heapallocsite !11, !dp.md.instr.id !2340
  %133 = ptrtoint i8* %call54 to i64, !dp.md.instr.id !2341
  call void @__dp_new(i32 32918, i64 %133, i64 %133, i64 %132), !dbg !2335, !dp.md.instr.id !2342
  %134 = bitcast i8* %call54 to i32*, !dbg !2335, !dp.md.instr.id !2343
  %135 = ptrtoint i32** %sp to i64
  store i32* %134, i32** %sp, align 8, !dbg !2328, !dp.md.instr.id !2344
  call void @llvm.dbg.declare(metadata i32* %i55, metadata !2345, metadata !DIExpression()), !dbg !2347, !dp.md.instr.id !2348
  %136 = ptrtoint i32* %i55 to i64
  store i32 0, i32* %i55, align 4, !dbg !2347, !dp.md.instr.id !2349
  call void @__dp_report_bb(i32 30)
  br label %for.cond56, !dbg !2350, !dp.md.instr.id !2351

for.cond56:                                       ; preds = %for.inc75, %for.end51
  call void @__dp_loop_entry(i32 32919, i32 3), !dp.md.instr.id !2352
  %137 = ptrtoint i32* %i55 to i64
  %138 = load i32, i32* %i55, align 4, !dbg !2353, !dp.md.instr.id !2355
  %nodes57 = getelementptr inbounds %struct.ECLgraph, %struct.ECLgraph* %g, i32 0, i32 0, !dbg !2356, !dp.md.instr.id !2357
  %139 = ptrtoint i32* %nodes57 to i64
  call void @__dp_read(i32 607, i64 %139, i8* getelementptr inbounds ([12 x i8], [12 x i8]* @.str.37, i32 0, i32 0))
  %140 = load i32, i32* %nodes57, align 8, !dbg !2356, !dp.md.instr.id !2358
  %cmp58 = icmp slt i32 %138, %140, !dbg !2359, !dp.md.instr.id !2360
  call void @__dp_report_bb(i32 48)
  %141 = load i32, i32* %__dp_bb134, align 4
  call void @__dp_report_bb_pair(i32 %141, i32 75)
  br i1 %cmp58, label %for.body59, label %for.end77, !dbg !2361, !dp.md.instr.id !2362

for.body59:                                       ; preds = %for.cond56
  call void @__dp_loop_incr(i32 2)
  call void @llvm.dbg.declare(metadata i32* %j, metadata !2363, metadata !DIExpression()), !dbg !2366, !dp.md.instr.id !2367
  %nindex60 = getelementptr inbounds %struct.ECLgraph, %struct.ECLgraph* %g, i32 0, i32 2, !dbg !2368, !dp.md.instr.id !2369
  %142 = ptrtoint i32** %nindex60 to i64
  call void @__dp_read(i32 612, i64 %142, i8* getelementptr inbounds ([12 x i8], [12 x i8]* @.str.37, i32 0, i32 0))
  %143 = load i32*, i32** %nindex60, align 8, !dbg !2368, !dp.md.instr.id !2370
  %144 = ptrtoint i32* %i55 to i64
  %145 = load i32, i32* %i55, align 4, !dbg !2371, !dp.md.instr.id !2372
  %idxprom61 = sext i32 %145 to i64, !dbg !2373, !dp.md.instr.id !2374
  %arrayidx62 = getelementptr inbounds i32, i32* %143, i64 %idxprom61, !dbg !2373, !dp.md.instr.id !2375
  %146 = ptrtoint i32* %arrayidx62 to i64
  call void @__dp_read(i32 616, i64 %146, i8* getelementptr inbounds ([22 x i8], [22 x i8]* @.str.103, i32 0, i32 0))
  %147 = load i32, i32* %arrayidx62, align 4, !dbg !2373, !dp.md.instr.id !2376
  %148 = ptrtoint i32* %j to i64
  store i32 %147, i32* %j, align 4, !dbg !2366, !dp.md.instr.id !2377
  call void @__dp_report_bb(i32 50)
  %149 = load i32, i32* %__dp_bb129, align 4
  call void @__dp_report_bb_pair(i32 %149, i32 61)
  %150 = load i32, i32* %__dp_bb134, align 4
  call void @__dp_report_bb_pair(i32 %150, i32 77)
  br label %for.cond63, !dbg !2378, !dp.md.instr.id !2379

for.cond63:                                       ; preds = %for.inc72, %for.body59
  call void @__dp_loop_entry(i32 32920, i32 4), !dp.md.instr.id !2380
  %151 = ptrtoint i32* %j to i64
  %152 = load i32, i32* %j, align 4, !dbg !2381, !dp.md.instr.id !2383
  %nindex64 = getelementptr inbounds %struct.ECLgraph, %struct.ECLgraph* %g, i32 0, i32 2, !dbg !2384, !dp.md.instr.id !2385
  %153 = ptrtoint i32** %nindex64 to i64
  call void @__dp_read(i32 622, i64 %153, i8* getelementptr inbounds ([12 x i8], [12 x i8]* @.str.37, i32 0, i32 0))
  %154 = load i32*, i32** %nindex64, align 8, !dbg !2384, !dp.md.instr.id !2386
  %155 = ptrtoint i32* %i55 to i64
  %156 = load i32, i32* %i55, align 4, !dbg !2387, !dp.md.instr.id !2388
  %add65 = add nsw i32 %156, 1, !dbg !2389, !dp.md.instr.id !2390
  %idxprom66 = sext i32 %add65 to i64, !dbg !2391, !dp.md.instr.id !2392
  %arrayidx67 = getelementptr inbounds i32, i32* %154, i64 %idxprom66, !dbg !2391, !dp.md.instr.id !2393
  %157 = ptrtoint i32* %arrayidx67 to i64
  call void @__dp_read(i32 627, i64 %157, i8* getelementptr inbounds ([22 x i8], [22 x i8]* @.str.103, i32 0, i32 0))
  %158 = load i32, i32* %arrayidx67, align 4, !dbg !2391, !dp.md.instr.id !2394
  %cmp68 = icmp slt i32 %152, %158, !dbg !2395, !dp.md.instr.id !2396
  call void @__dp_report_bb(i32 38)
  store i32 1, i32* %__dp_bb129, align 4
  %159 = load i32, i32* %__dp_bb130, align 4
  call void @__dp_report_bb_pair(i32 %159, i32 62)
  %160 = load i32, i32* %__dp_bb134, align 4
  call void @__dp_report_bb_pair(i32 %160, i32 73)
  br i1 %cmp68, label %for.body69, label %for.end74, !dbg !2397, !dp.md.instr.id !2398

for.body69:                                       ; preds = %for.cond63
  call void @__dp_loop_incr(i32 3)
  %161 = ptrtoint i32* %i55 to i64
  %162 = load i32, i32* %i55, align 4, !dbg !2399, !dp.md.instr.id !2401
  %163 = ptrtoint i32** %sp to i64
  %164 = load i32*, i32** %sp, align 8, !dbg !2402, !dp.md.instr.id !2403
  %165 = ptrtoint i32* %j to i64
  %166 = load i32, i32* %j, align 4, !dbg !2404, !dp.md.instr.id !2405
  %idxprom70 = sext i32 %166 to i64, !dbg !2402, !dp.md.instr.id !2406
  %arrayidx71 = getelementptr inbounds i32, i32* %164, i64 %idxprom70, !dbg !2402, !dp.md.instr.id !2407
  %167 = ptrtoint i32* %arrayidx71 to i64
  call void @__dp_write(i32 635, i64 %167, i8* getelementptr inbounds ([13 x i8], [13 x i8]* @.str.105, i32 0, i32 0))
  store i32 %162, i32* %arrayidx71, align 4, !dbg !2408, !dp.md.instr.id !2409
  call void @__dp_report_bb(i32 40)
  %168 = load i32, i32* %__dp_bb130, align 4
  call void @__dp_report_bb_pair(i32 %168, i32 64)
  %169 = load i32, i32* %__dp_bb134, align 4
  call void @__dp_report_bb_pair(i32 %169, i32 74)
  br label %for.inc72, !dbg !2410, !dp.md.instr.id !2411

for.inc72:                                        ; preds = %for.body69
  %170 = ptrtoint i32* %j to i64
  %171 = load i32, i32* %j, align 4, !dbg !2412, !dp.md.instr.id !2413
  %inc73 = add nsw i32 %171, 1, !dbg !2412, !dp.md.instr.id !2414
  %172 = ptrtoint i32* %j to i64
  store i32 %inc73, i32* %j, align 4, !dbg !2412, !dp.md.instr.id !2415
  call void @__dp_report_bb(i32 39)
  %173 = load i32, i32* %__dp_bb130, align 4
  call void @__dp_report_bb_pair(i32 %173, i32 63)
  store i32 1, i32* %__dp_bb130, align 4
  br label %for.cond63, !dbg !2416, !llvm.loop !2417, !dp.md.instr.id !2419

for.end74:                                        ; preds = %for.cond63
  call void @__dp_loop_exit(i32 32923, i32 4), !dp.md.instr.id !2420
  br label %for.inc75, !dbg !2421, !dp.md.instr.id !2422

for.inc75:                                        ; preds = %for.end74
  %174 = ptrtoint i32* %i55 to i64
  %175 = load i32, i32* %i55, align 4, !dbg !2423, !dp.md.instr.id !2424
  %inc76 = add nsw i32 %175, 1, !dbg !2423, !dp.md.instr.id !2425
  %176 = ptrtoint i32* %i55 to i64
  store i32 %inc76, i32* %i55, align 4, !dbg !2423, !dp.md.instr.id !2426
  call void @__dp_report_bb(i32 49)
  %177 = load i32, i32* %__dp_bb134, align 4
  call void @__dp_report_bb_pair(i32 %177, i32 76)
  store i32 1, i32* %__dp_bb134, align 4
  br label %for.cond56, !dbg !2427, !llvm.loop !2428, !dp.md.instr.id !2430

for.end77:                                        ; preds = %for.cond56
  call void @__dp_loop_exit(i32 32925, i32 3), !dp.md.instr.id !2431
  call void @llvm.dbg.declare(metadata i32* %threadCount, metadata !2432, metadata !DIExpression()), !dbg !2433, !dp.md.instr.id !2434
  call void @__dp_call(i32 32925), !dbg !2435
  %call78 = call i32 @_ZNSt6thread20hardware_concurrencyEv() #10, !dbg !2435, !dp.md.instr.id !2436
  %178 = ptrtoint i32* %threadCount to i64
  store i32 %call78, i32* %threadCount, align 4, !dbg !2433, !dp.md.instr.id !2437
  %179 = ptrtoint i32* %argc.addr to i64
  %180 = load i32, i32* %argc.addr, align 4, !dbg !2438, !dp.md.instr.id !2440
  %cmp79 = icmp eq i32 %180, 4, !dbg !2441, !dp.md.instr.id !2442
  call void @__dp_report_bb(i32 47)
  br i1 %cmp79, label %if.then80, label %if.end85, !dbg !2443, !dp.md.instr.id !2444

if.then80:                                        ; preds = %for.end77
  call void @llvm.dbg.declare(metadata i32* %countInt, metadata !2445, metadata !DIExpression()), !dbg !2447, !dp.md.instr.id !2448
  %181 = ptrtoint i8*** %argv.addr to i64
  %182 = load i8**, i8*** %argv.addr, align 8, !dbg !2449, !dp.md.instr.id !2450
  %arrayidx81 = getelementptr inbounds i8*, i8** %182, i64 3, !dbg !2449, !dp.md.instr.id !2451
  %183 = ptrtoint i8** %arrayidx81 to i64
  call void @__dp_read(i32 657, i64 %183, i8* getelementptr inbounds ([15 x i8], [15 x i8]* @.str.102, i32 0, i32 0))
  %184 = load i8*, i8** %arrayidx81, align 8, !dbg !2449, !dp.md.instr.id !2452
  call void @__dp_call(i32 32927), !dbg !2453
  %call82 = call i32 @atoi(i8* %184) #15, !dbg !2453, !dp.md.instr.id !2454
  %185 = ptrtoint i32* %countInt to i64
  store i32 %call82, i32* %countInt, align 4, !dbg !2447, !dp.md.instr.id !2455
  %186 = ptrtoint i32* %countInt to i64
  %187 = load i32, i32* %countInt, align 4, !dbg !2447, !dp.md.instr.id !2456
  %tobool = icmp ne i32 %187, 0, !dbg !2447, !dp.md.instr.id !2457
  call void @__dp_report_bb(i32 51)
  br i1 %tobool, label %if.then83, label %if.end84, !dbg !2458, !dp.md.instr.id !2459

if.then83:                                        ; preds = %if.then80
  %188 = ptrtoint i32* %countInt to i64
  %189 = load i32, i32* %countInt, align 4, !dbg !2460, !dp.md.instr.id !2461
  %190 = ptrtoint i32* %threadCount to i64
  store i32 %189, i32* %threadCount, align 4, !dbg !2462, !dp.md.instr.id !2463
  call void @__dp_report_bb(i32 53)
  store i32 1, i32* %__dp_bb135, align 4
  br label %if.end84, !dbg !2464, !dp.md.instr.id !2465

if.end84:                                         ; preds = %if.then83, %if.then80
  br label %if.end85, !dbg !2447, !dp.md.instr.id !2466

if.end85:                                         ; preds = %if.end84, %for.end77
  %191 = ptrtoint i32* %threadCount to i64
  %192 = load i32, i32* %threadCount, align 4, !dbg !2467, !dp.md.instr.id !2468
  call void @__dp_call(i32 32929), !dbg !2469
  %call86 = call i32 (i8*, ...) @printf(i8* getelementptr inbounds ([14 x i8], [14 x i8]* @.str.25, i64 0, i64 0), i32 %192), !dbg !2469, !dp.md.instr.id !2470
  call void @llvm.dbg.declare(metadata i32* %count, metadata !2471, metadata !DIExpression()), !dbg !2473, !dp.md.instr.id !2474
  %193 = ptrtoint i32* %count to i64
  call void @__dp_write(i32 670, i64 %193, i8* getelementptr inbounds ([6 x i8], [6 x i8]* @.str.94, i32 0, i32 0))
  store i32 0, i32* %count, align 4, !dbg !2473, !dp.md.instr.id !2475
  call void @llvm.dbg.declare(metadata i32* %runs, metadata !2476, metadata !DIExpression()), !dbg !2477, !dp.md.instr.id !2478
  %194 = ptrtoint i32* %runs to i64
  store i32 3, i32* %runs, align 4, !dbg !2477, !dp.md.instr.id !2479
  call void @llvm.dbg.declare(metadata [3 x double]* %runtimes, metadata !2480, metadata !DIExpression()), !dbg !2484, !dp.md.instr.id !2485
  call void @llvm.dbg.declare(metadata i32* %i87, metadata !2486, metadata !DIExpression()), !dbg !2488, !dp.md.instr.id !2489
  %195 = ptrtoint i32* %i87 to i64
  store i32 0, i32* %i87, align 4, !dbg !2488, !dp.md.instr.id !2490
  call void @__dp_report_bb(i32 52)
  %196 = load i32, i32* %__dp_bb135, align 4
  call void @__dp_report_bb_pair(i32 %196, i32 78)
  br label %for.cond88, !dbg !2491, !dp.md.instr.id !2492

for.cond88:                                       ; preds = %for.inc97, %if.end85
  call void @__dp_loop_entry(i32 32938, i32 5), !dp.md.instr.id !2493
  %197 = ptrtoint i32* %i87 to i64
  %198 = load i32, i32* %i87, align 4, !dbg !2494, !dp.md.instr.id !2496
  %cmp89 = icmp slt i32 %198, 3, !dbg !2497, !dp.md.instr.id !2498
  call void @__dp_report_bb(i32 55)
  %199 = load i32, i32* %__dp_bb136, align 4
  call void @__dp_report_bb_pair(i32 %199, i32 80)
  br i1 %cmp89, label %for.body90, label %for.end99, !dbg !2499, !dp.md.instr.id !2500

for.body90:                                       ; preds = %for.cond88
  call void @__dp_loop_incr(i32 1)
  %edges91 = getelementptr inbounds %struct.ECLgraph, %struct.ECLgraph* %g, i32 0, i32 1, !dbg !2501, !dp.md.instr.id !2503
  %200 = ptrtoint i32* %edges91 to i64
  call void @__dp_read(i32 682, i64 %200, i8* getelementptr inbounds ([12 x i8], [12 x i8]* @.str.37, i32 0, i32 0))
  %201 = load i32, i32* %edges91, align 4, !dbg !2501, !dp.md.instr.id !2504
  %nindex92 = getelementptr inbounds %struct.ECLgraph, %struct.ECLgraph* %g, i32 0, i32 2, !dbg !2505, !dp.md.instr.id !2506
  %202 = ptrtoint i32** %nindex92 to i64
  call void @__dp_read(i32 684, i64 %202, i8* getelementptr inbounds ([12 x i8], [12 x i8]* @.str.37, i32 0, i32 0))
  %203 = load i32*, i32** %nindex92, align 8, !dbg !2505, !dp.md.instr.id !2507
  %nlist93 = getelementptr inbounds %struct.ECLgraph, %struct.ECLgraph* %g, i32 0, i32 3, !dbg !2508, !dp.md.instr.id !2509
  %204 = ptrtoint i32** %nlist93 to i64
  call void @__dp_read(i32 686, i64 %204, i8* getelementptr inbounds ([12 x i8], [12 x i8]* @.str.37, i32 0, i32 0))
  %205 = load i32*, i32** %nlist93, align 8, !dbg !2508, !dp.md.instr.id !2510
  %206 = ptrtoint i32** %sp to i64
  %207 = load i32*, i32** %sp, align 8, !dbg !2511, !dp.md.instr.id !2512
  %208 = ptrtoint i32* %threadCount to i64
  %209 = load i32, i32* %threadCount, align 4, !dbg !2513, !dp.md.instr.id !2514
  call void @__dp_call(i32 32939), !dbg !2515
  %call94 = call double @_ZL10CPUtc_edgeRiiPKiS1_S1_i(i32* nonnull align 4 dereferenceable(4) %count, i32 %201, i32* %203, i32* %205, i32* %207, i32 %209), !dbg !2515, !dp.md.instr.id !2516
  %210 = ptrtoint i32* %i87 to i64
  %211 = load i32, i32* %i87, align 4, !dbg !2517, !dp.md.instr.id !2518
  %idxprom95 = sext i32 %211 to i64, !dbg !2519, !dp.md.instr.id !2520
  %arrayidx96 = getelementptr inbounds [3 x double], [3 x double]* %runtimes, i64 0, i64 %idxprom95, !dbg !2519, !dp.md.instr.id !2521
  %212 = ptrtoint double* %arrayidx96 to i64
  call void @__dp_write(i32 693, i64 %212, i8* getelementptr inbounds ([19 x i8], [19 x i8]* @.str.106, i32 0, i32 0))
  store double %call94, double* %arrayidx96, align 8, !dbg !2522, !dp.md.instr.id !2523
  call void @__dp_report_bb(i32 57)
  %213 = load i32, i32* %__dp_bb135, align 4
  call void @__dp_report_bb_pair(i32 %213, i32 79)
  %214 = load i32, i32* %__dp_bb136, align 4
  call void @__dp_report_bb_pair(i32 %214, i32 82)
  br label %for.inc97, !dbg !2524, !dp.md.instr.id !2525

for.inc97:                                        ; preds = %for.body90
  %215 = ptrtoint i32* %i87 to i64
  %216 = load i32, i32* %i87, align 4, !dbg !2526, !dp.md.instr.id !2527
  %inc98 = add nsw i32 %216, 1, !dbg !2526, !dp.md.instr.id !2528
  %217 = ptrtoint i32* %i87 to i64
  store i32 %inc98, i32* %i87, align 4, !dbg !2526, !dp.md.instr.id !2529
  call void @__dp_report_bb(i32 56)
  %218 = load i32, i32* %__dp_bb136, align 4
  call void @__dp_report_bb_pair(i32 %218, i32 81)
  store i32 1, i32* %__dp_bb136, align 4
  br label %for.cond88, !dbg !2530, !llvm.loop !2531, !dp.md.instr.id !2533

for.end99:                                        ; preds = %for.cond88
  call void @__dp_loop_exit(i32 32942, i32 5), !dp.md.instr.id !2534
  call void @llvm.dbg.declare(metadata double* %med, metadata !2535, metadata !DIExpression()), !dbg !2537, !dp.md.instr.id !2538
  %arraydecay = getelementptr inbounds [3 x double], [3 x double]* %runtimes, i64 0, i64 0, !dbg !2539, !dp.md.instr.id !2540
  call void @__dp_call(i32 32942), !dbg !2541
  %call100 = call double @_ZL6medianPdi(double* %arraydecay, i32 3), !dbg !2541, !dp.md.instr.id !2542
  %219 = ptrtoint double* %med to i64
  store double %call100, double* %med, align 8, !dbg !2537, !dp.md.instr.id !2543
  %220 = ptrtoint double* %med to i64
  %221 = load double, double* %med, align 8, !dbg !2544, !dp.md.instr.id !2545
  call void @__dp_call(i32 32943), !dbg !2546
  %call101 = call i32 (i8*, ...) @printf(i8* getelementptr inbounds ([21 x i8], [21 x i8]* @.str.26, i64 0, i64 0), double %221), !dbg !2546, !dp.md.instr.id !2547
  %edges102 = getelementptr inbounds %struct.ECLgraph, %struct.ECLgraph* %g, i32 0, i32 1, !dbg !2548, !dp.md.instr.id !2549
  %222 = ptrtoint i32* %edges102 to i64
  call void @__dp_read(i32 707, i64 %222, i8* getelementptr inbounds ([12 x i8], [12 x i8]* @.str.37, i32 0, i32 0))
  %223 = load i32, i32* %edges102, align 4, !dbg !2548, !dp.md.instr.id !2550
  %conv103 = sitofp i32 %223 to double, !dbg !2551, !dp.md.instr.id !2552
  %mul104 = fmul double 1.000000e-09, %conv103, !dbg !2553, !dp.md.instr.id !2554
  %224 = ptrtoint double* %med to i64
  %225 = load double, double* %med, align 8, !dbg !2555, !dp.md.instr.id !2556
  %div105 = fdiv double %mul104, %225, !dbg !2557, !dp.md.instr.id !2558
  call void @__dp_call(i32 32944), !dbg !2559
  %call106 = call i32 (i8*, ...) @printf(i8* getelementptr inbounds ([34 x i8], [34 x i8]* @.str.27, i64 0, i64 0), double %div105), !dbg !2559, !dp.md.instr.id !2560
  call void @llvm.dbg.declare(metadata i32* %verify, metadata !2561, metadata !DIExpression()), !dbg !2562, !dp.md.instr.id !2563
  %226 = ptrtoint i8*** %argv.addr to i64
  %227 = load i8**, i8*** %argv.addr, align 8, !dbg !2564, !dp.md.instr.id !2565
  %arrayidx107 = getelementptr inbounds i8*, i8** %227, i64 2, !dbg !2564, !dp.md.instr.id !2566
  %228 = ptrtoint i8** %arrayidx107 to i64
  call void @__dp_read(i32 716, i64 %228, i8* getelementptr inbounds ([15 x i8], [15 x i8]* @.str.102, i32 0, i32 0))
  %229 = load i8*, i8** %arrayidx107, align 8, !dbg !2564, !dp.md.instr.id !2567
  call void @__dp_call(i32 32947), !dbg !2568
  %call108 = call i32 @atoi(i8* %229) #15, !dbg !2568, !dp.md.instr.id !2569
  %230 = ptrtoint i32* %verify to i64
  store i32 %call108, i32* %verify, align 4, !dbg !2562, !dp.md.instr.id !2570
  %231 = ptrtoint i32* %verify to i64
  %232 = load i32, i32* %verify, align 4, !dbg !2571, !dp.md.instr.id !2573
  %cmp109 = icmp ne i32 %232, 0, !dbg !2574, !dp.md.instr.id !2575
  call void @__dp_report_bb(i32 54)
  br i1 %cmp109, label %land.lhs.true110, label %if.end114, !dbg !2576, !dp.md.instr.id !2577

land.lhs.true110:                                 ; preds = %for.end99
  %233 = ptrtoint i32* %verify to i64
  %234 = load i32, i32* %verify, align 4, !dbg !2578, !dp.md.instr.id !2579
  %cmp111 = icmp ne i32 %234, 1, !dbg !2580, !dp.md.instr.id !2581
  call void @__dp_report_bb(i32 26)
  br i1 %cmp111, label %if.then112, label %if.end114, !dbg !2582, !dp.md.instr.id !2583

if.then112:                                       ; preds = %land.lhs.true110
  call void @__dp_call(i32 32949), !dbg !2584
  %call113 = call i32 (i8*, ...) @printf(i8* getelementptr inbounds ([51 x i8], [51 x i8]* @.str.28, i64 0, i64 0)), !dbg !2584, !dp.md.instr.id !2586
  br label %if.end114, !dbg !2587, !dp.md.instr.id !2588

if.end114:                                        ; preds = %if.then112, %land.lhs.true110, %for.end99
  %235 = ptrtoint i32* %verify to i64
  %236 = load i32, i32* %verify, align 4, !dbg !2589, !dp.md.instr.id !2591
  %tobool115 = icmp ne i32 %236, 0, !dbg !2589, !dp.md.instr.id !2592
  call void @__dp_report_bb(i32 25)
  br i1 %tobool115, label %if.then116, label %if.end128, !dbg !2593, !dp.md.instr.id !2594

if.then116:                                       ; preds = %if.end114
  call void @llvm.dbg.declare(metadata %struct.timeval* %start, metadata !2595, metadata !DIExpression()), !dbg !2603, !dp.md.instr.id !2604
  call void @llvm.dbg.declare(metadata %struct.timeval* %end, metadata !2605, metadata !DIExpression()), !dbg !2606, !dp.md.instr.id !2607
  call void @__dp_call(i32 32953), !dbg !2608
  %call117 = call i32 @gettimeofday(%struct.timeval* %start, i8* null) #10, !dbg !2608, !dp.md.instr.id !2609
  call void @llvm.dbg.declare(metadata i32* %h_count, metadata !2610, metadata !DIExpression()), !dbg !2611, !dp.md.instr.id !2612
  %nodes118 = getelementptr inbounds %struct.ECLgraph, %struct.ECLgraph* %g, i32 0, i32 0, !dbg !2613, !dp.md.instr.id !2614
  %237 = ptrtoint i32* %nodes118 to i64
  call void @__dp_read(i32 735, i64 %237, i8* getelementptr inbounds ([12 x i8], [12 x i8]* @.str.37, i32 0, i32 0))
  %238 = load i32, i32* %nodes118, align 8, !dbg !2613, !dp.md.instr.id !2615
  %nindex119 = getelementptr inbounds %struct.ECLgraph, %struct.ECLgraph* %g, i32 0, i32 2, !dbg !2616, !dp.md.instr.id !2617
  %239 = ptrtoint i32** %nindex119 to i64
  call void @__dp_read(i32 737, i64 %239, i8* getelementptr inbounds ([12 x i8], [12 x i8]* @.str.37, i32 0, i32 0))
  %240 = load i32*, i32** %nindex119, align 8, !dbg !2616, !dp.md.instr.id !2618
  %nlist120 = getelementptr inbounds %struct.ECLgraph, %struct.ECLgraph* %g, i32 0, i32 3, !dbg !2619, !dp.md.instr.id !2620
  %241 = ptrtoint i32** %nlist120 to i64
  call void @__dp_read(i32 739, i64 %241, i8* getelementptr inbounds ([12 x i8], [12 x i8]* @.str.37, i32 0, i32 0))
  %242 = load i32*, i32** %nlist120, align 8, !dbg !2619, !dp.md.instr.id !2621
  call void @__dp_call(i32 32954), !dbg !2622
  %call121 = call i32 @_ZL13h_triCountingiPKiS0_(i32 %238, i32* %240, i32* %242), !dbg !2622, !dp.md.instr.id !2623
  %243 = ptrtoint i32* %h_count to i64
  store i32 %call121, i32* %h_count, align 4, !dbg !2611, !dp.md.instr.id !2624
  call void @__dp_call(i32 32955), !dbg !2625
  %call122 = call i32 @gettimeofday(%struct.timeval* %end, i8* null) #10, !dbg !2625, !dp.md.instr.id !2626
  %244 = ptrtoint i32* %h_count to i64
  %245 = load i32, i32* %h_count, align 4, !dbg !2627, !dp.md.instr.id !2629
  %246 = ptrtoint i32* %count to i64
  call void @__dp_read(i32 744, i64 %246, i8* getelementptr inbounds ([6 x i8], [6 x i8]* @.str.94, i32 0, i32 0))
  %247 = load i32, i32* %count, align 4, !dbg !2630, !dp.md.instr.id !2631
  %cmp123 = icmp ne i32 %245, %247, !dbg !2632, !dp.md.instr.id !2633
  call void @__dp_report_bb(i32 27)
  br i1 %cmp123, label %if.then124, label %if.else, !dbg !2634, !dp.md.instr.id !2635

if.then124:                                       ; preds = %if.then116
  %248 = ptrtoint i32* %h_count to i64
  %249 = load i32, i32* %h_count, align 4, !dbg !2636, !dp.md.instr.id !2637
  %250 = ptrtoint i32* %count to i64
  call void @__dp_read(i32 748, i64 %250, i8* getelementptr inbounds ([6 x i8], [6 x i8]* @.str.94, i32 0, i32 0))
  %251 = load i32, i32* %count, align 4, !dbg !2638, !dp.md.instr.id !2639
  call void @__dp_call(i32 32957), !dbg !2640
  %call125 = call i32 (i8*, ...) @printf(i8* getelementptr inbounds ([27 x i8], [27 x i8]* @.str.29, i64 0, i64 0), i32 %249, i32 %251), !dbg !2640, !dp.md.instr.id !2641
  call void @__dp_report_bb(i32 28)
  br label %if.end127, !dbg !2640, !dp.md.instr.id !2642

if.else:                                          ; preds = %if.then116
  %252 = ptrtoint i32* %count to i64
  call void @__dp_read(i32 751, i64 %252, i8* getelementptr inbounds ([6 x i8], [6 x i8]* @.str.94, i32 0, i32 0))
  %253 = load i32, i32* %count, align 4, !dbg !2643, !dp.md.instr.id !2644
  call void @__dp_call(i32 32958), !dbg !2645
  %call126 = call i32 (i8*, ...) @printf(i8* getelementptr inbounds ([31 x i8], [31 x i8]* @.str.30, i64 0, i64 0), i32 %253), !dbg !2645, !dp.md.instr.id !2646
  br label %if.end127, !dp.md.instr.id !2647

if.end127:                                        ; preds = %if.else, %if.then124
  br label %if.end128, !dbg !2648, !dp.md.instr.id !2649

if.end128:                                        ; preds = %if.end127, %if.end114
  call void @__dp_call(i32 32962), !dbg !2650
  call void @_Z12freeECLgraphR8ECLgraph(%struct.ECLgraph* nonnull align 8 dereferenceable(32) %g), !dbg !2650, !dp.md.instr.id !2651
  call void @__dp_finalize(i32 32963), !dbg !2652
  call void @__dp_loop_output(), !dbg !2652
  ret i32 0, !dbg !2652, !dp.md.instr.id !2653
}

; Function Attrs: noinline nounwind optnone uwtable
define linkonce_odr nonnull align 4 dereferenceable(4) i32* @_ZSt3maxIiERKT_S2_S2_(i32* nonnull align 4 dereferenceable(4) %__a, i32* nonnull align 4 dereferenceable(4) %__b) #5 comdat !dbg !2654 {
entry:
  %retval = alloca i32*, align 8
  %__a.addr = alloca i32*, align 8
  %__b.addr = alloca i32*, align 8
  store i32* %__a, i32** %__a.addr, align 8
  call void @llvm.dbg.declare(metadata i32** %__a.addr, metadata !2659, metadata !DIExpression()), !dbg !2661
  store i32* %__b, i32** %__b.addr, align 8
  call void @llvm.dbg.declare(metadata i32** %__b.addr, metadata !2662, metadata !DIExpression()), !dbg !2663
  %0 = load i32*, i32** %__a.addr, align 8, !dbg !2664
  %1 = load i32, i32* %0, align 4, !dbg !2664
  %2 = load i32*, i32** %__b.addr, align 8, !dbg !2666
  %3 = load i32, i32* %2, align 4, !dbg !2666
  %cmp = icmp slt i32 %1, %3, !dbg !2667
  br i1 %cmp, label %if.then, label %if.end, !dbg !2668

if.then:                                          ; preds = %entry
  %4 = load i32*, i32** %__b.addr, align 8, !dbg !2669
  store i32* %4, i32** %retval, align 8, !dbg !2670
  br label %return, !dbg !2670

if.end:                                           ; preds = %entry
  %5 = load i32*, i32** %__a.addr, align 8, !dbg !2671
  store i32* %5, i32** %retval, align 8, !dbg !2672
  br label %return, !dbg !2672

return:                                           ; preds = %if.end, %if.then
  %6 = load i32*, i32** %retval, align 8, !dbg !2673
  ret i32* %6, !dbg !2673
}

; Function Attrs: nounwind readnone speculatable willreturn
declare { i64, i1 } @llvm.umul.with.overflow.i64(i64, i64) #1

; Function Attrs: nobuiltin allocsize(0)
declare nonnull i8* @_Znam(i64) #7

; Function Attrs: nounwind
declare i32 @_ZNSt6thread20hardware_concurrencyEv() #4

; Function Attrs: nounwind readonly
declare i32 @atoi(i8*) #8

; Function Attrs: noinline optnone uwtable
define internal double @_ZL10CPUtc_edgeRiiPKiS1_S1_i(i32* nonnull align 4 dereferenceable(4) %count, i32 %edges, i32* %nindex, i32* %nlist, i32* %sp, i32 %threadCount) #0 personality i8* bitcast (i32 (...)* @__gxx_personality_v0 to i8*) !dbg !2674 {
entry:
  call void @__dp_func_entry(i32 49216, i32 0), !dp.md.instr.id !2679
  %__dp_bb36 = alloca i32, align 4
  store i32 0, i32* %__dp_bb36, align 4
  %__dp_bb = alloca i32, align 4
  store i32 0, i32* %__dp_bb, align 4
  %retval = alloca double, align 8, !dp.md.instr.id !2680
  %0 = ptrtoint double* %retval to i64, !dp.md.instr.id !2681
  %count.addr = alloca i32*, align 8, !dp.md.instr.id !2682
  %1 = ptrtoint i32** %count.addr to i64, !dp.md.instr.id !2683
  %edges.addr = alloca i32, align 4, !dp.md.instr.id !2684
  %2 = ptrtoint i32* %edges.addr to i64, !dp.md.instr.id !2685
  %nindex.addr = alloca i32*, align 8, !dp.md.instr.id !2686
  %3 = ptrtoint i32** %nindex.addr to i64, !dp.md.instr.id !2687
  %nlist.addr = alloca i32*, align 8, !dp.md.instr.id !2688
  %4 = ptrtoint i32** %nlist.addr to i64, !dp.md.instr.id !2689
  %sp.addr = alloca i32*, align 8, !dp.md.instr.id !2690
  %5 = ptrtoint i32** %sp.addr to i64, !dp.md.instr.id !2691
  %threadCount.addr = alloca i32, align 4, !dp.md.instr.id !2692
  %6 = ptrtoint i32* %threadCount.addr to i64, !dp.md.instr.id !2693
  %saved_stack = alloca i8*, align 8, !dp.md.instr.id !2694
  %7 = ptrtoint i8** %saved_stack to i64, !dp.md.instr.id !2695
  %__vla_expr0 = alloca i64, align 8, !dp.md.instr.id !2696
  %8 = ptrtoint i64* %__vla_expr0 to i64, !dp.md.instr.id !2697
  %__vla_expr1 = alloca i64, align 8, !dp.md.instr.id !2698
  %9 = ptrtoint i64* %__vla_expr1 to i64, !dp.md.instr.id !2699
  %start = alloca %struct.timeval, align 8, !dp.md.instr.id !2700
  %10 = ptrtoint %struct.timeval* %start to i64, !dp.md.instr.id !2701
  call void @__dp_alloca(i32 49216, i8* getelementptr inbounds ([6 x i8], [6 x i8]* @.str.99, i32 0, i32 0), i64 %10, i64 %10, i64 0, i64 1), !dp.md.instr.id !2702
  %end = alloca %struct.timeval, align 8, !dp.md.instr.id !2703
  %11 = ptrtoint %struct.timeval* %end to i64, !dp.md.instr.id !2704
  call void @__dp_alloca(i32 49216, i8* getelementptr inbounds ([4 x i8], [4 x i8]* @.str.100, i32 0, i32 0), i64 %11, i64 %11, i64 0, i64 1), !dp.md.instr.id !2705
  %i = alloca i32, align 4, !dp.md.instr.id !2706
  %12 = ptrtoint i32* %i to i64, !dp.md.instr.id !2707
  %ref.tmp = alloca %"class.std::thread", align 8, !dp.md.instr.id !2708
  %13 = ptrtoint %"class.std::thread"* %ref.tmp to i64, !dp.md.instr.id !2709
  call void @__dp_alloca(i32 49216, i8* getelementptr inbounds ([8 x i8], [8 x i8]* @.str.88, i32 0, i32 0), i64 %13, i64 %13, i64 0, i64 1), !dp.md.instr.id !2710
  %ref.tmp2 = alloca %"class.std::reference_wrapper", align 8, !dp.md.instr.id !2711
  %14 = ptrtoint %"class.std::reference_wrapper"* %ref.tmp2 to i64, !dp.md.instr.id !2712
  call void @__dp_alloca(i32 49216, i8* getelementptr inbounds ([9 x i8], [9 x i8]* @.str.113, i32 0, i32 0), i64 %14, i64 %14, i64 0, i64 1), !dp.md.instr.id !2713
  %exn.slot = alloca i8*, align 8, !dp.md.instr.id !2714
  %15 = ptrtoint i8** %exn.slot to i64, !dp.md.instr.id !2715
  %ehselector.slot = alloca i32, align 4, !dp.md.instr.id !2716
  %16 = ptrtoint i32* %ehselector.slot to i64, !dp.md.instr.id !2717
  %i7 = alloca i32, align 4, !dp.md.instr.id !2718
  %17 = ptrtoint i32* %i7 to i64, !dp.md.instr.id !2719
  %18 = ptrtoint i32** %count.addr to i64
  store i32* %count, i32** %count.addr, align 8, !dp.md.instr.id !2720
  call void @llvm.dbg.declare(metadata i32** %count.addr, metadata !2721, metadata !DIExpression()), !dbg !2722, !dp.md.instr.id !2723
  %19 = ptrtoint i32* %edges.addr to i64
  store i32 %edges, i32* %edges.addr, align 4, !dp.md.instr.id !2724
  call void @llvm.dbg.declare(metadata i32* %edges.addr, metadata !2725, metadata !DIExpression()), !dbg !2726, !dp.md.instr.id !2727
  %20 = ptrtoint i32** %nindex.addr to i64
  store i32* %nindex, i32** %nindex.addr, align 8, !dp.md.instr.id !2728
  call void @llvm.dbg.declare(metadata i32** %nindex.addr, metadata !2729, metadata !DIExpression()), !dbg !2730, !dp.md.instr.id !2731
  %21 = ptrtoint i32** %nlist.addr to i64
  store i32* %nlist, i32** %nlist.addr, align 8, !dp.md.instr.id !2732
  call void @llvm.dbg.declare(metadata i32** %nlist.addr, metadata !2733, metadata !DIExpression()), !dbg !2734, !dp.md.instr.id !2735
  %22 = ptrtoint i32** %sp.addr to i64
  store i32* %sp, i32** %sp.addr, align 8, !dp.md.instr.id !2736
  call void @llvm.dbg.declare(metadata i32** %sp.addr, metadata !2737, metadata !DIExpression()), !dbg !2738, !dp.md.instr.id !2739
  %23 = ptrtoint i32* %threadCount.addr to i64
  store i32 %threadCount, i32* %threadCount.addr, align 4, !dp.md.instr.id !2740
  call void @llvm.dbg.declare(metadata i32* %threadCount.addr, metadata !2741, metadata !DIExpression()), !dbg !2742, !dp.md.instr.id !2743
  %24 = ptrtoint i32* %threadCount.addr to i64
  %25 = load i32, i32* %threadCount.addr, align 4, !dbg !2744, !dp.md.instr.id !2745
  %26 = zext i32 %25 to i64, !dbg !2746, !dp.md.instr.id !2747
  call void @__dp_call(i32 49218), !dbg !2746
  %27 = call i8* @llvm.stacksave(), !dbg !2746, !dp.md.instr.id !2748
  %28 = ptrtoint i8** %saved_stack to i64
  store i8* %27, i8** %saved_stack, align 8, !dbg !2746, !dp.md.instr.id !2749
  %vla = alloca %"class.std::thread", i64 %26, align 16, !dbg !2746, !dp.md.instr.id !2750
  %29 = ptrtoint %"class.std::thread"* %vla to i64, !dbg !2746, !dp.md.instr.id !2751
  %30 = add i64 %29, %26, !dbg !2746, !dp.md.instr.id !2752
  %31 = mul i64 %26, 0, !dbg !2746, !dp.md.instr.id !2753
  call void @__dp_alloca(i32 49218, i8* getelementptr inbounds ([14 x i8], [14 x i8]* @.str.116, i32 0, i32 0), i64 %29, i64 %30, i64 %31, i64 %26), !dbg !2746, !dp.md.instr.id !2754
  %32 = ptrtoint i64* %__vla_expr0 to i64
  store i64 %26, i64* %__vla_expr0, align 8, !dbg !2746, !dp.md.instr.id !2755
  call void @llvm.dbg.declare(metadata i64* %__vla_expr0, metadata !2756, metadata !DIExpression()), !dbg !2757, !dp.md.instr.id !2758
  call void @llvm.dbg.declare(metadata %"class.std::thread"* %vla, metadata !2759, metadata !DIExpression()), !dbg !2763, !dp.md.instr.id !2764
  %isempty = icmp eq i64 %26, 0, !dbg !2763, !dp.md.instr.id !2765
  call void @__dp_report_bb(i32 85)
  br i1 %isempty, label %arrayctor.cont, label %new.ctorloop, !dbg !2763, !dp.md.instr.id !2766

new.ctorloop:                                     ; preds = %entry
  %arrayctor.end = getelementptr inbounds %"class.std::thread", %"class.std::thread"* %vla, i64 %26, !dbg !2763, !dp.md.instr.id !2767
  br label %arrayctor.loop, !dbg !2763, !dp.md.instr.id !2768

arrayctor.loop:                                   ; preds = %arrayctor.loop, %new.ctorloop
  %arrayctor.cur = phi %"class.std::thread"* [ %vla, %new.ctorloop ], [ %arrayctor.next, %arrayctor.loop ], !dbg !2763, !dp.md.instr.id !2769
  call void @__dp_call(i32 49218), !dbg !2763
  call void @_ZNSt6threadC2Ev(%"class.std::thread"* %arrayctor.cur) #10, !dbg !2763, !dp.md.instr.id !2770
  %arrayctor.next = getelementptr inbounds %"class.std::thread", %"class.std::thread"* %arrayctor.cur, i64 1, !dbg !2763, !dp.md.instr.id !2771
  %arrayctor.done = icmp eq %"class.std::thread"* %arrayctor.next, %arrayctor.end, !dbg !2763, !dp.md.instr.id !2772
  br i1 %arrayctor.done, label %arrayctor.cont, label %arrayctor.loop, !dbg !2763, !dp.md.instr.id !2773

arrayctor.cont:                                   ; preds = %entry, %arrayctor.loop
  %33 = ptrtoint i32* %threadCount.addr to i64
  %34 = load i32, i32* %threadCount.addr, align 4, !dbg !2774, !dp.md.instr.id !2775
  %35 = zext i32 %34 to i64, !dbg !2776, !dp.md.instr.id !2777
  %vla1 = alloca i32, i64 %35, align 16, !dbg !2776, !dp.md.instr.id !2778
  %36 = ptrtoint i32* %vla1 to i64, !dbg !2776, !dp.md.instr.id !2779
  %37 = add i64 %36, %35, !dbg !2776, !dp.md.instr.id !2780
  %38 = mul i64 %35, 4, !dbg !2776, !dp.md.instr.id !2781
  call void @__dp_alloca(i32 49219, i8* getelementptr inbounds ([10 x i8], [10 x i8]* @.str.117, i32 0, i32 0), i64 %36, i64 %37, i64 %38, i64 %35), !dbg !2776, !dp.md.instr.id !2782
  %39 = ptrtoint i64* %__vla_expr1 to i64
  store i64 %35, i64* %__vla_expr1, align 8, !dbg !2776, !dp.md.instr.id !2783
  call void @llvm.dbg.declare(metadata i64* %__vla_expr1, metadata !2784, metadata !DIExpression()), !dbg !2757, !dp.md.instr.id !2785
  call void @llvm.dbg.declare(metadata i32* %vla1, metadata !2786, metadata !DIExpression()), !dbg !2790, !dp.md.instr.id !2791
  call void @llvm.dbg.declare(metadata %struct.timeval* %start, metadata !2792, metadata !DIExpression()), !dbg !2793, !dp.md.instr.id !2794
  call void @llvm.dbg.declare(metadata %struct.timeval* %end, metadata !2795, metadata !DIExpression()), !dbg !2796, !dp.md.instr.id !2797
  %40 = ptrtoint i32** %count.addr to i64
  %41 = load i32*, i32** %count.addr, align 8, !dbg !2798, !dp.md.instr.id !2799
  %42 = ptrtoint i32* %41 to i64
  call void @__dp_write(i32 858, i64 %42, i8* getelementptr inbounds ([6 x i8], [6 x i8]* @.str.94, i32 0, i32 0))
  store i32 0, i32* %41, align 4, !dbg !2800, !dp.md.instr.id !2801
  call void @__dp_call(i32 49224), !dbg !2802
  %call = call i32 @gettimeofday(%struct.timeval* %start, i8* null) #10, !dbg !2802, !dp.md.instr.id !2803
  call void @llvm.dbg.declare(metadata i32* %i, metadata !2804, metadata !DIExpression()), !dbg !2806, !dp.md.instr.id !2807
  %43 = ptrtoint i32* %i to i64
  store i32 0, i32* %i, align 4, !dbg !2806, !dp.md.instr.id !2808
  call void @__dp_report_bb(i32 89)
  br label %for.cond, !dbg !2809, !dp.md.instr.id !2810

for.cond:                                         ; preds = %for.inc, %arrayctor.cont
  call void @__dp_loop_entry(i32 49226, i32 6), !dp.md.instr.id !2811
  %44 = ptrtoint i32* %i to i64
  %45 = load i32, i32* %i, align 4, !dbg !2812, !dp.md.instr.id !2814
  %46 = ptrtoint i32* %threadCount.addr to i64
  %47 = load i32, i32* %threadCount.addr, align 4, !dbg !2815, !dp.md.instr.id !2816
  %cmp = icmp slt i32 %45, %47, !dbg !2817, !dp.md.instr.id !2818
  call void @__dp_report_bb(i32 86)
  %48 = load i32, i32* %__dp_bb, align 4
  call void @__dp_report_bb_pair(i32 %48, i32 98)
  br i1 %cmp, label %for.body, label %for.end, !dbg !2819, !dp.md.instr.id !2820

for.body:                                         ; preds = %for.cond
  call void @__dp_loop_incr(i32 8)
  %49 = ptrtoint i32* %i to i64
  %50 = load i32, i32* %i, align 4, !dbg !2821, !dp.md.instr.id !2823
  %idxprom = sext i32 %50 to i64, !dbg !2824, !dp.md.instr.id !2825
  %arrayidx = getelementptr inbounds i32, i32* %vla1, i64 %idxprom, !dbg !2824, !dp.md.instr.id !2826
  call void @__dp_call(i32 49227), !dbg !2827
  %call3 = call i32* @_ZSt3refIiESt17reference_wrapperIT_ERS1_(i32* nonnull align 4 dereferenceable(4) %arrayidx) #10, !dbg !2827, !dp.md.instr.id !2828
  %coerce.dive = getelementptr inbounds %"class.std::reference_wrapper", %"class.std::reference_wrapper"* %ref.tmp2, i32 0, i32 0, !dbg !2827, !dp.md.instr.id !2829
  %51 = ptrtoint i32** %coerce.dive to i64
  call void @__dp_write(i32 873, i64 %51, i8* getelementptr inbounds ([19 x i8], [19 x i8]* @.str.118, i32 0, i32 0))
  store i32* %call3, i32** %coerce.dive, align 8, !dbg !2827, !dp.md.instr.id !2830
  call void @__dp_call(i32 49227), !dbg !2831
  call void @__dp_report_bb(i32 88)
  %52 = load i32, i32* %__dp_bb, align 4
  call void @__dp_report_bb_pair(i32 %52, i32 100)
  invoke void @_ZNSt6threadC2IRFvRiiPKiS3_S3_iiEJSt17reference_wrapperIiERS2_RKS3_SA_SA_S1_S8_EvEEOT_DpOT0_(%"class.std::thread"* %ref.tmp, void (i32*, i32, i32*, i32*, i32*, i32, i32)* nonnull @_ZL11triCountingRiiPKiS1_S1_ii, %"class.std::reference_wrapper"* nonnull align 8 dereferenceable(8) %ref.tmp2, i32* nonnull align 4 dereferenceable(4) %edges.addr, i32** nonnull align 8 dereferenceable(8) %nindex.addr, i32** nonnull align 8 dereferenceable(8) %nlist.addr, i32** nonnull align 8 dereferenceable(8) %sp.addr, i32* nonnull align 4 dereferenceable(4) %i, i32* nonnull align 4 dereferenceable(4) %threadCount.addr)
          to label %invoke.cont unwind label %lpad, !dbg !2831, !dp.md.instr.id !2832

invoke.cont:                                      ; preds = %for.body
  %53 = ptrtoint i32* %i to i64
  %54 = load i32, i32* %i, align 4, !dbg !2833, !dp.md.instr.id !2834
  %idxprom4 = sext i32 %54 to i64, !dbg !2835, !dp.md.instr.id !2836
  %arrayidx5 = getelementptr inbounds %"class.std::thread", %"class.std::thread"* %vla, i64 %idxprom4, !dbg !2835, !dp.md.instr.id !2837
  call void @__dp_call(i32 49227), !dbg !2838
  %call6 = call nonnull align 8 dereferenceable(8) %"class.std::thread"* @_ZNSt6threadaSEOS_(%"class.std::thread"* %arrayidx5, %"class.std::thread"* nonnull align 8 dereferenceable(8) %ref.tmp) #10, !dbg !2838, !dp.md.instr.id !2839
  call void @__dp_call(i32 49227), !dbg !2835
  call void @_ZNSt6threadD2Ev(%"class.std::thread"* %ref.tmp) #10, !dbg !2835, !dp.md.instr.id !2840
  call void @__dp_report_bb(i32 94)
  %55 = load i32, i32* %__dp_bb, align 4
  call void @__dp_report_bb_pair(i32 %55, i32 101)
  br label %for.inc, !dbg !2841, !dp.md.instr.id !2842

for.inc:                                          ; preds = %invoke.cont
  %56 = ptrtoint i32* %i to i64
  %57 = load i32, i32* %i, align 4, !dbg !2843, !dp.md.instr.id !2844
  %inc = add nsw i32 %57, 1, !dbg !2843, !dp.md.instr.id !2845
  %58 = ptrtoint i32* %i to i64
  store i32 %inc, i32* %i, align 4, !dbg !2843, !dp.md.instr.id !2846
  call void @__dp_report_bb(i32 87)
  %59 = load i32, i32* %__dp_bb, align 4
  call void @__dp_report_bb_pair(i32 %59, i32 99)
  store i32 1, i32* %__dp_bb, align 4
  br label %for.cond, !dbg !2847, !llvm.loop !2848, !dp.md.instr.id !2850

lpad:                                             ; preds = %for.body10, %for.body
  %60 = landingpad { i8*, i32 }
          cleanup, !dbg !2851, !dp.md.instr.id !2852
  %61 = extractvalue { i8*, i32 } %60, 0, !dbg !2851, !dp.md.instr.id !2853
  %62 = ptrtoint i8** %exn.slot to i64
  store i8* %61, i8** %exn.slot, align 8, !dbg !2851, !dp.md.instr.id !2854
  %63 = extractvalue { i8*, i32 } %60, 1, !dbg !2851, !dp.md.instr.id !2855
  %64 = ptrtoint i32* %ehselector.slot to i64
  store i32 %63, i32* %ehselector.slot, align 4, !dbg !2851, !dp.md.instr.id !2856
  %65 = getelementptr inbounds %"class.std::thread", %"class.std::thread"* %vla, i64 %26, !dbg !2857, !dp.md.instr.id !2858
  %arraydestroy.isempty29 = icmp eq %"class.std::thread"* %vla, %65, !dbg !2857, !dp.md.instr.id !2859
  call void @__dp_report_bb(i32 84)
  br i1 %arraydestroy.isempty29, label %arraydestroy.done34, label %arraydestroy.body30, !dbg !2857, !dp.md.instr.id !2860

for.end:                                          ; preds = %for.cond
  call void @__dp_loop_exit(i32 49229, i32 6), !dp.md.instr.id !2861
  call void @llvm.dbg.declare(metadata i32* %i7, metadata !2862, metadata !DIExpression()), !dbg !2864, !dp.md.instr.id !2865
  %66 = ptrtoint i32* %i7 to i64
  store i32 0, i32* %i7, align 4, !dbg !2864, !dp.md.instr.id !2866
  call void @__dp_report_bb(i32 90)
  br label %for.cond8, !dbg !2867, !dp.md.instr.id !2868

for.cond8:                                        ; preds = %for.inc16, %for.end
  call void @__dp_loop_entry(i32 49229, i32 7), !dp.md.instr.id !2869
  %67 = ptrtoint i32* %i7 to i64
  %68 = load i32, i32* %i7, align 4, !dbg !2870, !dp.md.instr.id !2872
  %69 = ptrtoint i32* %threadCount.addr to i64
  %70 = load i32, i32* %threadCount.addr, align 4, !dbg !2873, !dp.md.instr.id !2874
  %cmp9 = icmp slt i32 %68, %70, !dbg !2875, !dp.md.instr.id !2876
  call void @__dp_report_bb(i32 91)
  %71 = load i32, i32* %__dp_bb36, align 4
  call void @__dp_report_bb_pair(i32 %71, i32 102)
  br i1 %cmp9, label %for.body10, label %for.end18, !dbg !2877, !dp.md.instr.id !2878

for.body10:                                       ; preds = %for.cond8
  call void @__dp_loop_incr(i32 7)
  %72 = ptrtoint i32* %i7 to i64
  %73 = load i32, i32* %i7, align 4, !dbg !2879, !dp.md.instr.id !2881
  %idxprom11 = sext i32 %73 to i64, !dbg !2882, !dp.md.instr.id !2883
  %arrayidx12 = getelementptr inbounds %"class.std::thread", %"class.std::thread"* %vla, i64 %idxprom11, !dbg !2882, !dp.md.instr.id !2884
  call void @__dp_call(i32 49230), !dbg !2885
  call void @__dp_report_bb(i32 93)
  %74 = load i32, i32* %__dp_bb36, align 4
  call void @__dp_report_bb_pair(i32 %74, i32 104)
  invoke void @_ZNSt6thread4joinEv(%"class.std::thread"* %arrayidx12)
          to label %invoke.cont13 unwind label %lpad, !dbg !2885, !dp.md.instr.id !2886

invoke.cont13:                                    ; preds = %for.body10
  %75 = ptrtoint i32* %i7 to i64
  %76 = load i32, i32* %i7, align 4, !dbg !2887, !dp.md.instr.id !2888
  %idxprom14 = sext i32 %76 to i64, !dbg !2889, !dp.md.instr.id !2890
  %arrayidx15 = getelementptr inbounds i32, i32* %vla1, i64 %idxprom14, !dbg !2889, !dp.md.instr.id !2891
  %77 = ptrtoint i32* %arrayidx15 to i64
  call void @__dp_read(i32 909, i64 %77, i8* getelementptr inbounds ([15 x i8], [15 x i8]* @.str.119, i32 0, i32 0))
  %78 = load i32, i32* %arrayidx15, align 4, !dbg !2889, !dp.md.instr.id !2892
  %79 = ptrtoint i32** %count.addr to i64
  %80 = load i32*, i32** %count.addr, align 8, !dbg !2893, !dp.md.instr.id !2894
  %81 = ptrtoint i32* %80 to i64
  call void @__dp_read(i32 911, i64 %81, i8* getelementptr inbounds ([6 x i8], [6 x i8]* @.str.94, i32 0, i32 0))
  %82 = load i32, i32* %80, align 4, !dbg !2895, !dp.md.instr.id !2896
  %add = add nsw i32 %82, %78, !dbg !2895, !dp.md.instr.id !2897
  %83 = ptrtoint i32* %80 to i64
  call void @__dp_write(i32 913, i64 %83, i8* getelementptr inbounds ([6 x i8], [6 x i8]* @.str.94, i32 0, i32 0))
  store i32 %add, i32* %80, align 4, !dbg !2895, !dp.md.instr.id !2898
  call void @__dp_report_bb(i32 95)
  %84 = load i32, i32* %__dp_bb36, align 4
  call void @__dp_report_bb_pair(i32 %84, i32 105)
  br label %for.inc16, !dbg !2899, !dp.md.instr.id !2900

for.inc16:                                        ; preds = %invoke.cont13
  %85 = ptrtoint i32* %i7 to i64
  %86 = load i32, i32* %i7, align 4, !dbg !2901, !dp.md.instr.id !2902
  %inc17 = add nsw i32 %86, 1, !dbg !2901, !dp.md.instr.id !2903
  %87 = ptrtoint i32* %i7 to i64
  store i32 %inc17, i32* %i7, align 4, !dbg !2901, !dp.md.instr.id !2904
  call void @__dp_report_bb(i32 92)
  %88 = load i32, i32* %__dp_bb36, align 4
  call void @__dp_report_bb_pair(i32 %88, i32 103)
  store i32 1, i32* %__dp_bb36, align 4
  br label %for.cond8, !dbg !2905, !llvm.loop !2906, !dp.md.instr.id !2908

for.end18:                                        ; preds = %for.cond8
  call void @__dp_loop_exit(i32 49234, i32 7), !dp.md.instr.id !2909
  call void @__dp_call(i32 49234), !dbg !2910
  %call19 = call i32 @gettimeofday(%struct.timeval* %end, i8* null) #10, !dbg !2910, !dp.md.instr.id !2911
  %tv_sec = getelementptr inbounds %struct.timeval, %struct.timeval* %end, i32 0, i32 0, !dbg !2912, !dp.md.instr.id !2913
  %89 = ptrtoint i64* %tv_sec to i64
  call void @__dp_read(i32 922, i64 %89, i8* getelementptr inbounds ([14 x i8], [14 x i8]* @.str.120, i32 0, i32 0))
  %90 = load i64, i64* %tv_sec, align 8, !dbg !2912, !dp.md.instr.id !2914
  %conv = sitofp i64 %90 to double, !dbg !2915, !dp.md.instr.id !2916
  %tv_usec = getelementptr inbounds %struct.timeval, %struct.timeval* %end, i32 0, i32 1, !dbg !2917, !dp.md.instr.id !2918
  %91 = ptrtoint i64* %tv_usec to i64
  call void @__dp_read(i32 925, i64 %91, i8* getelementptr inbounds ([14 x i8], [14 x i8]* @.str.120, i32 0, i32 0))
  %92 = load i64, i64* %tv_usec, align 8, !dbg !2917, !dp.md.instr.id !2919
  %conv20 = sitofp i64 %92 to double, !dbg !2920, !dp.md.instr.id !2921
  %div = fdiv double %conv20, 1.000000e+06, !dbg !2922, !dp.md.instr.id !2923
  %add21 = fadd double %conv, %div, !dbg !2924, !dp.md.instr.id !2925
  %tv_sec22 = getelementptr inbounds %struct.timeval, %struct.timeval* %start, i32 0, i32 0, !dbg !2926, !dp.md.instr.id !2927
  %93 = ptrtoint i64* %tv_sec22 to i64
  call void @__dp_read(i32 930, i64 %93, i8* getelementptr inbounds ([16 x i8], [16 x i8]* @.str.121, i32 0, i32 0))
  %94 = load i64, i64* %tv_sec22, align 8, !dbg !2926, !dp.md.instr.id !2928
  %conv23 = sitofp i64 %94 to double, !dbg !2929, !dp.md.instr.id !2930
  %sub = fsub double %add21, %conv23, !dbg !2931, !dp.md.instr.id !2932
  %tv_usec24 = getelementptr inbounds %struct.timeval, %struct.timeval* %start, i32 0, i32 1, !dbg !2933, !dp.md.instr.id !2934
  %95 = ptrtoint i64* %tv_usec24 to i64
  call void @__dp_read(i32 934, i64 %95, i8* getelementptr inbounds ([16 x i8], [16 x i8]* @.str.121, i32 0, i32 0))
  %96 = load i64, i64* %tv_usec24, align 8, !dbg !2933, !dp.md.instr.id !2935
  %conv25 = sitofp i64 %96 to double, !dbg !2936, !dp.md.instr.id !2937
  %div26 = fdiv double %conv25, 1.000000e+06, !dbg !2938, !dp.md.instr.id !2939
  %sub27 = fsub double %sub, %div26, !dbg !2940, !dp.md.instr.id !2941
  %97 = ptrtoint double* %retval to i64
  store double %sub27, double* %retval, align 8, !dbg !2942, !dp.md.instr.id !2943
  %98 = getelementptr inbounds %"class.std::thread", %"class.std::thread"* %vla, i64 %26, !dbg !2857, !dp.md.instr.id !2944
  %arraydestroy.isempty = icmp eq %"class.std::thread"* %vla, %98, !dbg !2857, !dp.md.instr.id !2945
  call void @__dp_report_bb(i32 83)
  br i1 %arraydestroy.isempty, label %arraydestroy.done28, label %arraydestroy.body, !dbg !2857, !dp.md.instr.id !2946

arraydestroy.body:                                ; preds = %arraydestroy.body, %for.end18
  %arraydestroy.elementPast = phi %"class.std::thread"* [ %98, %for.end18 ], [ %arraydestroy.element, %arraydestroy.body ], !dbg !2857, !dp.md.instr.id !2947
  %arraydestroy.element = getelementptr inbounds %"class.std::thread", %"class.std::thread"* %arraydestroy.elementPast, i64 -1, !dbg !2857, !dp.md.instr.id !2948
  call void @__dp_call(i32 49237), !dbg !2857
  call void @_ZNSt6threadD2Ev(%"class.std::thread"* %arraydestroy.element) #10, !dbg !2857, !dp.md.instr.id !2949
  %arraydestroy.done = icmp eq %"class.std::thread"* %arraydestroy.element, %vla, !dbg !2857, !dp.md.instr.id !2950
  br i1 %arraydestroy.done, label %arraydestroy.done28, label %arraydestroy.body, !dbg !2857, !dp.md.instr.id !2951

arraydestroy.done28:                              ; preds = %arraydestroy.body, %for.end18
  %99 = ptrtoint i8** %saved_stack to i64
  %100 = load i8*, i8** %saved_stack, align 8, !dbg !2857, !dp.md.instr.id !2952
  call void @__dp_call(i32 49237), !dbg !2857
  call void @llvm.stackrestore(i8* %100), !dbg !2857, !dp.md.instr.id !2953
  %101 = ptrtoint double* %retval to i64
  %102 = load double, double* %retval, align 8, !dbg !2857, !dp.md.instr.id !2954
  call void @__dp_report_bb(i32 97)
  call void @__dp_func_exit(i32 49237, i32 0), !dbg !2857
  ret double %102, !dbg !2857, !dp.md.instr.id !2955

arraydestroy.body30:                              ; preds = %arraydestroy.body30, %lpad
  %arraydestroy.elementPast31 = phi %"class.std::thread"* [ %65, %lpad ], [ %arraydestroy.element32, %arraydestroy.body30 ], !dbg !2857, !dp.md.instr.id !2956
  %arraydestroy.element32 = getelementptr inbounds %"class.std::thread", %"class.std::thread"* %arraydestroy.elementPast31, i64 -1, !dbg !2857, !dp.md.instr.id !2957
  call void @__dp_call(i32 49237), !dbg !2857
  call void @_ZNSt6threadD2Ev(%"class.std::thread"* %arraydestroy.element32) #10, !dbg !2857, !dp.md.instr.id !2958
  %arraydestroy.done33 = icmp eq %"class.std::thread"* %arraydestroy.element32, %vla, !dbg !2857, !dp.md.instr.id !2959
  br i1 %arraydestroy.done33, label %arraydestroy.done34, label %arraydestroy.body30, !dbg !2857, !dp.md.instr.id !2960

arraydestroy.done34:                              ; preds = %arraydestroy.body30, %lpad
  br label %eh.resume, !dbg !2857, !dp.md.instr.id !2961

eh.resume:                                        ; preds = %arraydestroy.done34
  %103 = ptrtoint i8** %exn.slot to i64
  %exn = load i8*, i8** %exn.slot, align 8, !dbg !2857, !dp.md.instr.id !2962
  %104 = ptrtoint i32* %ehselector.slot to i64
  %sel = load i32, i32* %ehselector.slot, align 4, !dbg !2857, !dp.md.instr.id !2963
  %lpad.val = insertvalue { i8*, i32 } undef, i8* %exn, 0, !dbg !2857, !dp.md.instr.id !2964
  %lpad.val35 = insertvalue { i8*, i32 } %lpad.val, i32 %sel, 1, !dbg !2857, !dp.md.instr.id !2965
  call void @__dp_report_bb(i32 96)
  resume { i8*, i32 } %lpad.val35, !dbg !2857, !dp.md.instr.id !2966
}

; Function Attrs: noinline optnone uwtable
define internal double @_ZL6medianPdi(double* %array, i32 %n) #0 !dbg !2967 {
entry:
  call void @__dp_func_entry(i32 32865, i32 0), !dp.md.instr.id !2970
  %__dp_bb8 = alloca i32, align 4
  store i32 0, i32* %__dp_bb8, align 4
  %__dp_bb = alloca i32, align 4
  store i32 0, i32* %__dp_bb, align 4
  %array.addr = alloca double*, align 8, !dp.md.instr.id !2971
  %0 = ptrtoint double** %array.addr to i64, !dp.md.instr.id !2972
  %n.addr = alloca i32, align 4, !dp.md.instr.id !2973
  %1 = ptrtoint i32* %n.addr to i64, !dp.md.instr.id !2974
  %median = alloca double, align 8, !dp.md.instr.id !2975
  %2 = ptrtoint double* %median to i64, !dp.md.instr.id !2976
  %3 = ptrtoint double** %array.addr to i64
  store double* %array, double** %array.addr, align 8, !dp.md.instr.id !2977
  call void @llvm.dbg.declare(metadata double** %array.addr, metadata !2978, metadata !DIExpression()), !dbg !2979, !dp.md.instr.id !2980
  %4 = ptrtoint i32* %n.addr to i64
  store i32 %n, i32* %n.addr, align 4, !dp.md.instr.id !2981
  call void @llvm.dbg.declare(metadata i32* %n.addr, metadata !2982, metadata !DIExpression()), !dbg !2983, !dp.md.instr.id !2984
  call void @llvm.dbg.declare(metadata double* %median, metadata !2985, metadata !DIExpression()), !dbg !2986, !dp.md.instr.id !2987
  %5 = ptrtoint double* %median to i64
  store double 0.000000e+00, double* %median, align 8, !dbg !2986, !dp.md.instr.id !2988
  %6 = ptrtoint double** %array.addr to i64
  %7 = load double*, double** %array.addr, align 8, !dbg !2989, !dp.md.instr.id !2990
  %8 = ptrtoint double** %array.addr to i64
  %9 = load double*, double** %array.addr, align 8, !dbg !2991, !dp.md.instr.id !2992
  %10 = ptrtoint i32* %n.addr to i64
  %11 = load i32, i32* %n.addr, align 4, !dbg !2993, !dp.md.instr.id !2994
  %idx.ext = sext i32 %11 to i64, !dbg !2995, !dp.md.instr.id !2996
  %add.ptr = getelementptr inbounds double, double* %9, i64 %idx.ext, !dbg !2995, !dp.md.instr.id !2997
  call void @__dp_call(i32 32868), !dbg !2998
  call void @_ZSt4sortIPdEvT_S1_(double* %7, double* %add.ptr), !dbg !2998, !dp.md.instr.id !2999
  %12 = ptrtoint i32* %n.addr to i64
  %13 = load i32, i32* %n.addr, align 4, !dbg !3000, !dp.md.instr.id !3002
  %rem = srem i32 %13, 2, !dbg !3003, !dp.md.instr.id !3004
  %cmp = icmp eq i32 %rem, 0, !dbg !3005, !dp.md.instr.id !3006
  call void @__dp_report_bb(i32 108)
  br i1 %cmp, label %if.then, label %if.else, !dbg !3007, !dp.md.instr.id !3008

if.then:                                          ; preds = %entry
  %14 = ptrtoint double** %array.addr to i64
  %15 = load double*, double** %array.addr, align 8, !dbg !3009, !dp.md.instr.id !3010
  %16 = ptrtoint i32* %n.addr to i64
  %17 = load i32, i32* %n.addr, align 4, !dbg !3011, !dp.md.instr.id !3012
  %sub = sub nsw i32 %17, 1, !dbg !3013, !dp.md.instr.id !3014
  %div = sdiv i32 %sub, 2, !dbg !3015, !dp.md.instr.id !3016
  %idxprom = sext i32 %div to i64, !dbg !3009, !dp.md.instr.id !3017
  %arrayidx = getelementptr inbounds double, double* %15, i64 %idxprom, !dbg !3009, !dp.md.instr.id !3018
  %18 = ptrtoint double* %arrayidx to i64
  call void @__dp_read(i32 994, i64 %18, i8* getelementptr inbounds ([16 x i8], [16 x i8]* @.str.125, i32 0, i32 0))
  %19 = load double, double* %arrayidx, align 8, !dbg !3009, !dp.md.instr.id !3019
  %20 = ptrtoint double** %array.addr to i64
  %21 = load double*, double** %array.addr, align 8, !dbg !3020, !dp.md.instr.id !3021
  %22 = ptrtoint i32* %n.addr to i64
  %23 = load i32, i32* %n.addr, align 4, !dbg !3022, !dp.md.instr.id !3023
  %div1 = sdiv i32 %23, 2, !dbg !3024, !dp.md.instr.id !3025
  %idxprom2 = sext i32 %div1 to i64, !dbg !3020, !dp.md.instr.id !3026
  %arrayidx3 = getelementptr inbounds double, double* %21, i64 %idxprom2, !dbg !3020, !dp.md.instr.id !3027
  %24 = ptrtoint double* %arrayidx3 to i64
  call void @__dp_read(i32 1000, i64 %24, i8* getelementptr inbounds ([16 x i8], [16 x i8]* @.str.125, i32 0, i32 0))
  %25 = load double, double* %arrayidx3, align 8, !dbg !3020, !dp.md.instr.id !3028
  %add = fadd double %19, %25, !dbg !3029, !dp.md.instr.id !3030
  %div4 = fdiv double %add, 2.000000e+00, !dbg !3031, !dp.md.instr.id !3032
  %26 = ptrtoint double* %median to i64
  store double %div4, double* %median, align 8, !dbg !3033, !dp.md.instr.id !3034
  call void @__dp_report_bb(i32 107)
  store i32 1, i32* %__dp_bb8, align 4
  br label %if.end, !dbg !3035, !dp.md.instr.id !3036

if.else:                                          ; preds = %entry
  %27 = ptrtoint double** %array.addr to i64
  %28 = load double*, double** %array.addr, align 8, !dbg !3037, !dp.md.instr.id !3038
  %29 = ptrtoint i32* %n.addr to i64
  %30 = load i32, i32* %n.addr, align 4, !dbg !3039, !dp.md.instr.id !3040
  %div5 = sdiv i32 %30, 2, !dbg !3041, !dp.md.instr.id !3042
  %idxprom6 = sext i32 %div5 to i64, !dbg !3037, !dp.md.instr.id !3043
  %arrayidx7 = getelementptr inbounds double, double* %28, i64 %idxprom6, !dbg !3037, !dp.md.instr.id !3044
  %31 = ptrtoint double* %arrayidx7 to i64
  call void @__dp_read(i32 1010, i64 %31, i8* getelementptr inbounds ([16 x i8], [16 x i8]* @.str.125, i32 0, i32 0))
  %32 = load double, double* %arrayidx7, align 8, !dbg !3037, !dp.md.instr.id !3045
  %33 = ptrtoint double* %median to i64
  store double %32, double* %median, align 8, !dbg !3046, !dp.md.instr.id !3047
  call void @__dp_report_bb(i32 106)
  store i32 1, i32* %__dp_bb, align 4
  br label %if.end, !dp.md.instr.id !3048

if.end:                                           ; preds = %if.else, %if.then
  %34 = ptrtoint double* %median to i64
  %35 = load double, double* %median, align 8, !dbg !3049, !dp.md.instr.id !3050
  %36 = load i32, i32* %__dp_bb, align 4
  call void @__dp_report_bb_pair(i32 %36, i32 109)
  %37 = load i32, i32* %__dp_bb8, align 4
  call void @__dp_report_bb_pair(i32 %37, i32 110)
  call void @__dp_func_exit(i32 32871, i32 0), !dbg !3051
  ret double %35, !dbg !3051, !dp.md.instr.id !3052
}

; Function Attrs: nounwind
declare i32 @gettimeofday(%struct.timeval*, i8*) #4

; Function Attrs: noinline optnone uwtable
define internal i32 @_ZL13h_triCountingiPKiS0_(i32 %nodes, i32* noalias %nindex, i32* noalias %nlist) #0 !dbg !3053 {
entry:
  call void @__dp_func_entry(i32 32835, i32 0), !dp.md.instr.id !3058
  %__dp_bb42 = alloca i32, align 4
  store i32 0, i32* %__dp_bb42, align 4
  %__dp_bb41 = alloca i32, align 4
  store i32 0, i32* %__dp_bb41, align 4
  %__dp_bb40 = alloca i32, align 4
  store i32 0, i32* %__dp_bb40, align 4
  %__dp_bb39 = alloca i32, align 4
  store i32 0, i32* %__dp_bb39, align 4
  %__dp_bb38 = alloca i32, align 4
  store i32 0, i32* %__dp_bb38, align 4
  %__dp_bb37 = alloca i32, align 4
  store i32 0, i32* %__dp_bb37, align 4
  %__dp_bb36 = alloca i32, align 4
  store i32 0, i32* %__dp_bb36, align 4
  %__dp_bb35 = alloca i32, align 4
  store i32 0, i32* %__dp_bb35, align 4
  %__dp_bb34 = alloca i32, align 4
  store i32 0, i32* %__dp_bb34, align 4
  %__dp_bb33 = alloca i32, align 4
  store i32 0, i32* %__dp_bb33, align 4
  %__dp_bb = alloca i32, align 4
  store i32 0, i32* %__dp_bb, align 4
  %nodes.addr = alloca i32, align 4, !dp.md.instr.id !3059
  %0 = ptrtoint i32* %nodes.addr to i64, !dp.md.instr.id !3060
  %nindex.addr = alloca i32*, align 8, !dp.md.instr.id !3061
  %1 = ptrtoint i32** %nindex.addr to i64, !dp.md.instr.id !3062
  %nlist.addr = alloca i32*, align 8, !dp.md.instr.id !3063
  %2 = ptrtoint i32** %nlist.addr to i64, !dp.md.instr.id !3064
  %count = alloca i32, align 4, !dp.md.instr.id !3065
  %3 = ptrtoint i32* %count to i64, !dp.md.instr.id !3066
  %v = alloca i32, align 4, !dp.md.instr.id !3067
  %4 = ptrtoint i32* %v to i64, !dp.md.instr.id !3068
  %beg1 = alloca i32, align 4, !dp.md.instr.id !3069
  %5 = ptrtoint i32* %beg1 to i64, !dp.md.instr.id !3070
  %end1 = alloca i32, align 4, !dp.md.instr.id !3071
  %6 = ptrtoint i32* %end1 to i64, !dp.md.instr.id !3072
  %start1 = alloca i32, align 4, !dp.md.instr.id !3073
  %7 = ptrtoint i32* %start1 to i64, !dp.md.instr.id !3074
  %j = alloca i32, align 4, !dp.md.instr.id !3075
  %8 = ptrtoint i32* %j to i64, !dp.md.instr.id !3076
  %u = alloca i32, align 4, !dp.md.instr.id !3077
  %9 = ptrtoint i32* %u to i64, !dp.md.instr.id !3078
  %beg2 = alloca i32, align 4, !dp.md.instr.id !3079
  %10 = ptrtoint i32* %beg2 to i64, !dp.md.instr.id !3080
  %end2 = alloca i32, align 4, !dp.md.instr.id !3081
  %11 = ptrtoint i32* %end2 to i64, !dp.md.instr.id !3082
  %start2 = alloca i32, align 4, !dp.md.instr.id !3083
  %12 = ptrtoint i32* %start2 to i64, !dp.md.instr.id !3084
  %13 = ptrtoint i32* %nodes.addr to i64
  store i32 %nodes, i32* %nodes.addr, align 4, !dp.md.instr.id !3085
  call void @llvm.dbg.declare(metadata i32* %nodes.addr, metadata !3086, metadata !DIExpression()), !dbg !3087, !dp.md.instr.id !3088
  %14 = ptrtoint i32** %nindex.addr to i64
  store i32* %nindex, i32** %nindex.addr, align 8, !dp.md.instr.id !3089
  call void @llvm.dbg.declare(metadata i32** %nindex.addr, metadata !3090, metadata !DIExpression()), !dbg !3091, !dp.md.instr.id !3092
  %15 = ptrtoint i32** %nlist.addr to i64
  store i32* %nlist, i32** %nlist.addr, align 8, !dp.md.instr.id !3093
  call void @llvm.dbg.declare(metadata i32** %nlist.addr, metadata !3094, metadata !DIExpression()), !dbg !3095, !dp.md.instr.id !3096
  call void @llvm.dbg.declare(metadata i32* %count, metadata !3097, metadata !DIExpression()), !dbg !3098, !dp.md.instr.id !3099
  %16 = ptrtoint i32* %count to i64
  store i32 0, i32* %count, align 4, !dbg !3098, !dp.md.instr.id !3100
  call void @llvm.dbg.declare(metadata i32* %v, metadata !3101, metadata !DIExpression()), !dbg !3103, !dp.md.instr.id !3104
  %17 = ptrtoint i32* %v to i64
  store i32 0, i32* %v, align 4, !dbg !3103, !dp.md.instr.id !3105
  call void @__dp_report_bb(i32 111)
  br label %for.cond, !dbg !3106, !dp.md.instr.id !3107

for.cond:                                         ; preds = %for.inc30, %entry
  call void @__dp_loop_entry(i32 32839, i32 8), !dp.md.instr.id !3108
  %18 = ptrtoint i32* %v to i64
  %19 = load i32, i32* %v, align 4, !dbg !3109, !dp.md.instr.id !3111
  %20 = ptrtoint i32* %nodes.addr to i64
  %21 = load i32, i32* %nodes.addr, align 4, !dbg !3112, !dp.md.instr.id !3113
  %cmp = icmp slt i32 %19, %21, !dbg !3114, !dp.md.instr.id !3115
  call void @__dp_report_bb(i32 113)
  %22 = load i32, i32* %__dp_bb, align 4
  call void @__dp_report_bb_pair(i32 %22, i32 127)
  br i1 %cmp, label %for.body, label %for.end32, !dbg !3116, !dp.md.instr.id !3117

for.body:                                         ; preds = %for.cond
  call void @__dp_loop_incr(i32 9)
  call void @llvm.dbg.declare(metadata i32* %beg1, metadata !3118, metadata !DIExpression()), !dbg !3120, !dp.md.instr.id !3121
  %23 = ptrtoint i32** %nindex.addr to i64
  %24 = load i32*, i32** %nindex.addr, align 8, !dbg !3122, !dp.md.instr.id !3123
  %25 = ptrtoint i32* %v to i64
  %26 = load i32, i32* %v, align 4, !dbg !3124, !dp.md.instr.id !3125
  %idxprom = sext i32 %26 to i64, !dbg !3122, !dp.md.instr.id !3126
  %arrayidx = getelementptr inbounds i32, i32* %24, i64 %idxprom, !dbg !3122, !dp.md.instr.id !3127
  %27 = ptrtoint i32* %arrayidx to i64
  call void @__dp_read(i32 1076, i64 %27, i8* getelementptr inbounds ([17 x i8], [17 x i8]* @.str.134, i32 0, i32 0))
  %28 = load i32, i32* %arrayidx, align 4, !dbg !3122, !dp.md.instr.id !3128
  %29 = ptrtoint i32* %beg1 to i64
  store i32 %28, i32* %beg1, align 4, !dbg !3120, !dp.md.instr.id !3129
  call void @llvm.dbg.declare(metadata i32* %end1, metadata !3130, metadata !DIExpression()), !dbg !3131, !dp.md.instr.id !3132
  %30 = ptrtoint i32** %nindex.addr to i64
  %31 = load i32*, i32** %nindex.addr, align 8, !dbg !3133, !dp.md.instr.id !3134
  %32 = ptrtoint i32* %v to i64
  %33 = load i32, i32* %v, align 4, !dbg !3135, !dp.md.instr.id !3136
  %add = add nsw i32 %33, 1, !dbg !3137, !dp.md.instr.id !3138
  %idxprom1 = sext i32 %add to i64, !dbg !3133, !dp.md.instr.id !3139
  %arrayidx2 = getelementptr inbounds i32, i32* %31, i64 %idxprom1, !dbg !3133, !dp.md.instr.id !3140
  %34 = ptrtoint i32* %arrayidx2 to i64
  call void @__dp_read(i32 1084, i64 %34, i8* getelementptr inbounds ([17 x i8], [17 x i8]* @.str.134, i32 0, i32 0))
  %35 = load i32, i32* %arrayidx2, align 4, !dbg !3133, !dp.md.instr.id !3141
  %36 = ptrtoint i32* %end1 to i64
  store i32 %35, i32* %end1, align 4, !dbg !3131, !dp.md.instr.id !3142
  call void @llvm.dbg.declare(metadata i32* %start1, metadata !3143, metadata !DIExpression()), !dbg !3144, !dp.md.instr.id !3145
  %37 = ptrtoint i32* %end1 to i64
  %38 = load i32, i32* %end1, align 4, !dbg !3146, !dp.md.instr.id !3147
  %39 = ptrtoint i32* %start1 to i64
  store i32 %38, i32* %start1, align 4, !dbg !3144, !dp.md.instr.id !3148
  call void @__dp_report_bb(i32 115)
  %40 = load i32, i32* %__dp_bb, align 4
  call void @__dp_report_bb_pair(i32 %40, i32 129)
  %41 = load i32, i32* %__dp_bb33, align 4
  call void @__dp_report_bb_pair(i32 %41, i32 131)
  %42 = load i32, i32* %__dp_bb34, align 4
  call void @__dp_report_bb_pair(i32 %42, i32 132)
  %43 = load i32, i32* %__dp_bb38, align 4
  call void @__dp_report_bb_pair(i32 %43, i32 141)
  br label %while.cond, !dbg !3149, !dp.md.instr.id !3150

while.cond:                                       ; preds = %while.body, %for.body
  call void @__dp_loop_entry(i32 32843, i32 9), !dp.md.instr.id !3151
  %44 = ptrtoint i32* %beg1 to i64
  %45 = load i32, i32* %beg1, align 4, !dbg !3152, !dp.md.instr.id !3153
  %46 = ptrtoint i32* %start1 to i64
  %47 = load i32, i32* %start1, align 4, !dbg !3154, !dp.md.instr.id !3155
  %cmp3 = icmp slt i32 %45, %47, !dbg !3156, !dp.md.instr.id !3157
  call void @__dp_report_bb(i32 116)
  store i32 1, i32* %__dp_bb33, align 4
  %48 = load i32, i32* %__dp_bb37, align 4
  call void @__dp_report_bb_pair(i32 %48, i32 137)
  br i1 %cmp3, label %land.rhs, label %land.end, !dbg !3158, !dp.md.instr.id !3159

land.rhs:                                         ; preds = %while.cond
  call void @__dp_loop_incr(i32 10)
  %49 = ptrtoint i32* %v to i64
  %50 = load i32, i32* %v, align 4, !dbg !3160, !dp.md.instr.id !3161
  %51 = ptrtoint i32** %nlist.addr to i64
  %52 = load i32*, i32** %nlist.addr, align 8, !dbg !3162, !dp.md.instr.id !3163
  %53 = ptrtoint i32* %start1 to i64
  %54 = load i32, i32* %start1, align 4, !dbg !3164, !dp.md.instr.id !3165
  %sub = sub nsw i32 %54, 1, !dbg !3166, !dp.md.instr.id !3167
  %idxprom4 = sext i32 %sub to i64, !dbg !3162, !dp.md.instr.id !3168
  %arrayidx5 = getelementptr inbounds i32, i32* %52, i64 %idxprom4, !dbg !3162, !dp.md.instr.id !3169
  %55 = ptrtoint i32* %arrayidx5 to i64
  call void @__dp_read(i32 1101, i64 %55, i8* getelementptr inbounds ([16 x i8], [16 x i8]* @.str.135, i32 0, i32 0))
  %56 = load i32, i32* %arrayidx5, align 4, !dbg !3162, !dp.md.instr.id !3170
  %cmp6 = icmp slt i32 %50, %56, !dbg !3171, !dp.md.instr.id !3172
  call void @__dp_report_bb(i32 118)
  %57 = load i32, i32* %__dp_bb, align 4
  call void @__dp_report_bb_pair(i32 %57, i32 130)
  %58 = load i32, i32* %__dp_bb37, align 4
  call void @__dp_report_bb_pair(i32 %58, i32 139)
  br label %land.end, !dp.md.instr.id !3173

land.end:                                         ; preds = %land.rhs, %while.cond
  %59 = phi i1 [ false, %while.cond ], [ %cmp6, %land.rhs ], !dbg !3174, !dp.md.instr.id !3175
  br i1 %59, label %while.body, label %while.end, !dbg !3149, !dp.md.instr.id !3176

while.body:                                       ; preds = %land.end
  %60 = ptrtoint i32* %start1 to i64
  %61 = load i32, i32* %start1, align 4, !dbg !3177, !dp.md.instr.id !3178
  %dec = add nsw i32 %61, -1, !dbg !3177, !dp.md.instr.id !3179
  %62 = ptrtoint i32* %start1 to i64
  store i32 %dec, i32* %start1, align 4, !dbg !3177, !dp.md.instr.id !3180
  call void @__dp_report_bb(i32 121)
  %63 = load i32, i32* %__dp_bb37, align 4
  call void @__dp_report_bb_pair(i32 %63, i32 140)
  store i32 1, i32* %__dp_bb37, align 4
  br label %while.cond, !dbg !3149, !llvm.loop !3181, !dp.md.instr.id !3182

while.end:                                        ; preds = %land.end
  call void @__dp_loop_exit(i32 32844, i32 9), !dp.md.instr.id !3183
  call void @llvm.dbg.declare(metadata i32* %j, metadata !3184, metadata !DIExpression()), !dbg !3186, !dp.md.instr.id !3187
  %64 = ptrtoint i32* %start1 to i64
  %65 = load i32, i32* %start1, align 4, !dbg !3188, !dp.md.instr.id !3189
  %66 = ptrtoint i32* %j to i64
  store i32 %65, i32* %j, align 4, !dbg !3186, !dp.md.instr.id !3190
  call void @__dp_report_bb(i32 117)
  store i32 1, i32* %__dp_bb34, align 4
  %67 = load i32, i32* %__dp_bb37, align 4
  call void @__dp_report_bb_pair(i32 %67, i32 138)
  %68 = load i32, i32* %__dp_bb38, align 4
  call void @__dp_report_bb_pair(i32 %68, i32 142)
  br label %for.cond7, !dbg !3191, !dp.md.instr.id !3192

for.cond7:                                        ; preds = %for.inc, %while.end
  call void @__dp_loop_entry(i32 32844, i32 10), !dp.md.instr.id !3193
  %69 = ptrtoint i32* %j to i64
  %70 = load i32, i32* %j, align 4, !dbg !3194, !dp.md.instr.id !3196
  %71 = ptrtoint i32* %end1 to i64
  %72 = load i32, i32* %end1, align 4, !dbg !3197, !dp.md.instr.id !3198
  %cmp8 = icmp slt i32 %70, %72, !dbg !3199, !dp.md.instr.id !3200
  call void @__dp_report_bb(i32 122)
  store i32 1, i32* %__dp_bb38, align 4
  %73 = load i32, i32* %__dp_bb39, align 4
  call void @__dp_report_bb_pair(i32 %73, i32 144)
  br i1 %cmp8, label %for.body9, label %for.end, !dbg !3201, !dp.md.instr.id !3202

for.body9:                                        ; preds = %for.cond7
  call void @__dp_loop_incr(i32 11)
  call void @llvm.dbg.declare(metadata i32* %u, metadata !3203, metadata !DIExpression()), !dbg !3205, !dp.md.instr.id !3206
  %74 = ptrtoint i32** %nlist.addr to i64
  %75 = load i32*, i32** %nlist.addr, align 8, !dbg !3207, !dp.md.instr.id !3208
  %76 = ptrtoint i32* %j to i64
  %77 = load i32, i32* %j, align 4, !dbg !3209, !dp.md.instr.id !3210
  %idxprom10 = sext i32 %77 to i64, !dbg !3207, !dp.md.instr.id !3211
  %arrayidx11 = getelementptr inbounds i32, i32* %75, i64 %idxprom10, !dbg !3207, !dp.md.instr.id !3212
  %78 = ptrtoint i32* %arrayidx11 to i64
  call void @__dp_read(i32 1125, i64 %78, i8* getelementptr inbounds ([16 x i8], [16 x i8]* @.str.135, i32 0, i32 0))
  %79 = load i32, i32* %arrayidx11, align 4, !dbg !3207, !dp.md.instr.id !3213
  %80 = ptrtoint i32* %u to i64
  store i32 %79, i32* %u, align 4, !dbg !3205, !dp.md.instr.id !3214
  call void @llvm.dbg.declare(metadata i32* %beg2, metadata !3215, metadata !DIExpression()), !dbg !3216, !dp.md.instr.id !3217
  %81 = ptrtoint i32** %nindex.addr to i64
  %82 = load i32*, i32** %nindex.addr, align 8, !dbg !3218, !dp.md.instr.id !3219
  %83 = ptrtoint i32* %u to i64
  %84 = load i32, i32* %u, align 4, !dbg !3220, !dp.md.instr.id !3221
  %idxprom12 = sext i32 %84 to i64, !dbg !3218, !dp.md.instr.id !3222
  %arrayidx13 = getelementptr inbounds i32, i32* %82, i64 %idxprom12, !dbg !3218, !dp.md.instr.id !3223
  %85 = ptrtoint i32* %arrayidx13 to i64
  call void @__dp_read(i32 1132, i64 %85, i8* getelementptr inbounds ([17 x i8], [17 x i8]* @.str.134, i32 0, i32 0))
  %86 = load i32, i32* %arrayidx13, align 4, !dbg !3218, !dp.md.instr.id !3224
  %87 = ptrtoint i32* %beg2 to i64
  store i32 %86, i32* %beg2, align 4, !dbg !3216, !dp.md.instr.id !3225
  call void @llvm.dbg.declare(metadata i32* %end2, metadata !3226, metadata !DIExpression()), !dbg !3227, !dp.md.instr.id !3228
  %88 = ptrtoint i32** %nindex.addr to i64
  %89 = load i32*, i32** %nindex.addr, align 8, !dbg !3229, !dp.md.instr.id !3230
  %90 = ptrtoint i32* %u to i64
  %91 = load i32, i32* %u, align 4, !dbg !3231, !dp.md.instr.id !3232
  %add14 = add nsw i32 %91, 1, !dbg !3233, !dp.md.instr.id !3234
  %idxprom15 = sext i32 %add14 to i64, !dbg !3229, !dp.md.instr.id !3235
  %arrayidx16 = getelementptr inbounds i32, i32* %89, i64 %idxprom15, !dbg !3229, !dp.md.instr.id !3236
  %92 = ptrtoint i32* %arrayidx16 to i64
  call void @__dp_read(i32 1140, i64 %92, i8* getelementptr inbounds ([17 x i8], [17 x i8]* @.str.134, i32 0, i32 0))
  %93 = load i32, i32* %arrayidx16, align 4, !dbg !3229, !dp.md.instr.id !3237
  %94 = ptrtoint i32* %end2 to i64
  store i32 %93, i32* %end2, align 4, !dbg !3227, !dp.md.instr.id !3238
  call void @llvm.dbg.declare(metadata i32* %start2, metadata !3239, metadata !DIExpression()), !dbg !3240, !dp.md.instr.id !3241
  %95 = ptrtoint i32* %end2 to i64
  %96 = load i32, i32* %end2, align 4, !dbg !3242, !dp.md.instr.id !3243
  %97 = ptrtoint i32* %start2 to i64
  store i32 %96, i32* %start2, align 4, !dbg !3240, !dp.md.instr.id !3244
  call void @__dp_report_bb(i32 124)
  %98 = load i32, i32* %__dp_bb35, align 4
  call void @__dp_report_bb_pair(i32 %98, i32 135)
  %99 = load i32, i32* %__dp_bb36, align 4
  call void @__dp_report_bb_pair(i32 %99, i32 136)
  %100 = load i32, i32* %__dp_bb39, align 4
  call void @__dp_report_bb_pair(i32 %100, i32 146)
  %101 = load i32, i32* %__dp_bb40, align 4
  call void @__dp_report_bb_pair(i32 %101, i32 147)
  store i32 1, i32* %__dp_bb40, align 4
  %102 = load i32, i32* %__dp_bb41, align 4
  call void @__dp_report_bb_pair(i32 %102, i32 148)
  br label %while.cond17, !dbg !3245, !dp.md.instr.id !3246

while.cond17:                                     ; preds = %while.body25, %for.body9
  call void @__dp_loop_entry(i32 32849, i32 11), !dp.md.instr.id !3247
  %103 = ptrtoint i32* %beg2 to i64
  %104 = load i32, i32* %beg2, align 4, !dbg !3248, !dp.md.instr.id !3249
  %105 = ptrtoint i32* %start2 to i64
  %106 = load i32, i32* %start2, align 4, !dbg !3250, !dp.md.instr.id !3251
  %cmp18 = icmp slt i32 %104, %106, !dbg !3252, !dp.md.instr.id !3253
  call void @__dp_report_bb(i32 125)
  store i32 1, i32* %__dp_bb41, align 4
  %107 = load i32, i32* %__dp_bb42, align 4
  call void @__dp_report_bb_pair(i32 %107, i32 151)
  br i1 %cmp18, label %land.rhs19, label %land.end24, !dbg !3254, !dp.md.instr.id !3255

land.rhs19:                                       ; preds = %while.cond17
  call void @__dp_loop_incr(i32 12)
  %108 = ptrtoint i32* %u to i64
  %109 = load i32, i32* %u, align 4, !dbg !3256, !dp.md.instr.id !3257
  %110 = ptrtoint i32** %nlist.addr to i64
  %111 = load i32*, i32** %nlist.addr, align 8, !dbg !3258, !dp.md.instr.id !3259
  %112 = ptrtoint i32* %start2 to i64
  %113 = load i32, i32* %start2, align 4, !dbg !3260, !dp.md.instr.id !3261
  %sub20 = sub nsw i32 %113, 1, !dbg !3262, !dp.md.instr.id !3263
  %idxprom21 = sext i32 %sub20 to i64, !dbg !3258, !dp.md.instr.id !3264
  %arrayidx22 = getelementptr inbounds i32, i32* %111, i64 %idxprom21, !dbg !3258, !dp.md.instr.id !3265
  %114 = ptrtoint i32* %arrayidx22 to i64
  call void @__dp_read(i32 1157, i64 %114, i8* getelementptr inbounds ([16 x i8], [16 x i8]* @.str.135, i32 0, i32 0))
  %115 = load i32, i32* %arrayidx22, align 4, !dbg !3258, !dp.md.instr.id !3266
  %cmp23 = icmp slt i32 %109, %115, !dbg !3267, !dp.md.instr.id !3268
  call void @__dp_report_bb(i32 120)
  store i32 1, i32* %__dp_bb36, align 4
  %116 = load i32, i32* %__dp_bb42, align 4
  call void @__dp_report_bb_pair(i32 %116, i32 150)
  br label %land.end24, !dp.md.instr.id !3269

land.end24:                                       ; preds = %land.rhs19, %while.cond17
  %117 = phi i1 [ false, %while.cond17 ], [ %cmp23, %land.rhs19 ], !dbg !3270, !dp.md.instr.id !3271
  br i1 %117, label %while.body25, label %while.end27, !dbg !3245, !dp.md.instr.id !3272

while.body25:                                     ; preds = %land.end24
  %118 = ptrtoint i32* %start2 to i64
  %119 = load i32, i32* %start2, align 4, !dbg !3273, !dp.md.instr.id !3274
  %dec26 = add nsw i32 %119, -1, !dbg !3273, !dp.md.instr.id !3275
  %120 = ptrtoint i32* %start2 to i64
  store i32 %dec26, i32* %start2, align 4, !dbg !3273, !dp.md.instr.id !3276
  call void @__dp_report_bb(i32 126)
  %121 = load i32, i32* %__dp_bb42, align 4
  call void @__dp_report_bb_pair(i32 %121, i32 152)
  store i32 1, i32* %__dp_bb42, align 4
  br label %while.cond17, !dbg !3245, !llvm.loop !3277, !dp.md.instr.id !3278

while.end27:                                      ; preds = %land.end24
  call void @__dp_loop_exit(i32 32850, i32 11), !dp.md.instr.id !3279
  %122 = ptrtoint i32* %j to i64
  %123 = load i32, i32* %j, align 4, !dbg !3280, !dp.md.instr.id !3281
  %add28 = add nsw i32 %123, 1, !dbg !3282, !dp.md.instr.id !3283
  %124 = ptrtoint i32* %end1 to i64
  %125 = load i32, i32* %end1, align 4, !dbg !3284, !dp.md.instr.id !3285
  %126 = ptrtoint i32* %start2 to i64
  %127 = load i32, i32* %start2, align 4, !dbg !3286, !dp.md.instr.id !3287
  %128 = ptrtoint i32* %end2 to i64
  %129 = load i32, i32* %end2, align 4, !dbg !3288, !dp.md.instr.id !3289
  %130 = ptrtoint i32** %nlist.addr to i64
  %131 = load i32*, i32** %nlist.addr, align 8, !dbg !3290, !dp.md.instr.id !3291
  call void @__dp_call(i32 32850), !dbg !3292
  %call = call i32 @_ZL8h_commoniiiiPKi(i32 %add28, i32 %125, i32 %127, i32 %129, i32* %131), !dbg !3292, !dp.md.instr.id !3293
  %132 = ptrtoint i32* %count to i64
  %133 = load i32, i32* %count, align 4, !dbg !3294, !dp.md.instr.id !3295
  %add29 = add nsw i32 %133, %call, !dbg !3294, !dp.md.instr.id !3296
  %134 = ptrtoint i32* %count to i64
  store i32 %add29, i32* %count, align 4, !dbg !3294, !dp.md.instr.id !3297
  call void @__dp_report_bb(i32 119)
  %135 = load i32, i32* %__dp_bb35, align 4
  call void @__dp_report_bb_pair(i32 %135, i32 134)
  store i32 1, i32* %__dp_bb35, align 4
  %136 = load i32, i32* %__dp_bb39, align 4
  call void @__dp_report_bb_pair(i32 %136, i32 143)
  %137 = load i32, i32* %__dp_bb42, align 4
  call void @__dp_report_bb_pair(i32 %137, i32 149)
  br label %for.inc, !dbg !3298, !dp.md.instr.id !3299

for.inc:                                          ; preds = %while.end27
  %138 = ptrtoint i32* %j to i64
  %139 = load i32, i32* %j, align 4, !dbg !3300, !dp.md.instr.id !3301
  %inc = add nsw i32 %139, 1, !dbg !3300, !dp.md.instr.id !3302
  %140 = ptrtoint i32* %j to i64
  store i32 %inc, i32* %j, align 4, !dbg !3300, !dp.md.instr.id !3303
  call void @__dp_report_bb(i32 123)
  %141 = load i32, i32* %__dp_bb39, align 4
  call void @__dp_report_bb_pair(i32 %141, i32 145)
  store i32 1, i32* %__dp_bb39, align 4
  br label %for.cond7, !dbg !3304, !llvm.loop !3305, !dp.md.instr.id !3307

for.end:                                          ; preds = %for.cond7
  call void @__dp_loop_exit(i32 32852, i32 10), !dp.md.instr.id !3308
  br label %for.inc30, !dbg !3309, !dp.md.instr.id !3310

for.inc30:                                        ; preds = %for.end
  %142 = ptrtoint i32* %v to i64
  %143 = load i32, i32* %v, align 4, !dbg !3311, !dp.md.instr.id !3312
  %inc31 = add nsw i32 %143, 1, !dbg !3311, !dp.md.instr.id !3313
  %144 = ptrtoint i32* %v to i64
  store i32 %inc31, i32* %v, align 4, !dbg !3311, !dp.md.instr.id !3314
  call void @__dp_report_bb(i32 114)
  %145 = load i32, i32* %__dp_bb, align 4
  call void @__dp_report_bb_pair(i32 %145, i32 128)
  store i32 1, i32* %__dp_bb, align 4
  br label %for.cond, !dbg !3315, !llvm.loop !3316, !dp.md.instr.id !3318

for.end32:                                        ; preds = %for.cond
  call void @__dp_loop_exit(i32 32853, i32 8), !dp.md.instr.id !3319
  %146 = ptrtoint i32* %count to i64
  %147 = load i32, i32* %count, align 4, !dbg !3320, !dp.md.instr.id !3321
  call void @__dp_report_bb(i32 112)
  %148 = load i32, i32* %__dp_bb35, align 4
  call void @__dp_report_bb_pair(i32 %148, i32 133)
  call void @__dp_func_exit(i32 32853, i32 0), !dbg !3322
  ret i32 %147, !dbg !3322, !dp.md.instr.id !3323
}

; Function Attrs: noinline optnone uwtable
define linkonce_odr void @_ZSt4sortIPdEvT_S1_(double* %__first, double* %__last) #0 comdat !dbg !3324 {
entry:
  %__first.addr = alloca double*, align 8
  %__last.addr = alloca double*, align 8
  %agg.tmp = alloca %"struct.__gnu_cxx::__ops::_Iter_less_iter", align 1
  %undef.agg.tmp = alloca %"struct.__gnu_cxx::__ops::_Iter_less_iter", align 1
  store double* %__first, double** %__first.addr, align 8
  call void @llvm.dbg.declare(metadata double** %__first.addr, metadata !3328, metadata !DIExpression()), !dbg !3329
  store double* %__last, double** %__last.addr, align 8
  call void @llvm.dbg.declare(metadata double** %__last.addr, metadata !3330, metadata !DIExpression()), !dbg !3331
  %0 = load double*, double** %__first.addr, align 8, !dbg !3332
  %1 = load double*, double** %__last.addr, align 8, !dbg !3333
  call void @_ZN9__gnu_cxx5__ops16__iter_less_iterEv(), !dbg !3334
  call void @_ZSt6__sortIPdN9__gnu_cxx5__ops15_Iter_less_iterEEvT_S4_T0_(double* %0, double* %1), !dbg !3335
  ret void, !dbg !3336
}

; Function Attrs: noinline optnone uwtable
define linkonce_odr void @_ZSt6__sortIPdN9__gnu_cxx5__ops15_Iter_less_iterEEvT_S4_T0_(double* %__first, double* %__last) #0 comdat !dbg !3337 {
entry:
  %__comp = alloca %"struct.__gnu_cxx::__ops::_Iter_less_iter", align 1
  %__first.addr = alloca double*, align 8
  %__last.addr = alloca double*, align 8
  %agg.tmp = alloca %"struct.__gnu_cxx::__ops::_Iter_less_iter", align 1
  %agg.tmp1 = alloca %"struct.__gnu_cxx::__ops::_Iter_less_iter", align 1
  store double* %__first, double** %__first.addr, align 8
  call void @llvm.dbg.declare(metadata double** %__first.addr, metadata !3340, metadata !DIExpression()), !dbg !3341
  store double* %__last, double** %__last.addr, align 8
  call void @llvm.dbg.declare(metadata double** %__last.addr, metadata !3342, metadata !DIExpression()), !dbg !3343
  call void @llvm.dbg.declare(metadata %"struct.__gnu_cxx::__ops::_Iter_less_iter"* %__comp, metadata !3344, metadata !DIExpression()), !dbg !3345
  %0 = load double*, double** %__first.addr, align 8, !dbg !3346
  %1 = load double*, double** %__last.addr, align 8, !dbg !3348
  %cmp = icmp ne double* %0, %1, !dbg !3349
  br i1 %cmp, label %if.then, label %if.end, !dbg !3350

if.then:                                          ; preds = %entry
  %2 = load double*, double** %__first.addr, align 8, !dbg !3351
  %3 = load double*, double** %__last.addr, align 8, !dbg !3353
  %4 = load double*, double** %__last.addr, align 8, !dbg !3354
  %5 = load double*, double** %__first.addr, align 8, !dbg !3355
  %sub.ptr.lhs.cast = ptrtoint double* %4 to i64, !dbg !3356
  %sub.ptr.rhs.cast = ptrtoint double* %5 to i64, !dbg !3356
  %sub.ptr.sub = sub i64 %sub.ptr.lhs.cast, %sub.ptr.rhs.cast, !dbg !3356
  %sub.ptr.div = sdiv exact i64 %sub.ptr.sub, 8, !dbg !3356
  %call = call i64 @_ZSt4__lgl(i64 %sub.ptr.div), !dbg !3357
  %mul = mul nsw i64 %call, 2, !dbg !3358
  call void @_ZSt16__introsort_loopIPdlN9__gnu_cxx5__ops15_Iter_less_iterEEvT_S4_T0_T1_(double* %2, double* %3, i64 %mul), !dbg !3359
  %6 = load double*, double** %__first.addr, align 8, !dbg !3360
  %7 = load double*, double** %__last.addr, align 8, !dbg !3361
  call void @_ZSt22__final_insertion_sortIPdN9__gnu_cxx5__ops15_Iter_less_iterEEvT_S4_T0_(double* %6, double* %7), !dbg !3362
  br label %if.end, !dbg !3363

if.end:                                           ; preds = %if.then, %entry
  ret void, !dbg !3364
}

; Function Attrs: noinline nounwind optnone uwtable
define linkonce_odr void @_ZN9__gnu_cxx5__ops16__iter_less_iterEv() #5 comdat !dbg !3365 {
entry:
  ret void, !dbg !3368
}

; Function Attrs: noinline optnone uwtable
define linkonce_odr void @_ZSt16__introsort_loopIPdlN9__gnu_cxx5__ops15_Iter_less_iterEEvT_S4_T0_T1_(double* %__first, double* %__last, i64 %__depth_limit) #0 comdat !dbg !3369 {
entry:
  %__comp = alloca %"struct.__gnu_cxx::__ops::_Iter_less_iter", align 1
  %__first.addr = alloca double*, align 8
  %__last.addr = alloca double*, align 8
  %__depth_limit.addr = alloca i64, align 8
  %agg.tmp = alloca %"struct.__gnu_cxx::__ops::_Iter_less_iter", align 1
  %__cut = alloca double*, align 8
  %agg.tmp2 = alloca %"struct.__gnu_cxx::__ops::_Iter_less_iter", align 1
  %agg.tmp3 = alloca %"struct.__gnu_cxx::__ops::_Iter_less_iter", align 1
  store double* %__first, double** %__first.addr, align 8
  call void @llvm.dbg.declare(metadata double** %__first.addr, metadata !3374, metadata !DIExpression()), !dbg !3375
  store double* %__last, double** %__last.addr, align 8
  call void @llvm.dbg.declare(metadata double** %__last.addr, metadata !3376, metadata !DIExpression()), !dbg !3377
  store i64 %__depth_limit, i64* %__depth_limit.addr, align 8
  call void @llvm.dbg.declare(metadata i64* %__depth_limit.addr, metadata !3378, metadata !DIExpression()), !dbg !3379
  call void @llvm.dbg.declare(metadata %"struct.__gnu_cxx::__ops::_Iter_less_iter"* %__comp, metadata !3380, metadata !DIExpression()), !dbg !3381
  br label %while.cond, !dbg !3382

while.cond:                                       ; preds = %if.end, %entry
  %0 = load double*, double** %__last.addr, align 8, !dbg !3383
  %1 = load double*, double** %__first.addr, align 8, !dbg !3384
  %sub.ptr.lhs.cast = ptrtoint double* %0 to i64, !dbg !3385
  %sub.ptr.rhs.cast = ptrtoint double* %1 to i64, !dbg !3385
  %sub.ptr.sub = sub i64 %sub.ptr.lhs.cast, %sub.ptr.rhs.cast, !dbg !3385
  %sub.ptr.div = sdiv exact i64 %sub.ptr.sub, 8, !dbg !3385
  %cmp = icmp sgt i64 %sub.ptr.div, 16, !dbg !3386
  br i1 %cmp, label %while.body, label %while.end, !dbg !3382

while.body:                                       ; preds = %while.cond
  %2 = load i64, i64* %__depth_limit.addr, align 8, !dbg !3387
  %cmp1 = icmp eq i64 %2, 0, !dbg !3390
  br i1 %cmp1, label %if.then, label %if.end, !dbg !3391

if.then:                                          ; preds = %while.body
  %3 = load double*, double** %__first.addr, align 8, !dbg !3392
  %4 = load double*, double** %__last.addr, align 8, !dbg !3394
  %5 = load double*, double** %__last.addr, align 8, !dbg !3395
  call void @_ZSt14__partial_sortIPdN9__gnu_cxx5__ops15_Iter_less_iterEEvT_S4_S4_T0_(double* %3, double* %4, double* %5), !dbg !3396
  br label %while.end, !dbg !3397

if.end:                                           ; preds = %while.body
  %6 = load i64, i64* %__depth_limit.addr, align 8, !dbg !3398
  %dec = add nsw i64 %6, -1, !dbg !3398
  store i64 %dec, i64* %__depth_limit.addr, align 8, !dbg !3398
  call void @llvm.dbg.declare(metadata double** %__cut, metadata !3399, metadata !DIExpression()), !dbg !3400
  %7 = load double*, double** %__first.addr, align 8, !dbg !3401
  %8 = load double*, double** %__last.addr, align 8, !dbg !3402
  %call = call double* @_ZSt27__unguarded_partition_pivotIPdN9__gnu_cxx5__ops15_Iter_less_iterEET_S4_S4_T0_(double* %7, double* %8), !dbg !3403
  store double* %call, double** %__cut, align 8, !dbg !3400
  %9 = load double*, double** %__cut, align 8, !dbg !3404
  %10 = load double*, double** %__last.addr, align 8, !dbg !3405
  %11 = load i64, i64* %__depth_limit.addr, align 8, !dbg !3406
  call void @_ZSt16__introsort_loopIPdlN9__gnu_cxx5__ops15_Iter_less_iterEEvT_S4_T0_T1_(double* %9, double* %10, i64 %11), !dbg !3407
  %12 = load double*, double** %__cut, align 8, !dbg !3408
  store double* %12, double** %__last.addr, align 8, !dbg !3409
  br label %while.cond, !dbg !3382, !llvm.loop !3410

while.end:                                        ; preds = %if.then, %while.cond
  ret void, !dbg !3412
}

; Function Attrs: noinline nounwind optnone uwtable
define linkonce_odr i64 @_ZSt4__lgl(i64 %__n) #5 comdat !dbg !3413 {
entry:
  %__n.addr = alloca i64, align 8
  store i64 %__n, i64* %__n.addr, align 8
  call void @llvm.dbg.declare(metadata i64* %__n.addr, metadata !3414, metadata !DIExpression()), !dbg !3415
  %0 = load i64, i64* %__n.addr, align 8, !dbg !3416
  %1 = call i64 @llvm.ctlz.i64(i64 %0, i1 true), !dbg !3417
  %cast = trunc i64 %1 to i32, !dbg !3417
  %sub = sub nsw i32 63, %cast, !dbg !3418
  %conv = sext i32 %sub to i64, !dbg !3419
  ret i64 %conv, !dbg !3420
}

; Function Attrs: noinline optnone uwtable
define linkonce_odr void @_ZSt22__final_insertion_sortIPdN9__gnu_cxx5__ops15_Iter_less_iterEEvT_S4_T0_(double* %__first, double* %__last) #0 comdat !dbg !3421 {
entry:
  %__comp = alloca %"struct.__gnu_cxx::__ops::_Iter_less_iter", align 1
  %__first.addr = alloca double*, align 8
  %__last.addr = alloca double*, align 8
  %agg.tmp = alloca %"struct.__gnu_cxx::__ops::_Iter_less_iter", align 1
  %agg.tmp2 = alloca %"struct.__gnu_cxx::__ops::_Iter_less_iter", align 1
  %agg.tmp3 = alloca %"struct.__gnu_cxx::__ops::_Iter_less_iter", align 1
  store double* %__first, double** %__first.addr, align 8
  call void @llvm.dbg.declare(metadata double** %__first.addr, metadata !3422, metadata !DIExpression()), !dbg !3423
  store double* %__last, double** %__last.addr, align 8
  call void @llvm.dbg.declare(metadata double** %__last.addr, metadata !3424, metadata !DIExpression()), !dbg !3425
  call void @llvm.dbg.declare(metadata %"struct.__gnu_cxx::__ops::_Iter_less_iter"* %__comp, metadata !3426, metadata !DIExpression()), !dbg !3427
  %0 = load double*, double** %__last.addr, align 8, !dbg !3428
  %1 = load double*, double** %__first.addr, align 8, !dbg !3430
  %sub.ptr.lhs.cast = ptrtoint double* %0 to i64, !dbg !3431
  %sub.ptr.rhs.cast = ptrtoint double* %1 to i64, !dbg !3431
  %sub.ptr.sub = sub i64 %sub.ptr.lhs.cast, %sub.ptr.rhs.cast, !dbg !3431
  %sub.ptr.div = sdiv exact i64 %sub.ptr.sub, 8, !dbg !3431
  %cmp = icmp sgt i64 %sub.ptr.div, 16, !dbg !3432
  br i1 %cmp, label %if.then, label %if.else, !dbg !3433

if.then:                                          ; preds = %entry
  %2 = load double*, double** %__first.addr, align 8, !dbg !3434
  %3 = load double*, double** %__first.addr, align 8, !dbg !3436
  %add.ptr = getelementptr inbounds double, double* %3, i64 16, !dbg !3437
  call void @_ZSt16__insertion_sortIPdN9__gnu_cxx5__ops15_Iter_less_iterEEvT_S4_T0_(double* %2, double* %add.ptr), !dbg !3438
  %4 = load double*, double** %__first.addr, align 8, !dbg !3439
  %add.ptr1 = getelementptr inbounds double, double* %4, i64 16, !dbg !3440
  %5 = load double*, double** %__last.addr, align 8, !dbg !3441
  call void @_ZSt26__unguarded_insertion_sortIPdN9__gnu_cxx5__ops15_Iter_less_iterEEvT_S4_T0_(double* %add.ptr1, double* %5), !dbg !3442
  br label %if.end, !dbg !3443

if.else:                                          ; preds = %entry
  %6 = load double*, double** %__first.addr, align 8, !dbg !3444
  %7 = load double*, double** %__last.addr, align 8, !dbg !3445
  call void @_ZSt16__insertion_sortIPdN9__gnu_cxx5__ops15_Iter_less_iterEEvT_S4_T0_(double* %6, double* %7), !dbg !3446
  br label %if.end

if.end:                                           ; preds = %if.else, %if.then
  ret void, !dbg !3447
}

; Function Attrs: noinline optnone uwtable
define linkonce_odr void @_ZSt14__partial_sortIPdN9__gnu_cxx5__ops15_Iter_less_iterEEvT_S4_S4_T0_(double* %__first, double* %__middle, double* %__last) #0 comdat !dbg !3448 {
entry:
  %__comp = alloca %"struct.__gnu_cxx::__ops::_Iter_less_iter", align 1
  %__first.addr = alloca double*, align 8
  %__middle.addr = alloca double*, align 8
  %__last.addr = alloca double*, align 8
  %agg.tmp = alloca %"struct.__gnu_cxx::__ops::_Iter_less_iter", align 1
  store double* %__first, double** %__first.addr, align 8
  call void @llvm.dbg.declare(metadata double** %__first.addr, metadata !3451, metadata !DIExpression()), !dbg !3452
  store double* %__middle, double** %__middle.addr, align 8
  call void @llvm.dbg.declare(metadata double** %__middle.addr, metadata !3453, metadata !DIExpression()), !dbg !3454
  store double* %__last, double** %__last.addr, align 8
  call void @llvm.dbg.declare(metadata double** %__last.addr, metadata !3455, metadata !DIExpression()), !dbg !3456
  call void @llvm.dbg.declare(metadata %"struct.__gnu_cxx::__ops::_Iter_less_iter"* %__comp, metadata !3457, metadata !DIExpression()), !dbg !3458
  %0 = load double*, double** %__first.addr, align 8, !dbg !3459
  %1 = load double*, double** %__middle.addr, align 8, !dbg !3460
  %2 = load double*, double** %__last.addr, align 8, !dbg !3461
  call void @_ZSt13__heap_selectIPdN9__gnu_cxx5__ops15_Iter_less_iterEEvT_S4_S4_T0_(double* %0, double* %1, double* %2), !dbg !3462
  %3 = load double*, double** %__first.addr, align 8, !dbg !3463
  %4 = load double*, double** %__middle.addr, align 8, !dbg !3464
  call void @_ZSt11__sort_heapIPdN9__gnu_cxx5__ops15_Iter_less_iterEEvT_S4_RT0_(double* %3, double* %4, %"struct.__gnu_cxx::__ops::_Iter_less_iter"* nonnull align 1 dereferenceable(1) %__comp), !dbg !3465
  ret void, !dbg !3466
}

; Function Attrs: noinline optnone uwtable
define linkonce_odr double* @_ZSt27__unguarded_partition_pivotIPdN9__gnu_cxx5__ops15_Iter_less_iterEET_S4_S4_T0_(double* %__first, double* %__last) #0 comdat !dbg !3467 {
entry:
  %__comp = alloca %"struct.__gnu_cxx::__ops::_Iter_less_iter", align 1
  %__first.addr = alloca double*, align 8
  %__last.addr = alloca double*, align 8
  %__mid = alloca double*, align 8
  %agg.tmp = alloca %"struct.__gnu_cxx::__ops::_Iter_less_iter", align 1
  %agg.tmp4 = alloca %"struct.__gnu_cxx::__ops::_Iter_less_iter", align 1
  store double* %__first, double** %__first.addr, align 8
  call void @llvm.dbg.declare(metadata double** %__first.addr, metadata !3470, metadata !DIExpression()), !dbg !3471
  store double* %__last, double** %__last.addr, align 8
  call void @llvm.dbg.declare(metadata double** %__last.addr, metadata !3472, metadata !DIExpression()), !dbg !3473
  call void @llvm.dbg.declare(metadata %"struct.__gnu_cxx::__ops::_Iter_less_iter"* %__comp, metadata !3474, metadata !DIExpression()), !dbg !3475
  call void @llvm.dbg.declare(metadata double** %__mid, metadata !3476, metadata !DIExpression()), !dbg !3477
  %0 = load double*, double** %__first.addr, align 8, !dbg !3478
  %1 = load double*, double** %__last.addr, align 8, !dbg !3479
  %2 = load double*, double** %__first.addr, align 8, !dbg !3480
  %sub.ptr.lhs.cast = ptrtoint double* %1 to i64, !dbg !3481
  %sub.ptr.rhs.cast = ptrtoint double* %2 to i64, !dbg !3481
  %sub.ptr.sub = sub i64 %sub.ptr.lhs.cast, %sub.ptr.rhs.cast, !dbg !3481
  %sub.ptr.div = sdiv exact i64 %sub.ptr.sub, 8, !dbg !3481
  %div = sdiv i64 %sub.ptr.div, 2, !dbg !3482
  %add.ptr = getelementptr inbounds double, double* %0, i64 %div, !dbg !3483
  store double* %add.ptr, double** %__mid, align 8, !dbg !3477
  %3 = load double*, double** %__first.addr, align 8, !dbg !3484
  %4 = load double*, double** %__first.addr, align 8, !dbg !3485
  %add.ptr1 = getelementptr inbounds double, double* %4, i64 1, !dbg !3486
  %5 = load double*, double** %__mid, align 8, !dbg !3487
  %6 = load double*, double** %__last.addr, align 8, !dbg !3488
  %add.ptr2 = getelementptr inbounds double, double* %6, i64 -1, !dbg !3489
  call void @_ZSt22__move_median_to_firstIPdN9__gnu_cxx5__ops15_Iter_less_iterEEvT_S4_S4_S4_T0_(double* %3, double* %add.ptr1, double* %5, double* %add.ptr2), !dbg !3490
  %7 = load double*, double** %__first.addr, align 8, !dbg !3491
  %add.ptr3 = getelementptr inbounds double, double* %7, i64 1, !dbg !3492
  %8 = load double*, double** %__last.addr, align 8, !dbg !3493
  %9 = load double*, double** %__first.addr, align 8, !dbg !3494
  %call = call double* @_ZSt21__unguarded_partitionIPdN9__gnu_cxx5__ops15_Iter_less_iterEET_S4_S4_S4_T0_(double* %add.ptr3, double* %8, double* %9), !dbg !3495
  ret double* %call, !dbg !3496
}

; Function Attrs: noinline optnone uwtable
define linkonce_odr void @_ZSt13__heap_selectIPdN9__gnu_cxx5__ops15_Iter_less_iterEEvT_S4_S4_T0_(double* %__first, double* %__middle, double* %__last) #0 comdat !dbg !3497 {
entry:
  %__comp = alloca %"struct.__gnu_cxx::__ops::_Iter_less_iter", align 1
  %__first.addr = alloca double*, align 8
  %__middle.addr = alloca double*, align 8
  %__last.addr = alloca double*, align 8
  %__i = alloca double*, align 8
  store double* %__first, double** %__first.addr, align 8
  call void @llvm.dbg.declare(metadata double** %__first.addr, metadata !3498, metadata !DIExpression()), !dbg !3499
  store double* %__middle, double** %__middle.addr, align 8
  call void @llvm.dbg.declare(metadata double** %__middle.addr, metadata !3500, metadata !DIExpression()), !dbg !3501
  store double* %__last, double** %__last.addr, align 8
  call void @llvm.dbg.declare(metadata double** %__last.addr, metadata !3502, metadata !DIExpression()), !dbg !3503
  call void @llvm.dbg.declare(metadata %"struct.__gnu_cxx::__ops::_Iter_less_iter"* %__comp, metadata !3504, metadata !DIExpression()), !dbg !3505
  %0 = load double*, double** %__first.addr, align 8, !dbg !3506
  %1 = load double*, double** %__middle.addr, align 8, !dbg !3507
  call void @_ZSt11__make_heapIPdN9__gnu_cxx5__ops15_Iter_less_iterEEvT_S4_RT0_(double* %0, double* %1, %"struct.__gnu_cxx::__ops::_Iter_less_iter"* nonnull align 1 dereferenceable(1) %__comp), !dbg !3508
  call void @llvm.dbg.declare(metadata double** %__i, metadata !3509, metadata !DIExpression()), !dbg !3511
  %2 = load double*, double** %__middle.addr, align 8, !dbg !3512
  store double* %2, double** %__i, align 8, !dbg !3511
  br label %for.cond, !dbg !3513

for.cond:                                         ; preds = %for.inc, %entry
  %3 = load double*, double** %__i, align 8, !dbg !3514
  %4 = load double*, double** %__last.addr, align 8, !dbg !3516
  %cmp = icmp ult double* %3, %4, !dbg !3517
  br i1 %cmp, label %for.body, label %for.end, !dbg !3518

for.body:                                         ; preds = %for.cond
  %5 = load double*, double** %__i, align 8, !dbg !3519
  %6 = load double*, double** %__first.addr, align 8, !dbg !3521
  %call = call zeroext i1 @_ZNK9__gnu_cxx5__ops15_Iter_less_iterclIPdS3_EEbT_T0_(%"struct.__gnu_cxx::__ops::_Iter_less_iter"* %__comp, double* %5, double* %6), !dbg !3522
  br i1 %call, label %if.then, label %if.end, !dbg !3523

if.then:                                          ; preds = %for.body
  %7 = load double*, double** %__first.addr, align 8, !dbg !3524
  %8 = load double*, double** %__middle.addr, align 8, !dbg !3525
  %9 = load double*, double** %__i, align 8, !dbg !3526
  call void @_ZSt10__pop_heapIPdN9__gnu_cxx5__ops15_Iter_less_iterEEvT_S4_S4_RT0_(double* %7, double* %8, double* %9, %"struct.__gnu_cxx::__ops::_Iter_less_iter"* nonnull align 1 dereferenceable(1) %__comp), !dbg !3527
  br label %if.end, !dbg !3527

if.end:                                           ; preds = %if.then, %for.body
  br label %for.inc, !dbg !3528

for.inc:                                          ; preds = %if.end
  %10 = load double*, double** %__i, align 8, !dbg !3529
  %incdec.ptr = getelementptr inbounds double, double* %10, i32 1, !dbg !3529
  store double* %incdec.ptr, double** %__i, align 8, !dbg !3529
  br label %for.cond, !dbg !3530, !llvm.loop !3531

for.end:                                          ; preds = %for.cond
  ret void, !dbg !3533
}

; Function Attrs: noinline optnone uwtable
define linkonce_odr void @_ZSt11__sort_heapIPdN9__gnu_cxx5__ops15_Iter_less_iterEEvT_S4_RT0_(double* %__first, double* %__last, %"struct.__gnu_cxx::__ops::_Iter_less_iter"* nonnull align 1 dereferenceable(1) %__comp) #0 comdat !dbg !3534 {
entry:
  %__first.addr = alloca double*, align 8
  %__last.addr = alloca double*, align 8
  %__comp.addr = alloca %"struct.__gnu_cxx::__ops::_Iter_less_iter"*, align 8
  store double* %__first, double** %__first.addr, align 8
  call void @llvm.dbg.declare(metadata double** %__first.addr, metadata !3537, metadata !DIExpression()), !dbg !3538
  store double* %__last, double** %__last.addr, align 8
  call void @llvm.dbg.declare(metadata double** %__last.addr, metadata !3539, metadata !DIExpression()), !dbg !3540
  store %"struct.__gnu_cxx::__ops::_Iter_less_iter"* %__comp, %"struct.__gnu_cxx::__ops::_Iter_less_iter"** %__comp.addr, align 8
  call void @llvm.dbg.declare(metadata %"struct.__gnu_cxx::__ops::_Iter_less_iter"** %__comp.addr, metadata !3541, metadata !DIExpression()), !dbg !3542
  br label %while.cond, !dbg !3543

while.cond:                                       ; preds = %while.body, %entry
  %0 = load double*, double** %__last.addr, align 8, !dbg !3544
  %1 = load double*, double** %__first.addr, align 8, !dbg !3545
  %sub.ptr.lhs.cast = ptrtoint double* %0 to i64, !dbg !3546
  %sub.ptr.rhs.cast = ptrtoint double* %1 to i64, !dbg !3546
  %sub.ptr.sub = sub i64 %sub.ptr.lhs.cast, %sub.ptr.rhs.cast, !dbg !3546
  %sub.ptr.div = sdiv exact i64 %sub.ptr.sub, 8, !dbg !3546
  %cmp = icmp sgt i64 %sub.ptr.div, 1, !dbg !3547
  br i1 %cmp, label %while.body, label %while.end, !dbg !3543

while.body:                                       ; preds = %while.cond
  %2 = load double*, double** %__last.addr, align 8, !dbg !3548
  %incdec.ptr = getelementptr inbounds double, double* %2, i32 -1, !dbg !3548
  store double* %incdec.ptr, double** %__last.addr, align 8, !dbg !3548
  %3 = load double*, double** %__first.addr, align 8, !dbg !3550
  %4 = load double*, double** %__last.addr, align 8, !dbg !3551
  %5 = load double*, double** %__last.addr, align 8, !dbg !3552
  %6 = load %"struct.__gnu_cxx::__ops::_Iter_less_iter"*, %"struct.__gnu_cxx::__ops::_Iter_less_iter"** %__comp.addr, align 8, !dbg !3553
  call void @_ZSt10__pop_heapIPdN9__gnu_cxx5__ops15_Iter_less_iterEEvT_S4_S4_RT0_(double* %3, double* %4, double* %5, %"struct.__gnu_cxx::__ops::_Iter_less_iter"* nonnull align 1 dereferenceable(1) %6), !dbg !3554
  br label %while.cond, !dbg !3543, !llvm.loop !3555

while.end:                                        ; preds = %while.cond
  ret void, !dbg !3557
}

; Function Attrs: noinline optnone uwtable
define linkonce_odr void @_ZSt11__make_heapIPdN9__gnu_cxx5__ops15_Iter_less_iterEEvT_S4_RT0_(double* %__first, double* %__last, %"struct.__gnu_cxx::__ops::_Iter_less_iter"* nonnull align 1 dereferenceable(1) %__comp) #0 comdat !dbg !3558 {
entry:
  %__first.addr = alloca double*, align 8
  %__last.addr = alloca double*, align 8
  %__comp.addr = alloca %"struct.__gnu_cxx::__ops::_Iter_less_iter"*, align 8
  %__len = alloca i64, align 8
  %__parent = alloca i64, align 8
  %__value = alloca double, align 8
  %agg.tmp = alloca %"struct.__gnu_cxx::__ops::_Iter_less_iter", align 1
  store double* %__first, double** %__first.addr, align 8
  call void @llvm.dbg.declare(metadata double** %__first.addr, metadata !3559, metadata !DIExpression()), !dbg !3560
  store double* %__last, double** %__last.addr, align 8
  call void @llvm.dbg.declare(metadata double** %__last.addr, metadata !3561, metadata !DIExpression()), !dbg !3562
  store %"struct.__gnu_cxx::__ops::_Iter_less_iter"* %__comp, %"struct.__gnu_cxx::__ops::_Iter_less_iter"** %__comp.addr, align 8
  call void @llvm.dbg.declare(metadata %"struct.__gnu_cxx::__ops::_Iter_less_iter"** %__comp.addr, metadata !3563, metadata !DIExpression()), !dbg !3564
  %0 = load double*, double** %__last.addr, align 8, !dbg !3565
  %1 = load double*, double** %__first.addr, align 8, !dbg !3567
  %sub.ptr.lhs.cast = ptrtoint double* %0 to i64, !dbg !3568
  %sub.ptr.rhs.cast = ptrtoint double* %1 to i64, !dbg !3568
  %sub.ptr.sub = sub i64 %sub.ptr.lhs.cast, %sub.ptr.rhs.cast, !dbg !3568
  %sub.ptr.div = sdiv exact i64 %sub.ptr.sub, 8, !dbg !3568
  %cmp = icmp slt i64 %sub.ptr.div, 2, !dbg !3569
  br i1 %cmp, label %if.then, label %if.end, !dbg !3570

if.then:                                          ; preds = %entry
  br label %return, !dbg !3571

if.end:                                           ; preds = %entry
  call void @llvm.dbg.declare(metadata i64* %__len, metadata !3572, metadata !DIExpression()), !dbg !3575
  %2 = load double*, double** %__last.addr, align 8, !dbg !3576
  %3 = load double*, double** %__first.addr, align 8, !dbg !3577
  %sub.ptr.lhs.cast1 = ptrtoint double* %2 to i64, !dbg !3578
  %sub.ptr.rhs.cast2 = ptrtoint double* %3 to i64, !dbg !3578
  %sub.ptr.sub3 = sub i64 %sub.ptr.lhs.cast1, %sub.ptr.rhs.cast2, !dbg !3578
  %sub.ptr.div4 = sdiv exact i64 %sub.ptr.sub3, 8, !dbg !3578
  store i64 %sub.ptr.div4, i64* %__len, align 8, !dbg !3575
  call void @llvm.dbg.declare(metadata i64* %__parent, metadata !3579, metadata !DIExpression()), !dbg !3580
  %4 = load i64, i64* %__len, align 8, !dbg !3581
  %sub = sub nsw i64 %4, 2, !dbg !3582
  %div = sdiv i64 %sub, 2, !dbg !3583
  store i64 %div, i64* %__parent, align 8, !dbg !3580
  br label %while.body, !dbg !3584

while.body:                                       ; preds = %if.end, %if.end8
  call void @llvm.dbg.declare(metadata double* %__value, metadata !3585, metadata !DIExpression()), !dbg !3589
  %5 = load double*, double** %__first.addr, align 8, !dbg !3590
  %6 = load i64, i64* %__parent, align 8, !dbg !3590
  %add.ptr = getelementptr inbounds double, double* %5, i64 %6, !dbg !3590
  %call = call nonnull align 8 dereferenceable(8) double* @_ZSt4moveIRdEONSt16remove_referenceIT_E4typeEOS2_(double* nonnull align 8 dereferenceable(8) %add.ptr) #10, !dbg !3590
  %7 = load double, double* %call, align 8, !dbg !3590
  store double %7, double* %__value, align 8, !dbg !3589
  %8 = load double*, double** %__first.addr, align 8, !dbg !3591
  %9 = load i64, i64* %__parent, align 8, !dbg !3592
  %10 = load i64, i64* %__len, align 8, !dbg !3593
  %call5 = call nonnull align 8 dereferenceable(8) double* @_ZSt4moveIRdEONSt16remove_referenceIT_E4typeEOS2_(double* nonnull align 8 dereferenceable(8) %__value) #10, !dbg !3594
  %11 = load double, double* %call5, align 8, !dbg !3594
  %12 = load %"struct.__gnu_cxx::__ops::_Iter_less_iter"*, %"struct.__gnu_cxx::__ops::_Iter_less_iter"** %__comp.addr, align 8, !dbg !3595
  call void @_ZSt13__adjust_heapIPdldN9__gnu_cxx5__ops15_Iter_less_iterEEvT_T0_S5_T1_T2_(double* %8, i64 %9, i64 %10, double %11), !dbg !3596
  %13 = load i64, i64* %__parent, align 8, !dbg !3597
  %cmp6 = icmp eq i64 %13, 0, !dbg !3599
  br i1 %cmp6, label %if.then7, label %if.end8, !dbg !3600

if.then7:                                         ; preds = %while.body
  br label %return, !dbg !3601

if.end8:                                          ; preds = %while.body
  %14 = load i64, i64* %__parent, align 8, !dbg !3602
  %dec = add nsw i64 %14, -1, !dbg !3602
  store i64 %dec, i64* %__parent, align 8, !dbg !3602
  br label %while.body, !dbg !3584, !llvm.loop !3603

return:                                           ; preds = %if.then7, %if.then
  ret void, !dbg !3605
}

; Function Attrs: noinline nounwind optnone uwtable
define linkonce_odr zeroext i1 @_ZNK9__gnu_cxx5__ops15_Iter_less_iterclIPdS3_EEbT_T0_(%"struct.__gnu_cxx::__ops::_Iter_less_iter"* %this, double* %__it1, double* %__it2) #5 comdat align 2 !dbg !3606 {
entry:
  %this.addr = alloca %"struct.__gnu_cxx::__ops::_Iter_less_iter"*, align 8
  %__it1.addr = alloca double*, align 8
  %__it2.addr = alloca double*, align 8
  store %"struct.__gnu_cxx::__ops::_Iter_less_iter"* %this, %"struct.__gnu_cxx::__ops::_Iter_less_iter"** %this.addr, align 8
  call void @llvm.dbg.declare(metadata %"struct.__gnu_cxx::__ops::_Iter_less_iter"** %this.addr, metadata !3615, metadata !DIExpression()), !dbg !3617
  store double* %__it1, double** %__it1.addr, align 8
  call void @llvm.dbg.declare(metadata double** %__it1.addr, metadata !3618, metadata !DIExpression()), !dbg !3619
  store double* %__it2, double** %__it2.addr, align 8
  call void @llvm.dbg.declare(metadata double** %__it2.addr, metadata !3620, metadata !DIExpression()), !dbg !3621
  %this1 = load %"struct.__gnu_cxx::__ops::_Iter_less_iter"*, %"struct.__gnu_cxx::__ops::_Iter_less_iter"** %this.addr, align 8
  %0 = load double*, double** %__it1.addr, align 8, !dbg !3622
  %1 = load double, double* %0, align 8, !dbg !3623
  %2 = load double*, double** %__it2.addr, align 8, !dbg !3624
  %3 = load double, double* %2, align 8, !dbg !3625
  %cmp = fcmp olt double %1, %3, !dbg !3626
  ret i1 %cmp, !dbg !3627
}

; Function Attrs: noinline optnone uwtable
define linkonce_odr void @_ZSt10__pop_heapIPdN9__gnu_cxx5__ops15_Iter_less_iterEEvT_S4_S4_RT0_(double* %__first, double* %__last, double* %__result, %"struct.__gnu_cxx::__ops::_Iter_less_iter"* nonnull align 1 dereferenceable(1) %__comp) #0 comdat !dbg !14 {
entry:
  %__first.addr = alloca double*, align 8
  %__last.addr = alloca double*, align 8
  %__result.addr = alloca double*, align 8
  %__comp.addr = alloca %"struct.__gnu_cxx::__ops::_Iter_less_iter"*, align 8
  %__value = alloca double, align 8
  %agg.tmp = alloca %"struct.__gnu_cxx::__ops::_Iter_less_iter", align 1
  store double* %__first, double** %__first.addr, align 8
  call void @llvm.dbg.declare(metadata double** %__first.addr, metadata !3628, metadata !DIExpression()), !dbg !3629
  store double* %__last, double** %__last.addr, align 8
  call void @llvm.dbg.declare(metadata double** %__last.addr, metadata !3630, metadata !DIExpression()), !dbg !3631
  store double* %__result, double** %__result.addr, align 8
  call void @llvm.dbg.declare(metadata double** %__result.addr, metadata !3632, metadata !DIExpression()), !dbg !3633
  store %"struct.__gnu_cxx::__ops::_Iter_less_iter"* %__comp, %"struct.__gnu_cxx::__ops::_Iter_less_iter"** %__comp.addr, align 8
  call void @llvm.dbg.declare(metadata %"struct.__gnu_cxx::__ops::_Iter_less_iter"** %__comp.addr, metadata !3634, metadata !DIExpression()), !dbg !3635
  call void @llvm.dbg.declare(metadata double* %__value, metadata !3636, metadata !DIExpression()), !dbg !3638
  %0 = load double*, double** %__result.addr, align 8, !dbg !3639
  %call = call nonnull align 8 dereferenceable(8) double* @_ZSt4moveIRdEONSt16remove_referenceIT_E4typeEOS2_(double* nonnull align 8 dereferenceable(8) %0) #10, !dbg !3639
  %1 = load double, double* %call, align 8, !dbg !3639
  store double %1, double* %__value, align 8, !dbg !3638
  %2 = load double*, double** %__first.addr, align 8, !dbg !3640
  %call1 = call nonnull align 8 dereferenceable(8) double* @_ZSt4moveIRdEONSt16remove_referenceIT_E4typeEOS2_(double* nonnull align 8 dereferenceable(8) %2) #10, !dbg !3640
  %3 = load double, double* %call1, align 8, !dbg !3640
  %4 = load double*, double** %__result.addr, align 8, !dbg !3641
  store double %3, double* %4, align 8, !dbg !3642
  %5 = load double*, double** %__first.addr, align 8, !dbg !3643
  %6 = load double*, double** %__last.addr, align 8, !dbg !3644
  %7 = load double*, double** %__first.addr, align 8, !dbg !3645
  %sub.ptr.lhs.cast = ptrtoint double* %6 to i64, !dbg !3646
  %sub.ptr.rhs.cast = ptrtoint double* %7 to i64, !dbg !3646
  %sub.ptr.sub = sub i64 %sub.ptr.lhs.cast, %sub.ptr.rhs.cast, !dbg !3646
  %sub.ptr.div = sdiv exact i64 %sub.ptr.sub, 8, !dbg !3646
  %call2 = call nonnull align 8 dereferenceable(8) double* @_ZSt4moveIRdEONSt16remove_referenceIT_E4typeEOS2_(double* nonnull align 8 dereferenceable(8) %__value) #10, !dbg !3647
  %8 = load double, double* %call2, align 8, !dbg !3647
  %9 = load %"struct.__gnu_cxx::__ops::_Iter_less_iter"*, %"struct.__gnu_cxx::__ops::_Iter_less_iter"** %__comp.addr, align 8, !dbg !3648
  call void @_ZSt13__adjust_heapIPdldN9__gnu_cxx5__ops15_Iter_less_iterEEvT_T0_S5_T1_T2_(double* %5, i64 0, i64 %sub.ptr.div, double %8), !dbg !3649
  ret void, !dbg !3650
}

; Function Attrs: noinline nounwind optnone uwtable
define linkonce_odr nonnull align 8 dereferenceable(8) double* @_ZSt4moveIRdEONSt16remove_referenceIT_E4typeEOS2_(double* nonnull align 8 dereferenceable(8) %__t) #5 comdat !dbg !3651 {
entry:
  %__t.addr = alloca double*, align 8
  store double* %__t, double** %__t.addr, align 8
  call void @llvm.dbg.declare(metadata double** %__t.addr, metadata !3661, metadata !DIExpression()), !dbg !3662
  %0 = load double*, double** %__t.addr, align 8, !dbg !3663
  ret double* %0, !dbg !3664
}

; Function Attrs: noinline optnone uwtable
define linkonce_odr void @_ZSt13__adjust_heapIPdldN9__gnu_cxx5__ops15_Iter_less_iterEEvT_T0_S5_T1_T2_(double* %__first, i64 %__holeIndex, i64 %__len, double %__value) #0 comdat !dbg !3665 {
entry:
  %__comp = alloca %"struct.__gnu_cxx::__ops::_Iter_less_iter", align 1
  %__first.addr = alloca double*, align 8
  %__holeIndex.addr = alloca i64, align 8
  %__len.addr = alloca i64, align 8
  %__value.addr = alloca double, align 8
  %__topIndex = alloca i64, align 8
  %__secondChild = alloca i64, align 8
  %__cmp = alloca %"struct.__gnu_cxx::__ops::_Iter_less_val", align 1
  %agg.tmp = alloca %"struct.__gnu_cxx::__ops::_Iter_less_iter", align 1
  store double* %__first, double** %__first.addr, align 8
  call void @llvm.dbg.declare(metadata double** %__first.addr, metadata !3671, metadata !DIExpression()), !dbg !3672
  store i64 %__holeIndex, i64* %__holeIndex.addr, align 8
  call void @llvm.dbg.declare(metadata i64* %__holeIndex.addr, metadata !3673, metadata !DIExpression()), !dbg !3674
  store i64 %__len, i64* %__len.addr, align 8
  call void @llvm.dbg.declare(metadata i64* %__len.addr, metadata !3675, metadata !DIExpression()), !dbg !3676
  store double %__value, double* %__value.addr, align 8
  call void @llvm.dbg.declare(metadata double* %__value.addr, metadata !3677, metadata !DIExpression()), !dbg !3678
  call void @llvm.dbg.declare(metadata %"struct.__gnu_cxx::__ops::_Iter_less_iter"* %__comp, metadata !3679, metadata !DIExpression()), !dbg !3680
  call void @llvm.dbg.declare(metadata i64* %__topIndex, metadata !3681, metadata !DIExpression()), !dbg !3683
  %0 = load i64, i64* %__holeIndex.addr, align 8, !dbg !3684
  store i64 %0, i64* %__topIndex, align 8, !dbg !3683
  call void @llvm.dbg.declare(metadata i64* %__secondChild, metadata !3685, metadata !DIExpression()), !dbg !3686
  %1 = load i64, i64* %__holeIndex.addr, align 8, !dbg !3687
  store i64 %1, i64* %__secondChild, align 8, !dbg !3686
  br label %while.cond, !dbg !3688

while.cond:                                       ; preds = %if.end, %entry
  %2 = load i64, i64* %__secondChild, align 8, !dbg !3689
  %3 = load i64, i64* %__len.addr, align 8, !dbg !3690
  %sub = sub nsw i64 %3, 1, !dbg !3691
  %div = sdiv i64 %sub, 2, !dbg !3692
  %cmp = icmp slt i64 %2, %div, !dbg !3693
  br i1 %cmp, label %while.body, label %while.end, !dbg !3688

while.body:                                       ; preds = %while.cond
  %4 = load i64, i64* %__secondChild, align 8, !dbg !3694
  %add = add nsw i64 %4, 1, !dbg !3696
  %mul = mul nsw i64 2, %add, !dbg !3697
  store i64 %mul, i64* %__secondChild, align 8, !dbg !3698
  %5 = load double*, double** %__first.addr, align 8, !dbg !3699
  %6 = load i64, i64* %__secondChild, align 8, !dbg !3701
  %add.ptr = getelementptr inbounds double, double* %5, i64 %6, !dbg !3702
  %7 = load double*, double** %__first.addr, align 8, !dbg !3703
  %8 = load i64, i64* %__secondChild, align 8, !dbg !3704
  %sub1 = sub nsw i64 %8, 1, !dbg !3705
  %add.ptr2 = getelementptr inbounds double, double* %7, i64 %sub1, !dbg !3706
  %call = call zeroext i1 @_ZNK9__gnu_cxx5__ops15_Iter_less_iterclIPdS3_EEbT_T0_(%"struct.__gnu_cxx::__ops::_Iter_less_iter"* %__comp, double* %add.ptr, double* %add.ptr2), !dbg !3707
  br i1 %call, label %if.then, label %if.end, !dbg !3708

if.then:                                          ; preds = %while.body
  %9 = load i64, i64* %__secondChild, align 8, !dbg !3709
  %dec = add nsw i64 %9, -1, !dbg !3709
  store i64 %dec, i64* %__secondChild, align 8, !dbg !3709
  br label %if.end, !dbg !3710

if.end:                                           ; preds = %if.then, %while.body
  %10 = load double*, double** %__first.addr, align 8, !dbg !3711
  %11 = load i64, i64* %__secondChild, align 8, !dbg !3711
  %add.ptr3 = getelementptr inbounds double, double* %10, i64 %11, !dbg !3711
  %call4 = call nonnull align 8 dereferenceable(8) double* @_ZSt4moveIRdEONSt16remove_referenceIT_E4typeEOS2_(double* nonnull align 8 dereferenceable(8) %add.ptr3) #10, !dbg !3711
  %12 = load double, double* %call4, align 8, !dbg !3711
  %13 = load double*, double** %__first.addr, align 8, !dbg !3712
  %14 = load i64, i64* %__holeIndex.addr, align 8, !dbg !3713
  %add.ptr5 = getelementptr inbounds double, double* %13, i64 %14, !dbg !3714
  store double %12, double* %add.ptr5, align 8, !dbg !3715
  %15 = load i64, i64* %__secondChild, align 8, !dbg !3716
  store i64 %15, i64* %__holeIndex.addr, align 8, !dbg !3717
  br label %while.cond, !dbg !3688, !llvm.loop !3718

while.end:                                        ; preds = %while.cond
  %16 = load i64, i64* %__len.addr, align 8, !dbg !3720
  %and = and i64 %16, 1, !dbg !3722
  %cmp6 = icmp eq i64 %and, 0, !dbg !3723
  br i1 %cmp6, label %land.lhs.true, label %if.end18, !dbg !3724

land.lhs.true:                                    ; preds = %while.end
  %17 = load i64, i64* %__secondChild, align 8, !dbg !3725
  %18 = load i64, i64* %__len.addr, align 8, !dbg !3726
  %sub7 = sub nsw i64 %18, 2, !dbg !3727
  %div8 = sdiv i64 %sub7, 2, !dbg !3728
  %cmp9 = icmp eq i64 %17, %div8, !dbg !3729
  br i1 %cmp9, label %if.then10, label %if.end18, !dbg !3730

if.then10:                                        ; preds = %land.lhs.true
  %19 = load i64, i64* %__secondChild, align 8, !dbg !3731
  %add11 = add nsw i64 %19, 1, !dbg !3733
  %mul12 = mul nsw i64 2, %add11, !dbg !3734
  store i64 %mul12, i64* %__secondChild, align 8, !dbg !3735
  %20 = load double*, double** %__first.addr, align 8, !dbg !3736
  %21 = load i64, i64* %__secondChild, align 8, !dbg !3736
  %sub13 = sub nsw i64 %21, 1, !dbg !3736
  %add.ptr14 = getelementptr inbounds double, double* %20, i64 %sub13, !dbg !3736
  %call15 = call nonnull align 8 dereferenceable(8) double* @_ZSt4moveIRdEONSt16remove_referenceIT_E4typeEOS2_(double* nonnull align 8 dereferenceable(8) %add.ptr14) #10, !dbg !3736
  %22 = load double, double* %call15, align 8, !dbg !3736
  %23 = load double*, double** %__first.addr, align 8, !dbg !3737
  %24 = load i64, i64* %__holeIndex.addr, align 8, !dbg !3738
  %add.ptr16 = getelementptr inbounds double, double* %23, i64 %24, !dbg !3739
  store double %22, double* %add.ptr16, align 8, !dbg !3740
  %25 = load i64, i64* %__secondChild, align 8, !dbg !3741
  %sub17 = sub nsw i64 %25, 1, !dbg !3742
  store i64 %sub17, i64* %__holeIndex.addr, align 8, !dbg !3743
  br label %if.end18, !dbg !3744

if.end18:                                         ; preds = %if.then10, %land.lhs.true, %while.end
  call void @llvm.dbg.declare(metadata %"struct.__gnu_cxx::__ops::_Iter_less_val"* %__cmp, metadata !3745, metadata !DIExpression()), !dbg !3755
  %call19 = call nonnull align 1 dereferenceable(1) %"struct.__gnu_cxx::__ops::_Iter_less_iter"* @_ZSt4moveIRN9__gnu_cxx5__ops15_Iter_less_iterEEONSt16remove_referenceIT_E4typeEOS5_(%"struct.__gnu_cxx::__ops::_Iter_less_iter"* nonnull align 1 dereferenceable(1) %__comp) #10, !dbg !3756
  call void @_ZN9__gnu_cxx5__ops14_Iter_less_valC2ENS0_15_Iter_less_iterE(%"struct.__gnu_cxx::__ops::_Iter_less_val"* %__cmp), !dbg !3755
  %26 = load double*, double** %__first.addr, align 8, !dbg !3757
  %27 = load i64, i64* %__holeIndex.addr, align 8, !dbg !3758
  %28 = load i64, i64* %__topIndex, align 8, !dbg !3759
  %call20 = call nonnull align 8 dereferenceable(8) double* @_ZSt4moveIRdEONSt16remove_referenceIT_E4typeEOS2_(double* nonnull align 8 dereferenceable(8) %__value.addr) #10, !dbg !3760
  %29 = load double, double* %call20, align 8, !dbg !3760
  call void @_ZSt11__push_heapIPdldN9__gnu_cxx5__ops14_Iter_less_valEEvT_T0_S5_T1_RT2_(double* %26, i64 %27, i64 %28, double %29, %"struct.__gnu_cxx::__ops::_Iter_less_val"* nonnull align 1 dereferenceable(1) %__cmp), !dbg !3761
  ret void, !dbg !3762
}

; Function Attrs: noinline nounwind optnone uwtable
define linkonce_odr nonnull align 1 dereferenceable(1) %"struct.__gnu_cxx::__ops::_Iter_less_iter"* @_ZSt4moveIRN9__gnu_cxx5__ops15_Iter_less_iterEEONSt16remove_referenceIT_E4typeEOS5_(%"struct.__gnu_cxx::__ops::_Iter_less_iter"* nonnull align 1 dereferenceable(1) %__t) #5 comdat !dbg !3763 {
entry:
  %__t.addr = alloca %"struct.__gnu_cxx::__ops::_Iter_less_iter"*, align 8
  store %"struct.__gnu_cxx::__ops::_Iter_less_iter"* %__t, %"struct.__gnu_cxx::__ops::_Iter_less_iter"** %__t.addr, align 8
  call void @llvm.dbg.declare(metadata %"struct.__gnu_cxx::__ops::_Iter_less_iter"** %__t.addr, metadata !3771, metadata !DIExpression()), !dbg !3772
  %0 = load %"struct.__gnu_cxx::__ops::_Iter_less_iter"*, %"struct.__gnu_cxx::__ops::_Iter_less_iter"** %__t.addr, align 8, !dbg !3773
  ret %"struct.__gnu_cxx::__ops::_Iter_less_iter"* %0, !dbg !3774
}

; Function Attrs: noinline nounwind optnone uwtable
define linkonce_odr void @_ZN9__gnu_cxx5__ops14_Iter_less_valC2ENS0_15_Iter_less_iterE(%"struct.__gnu_cxx::__ops::_Iter_less_val"* %this) unnamed_addr #5 comdat align 2 !dbg !3775 {
entry:
  %0 = alloca %"struct.__gnu_cxx::__ops::_Iter_less_iter", align 1
  %this.addr = alloca %"struct.__gnu_cxx::__ops::_Iter_less_val"*, align 8
  store %"struct.__gnu_cxx::__ops::_Iter_less_val"* %this, %"struct.__gnu_cxx::__ops::_Iter_less_val"** %this.addr, align 8
  call void @llvm.dbg.declare(metadata %"struct.__gnu_cxx::__ops::_Iter_less_val"** %this.addr, metadata !3776, metadata !DIExpression()), !dbg !3778
  call void @llvm.dbg.declare(metadata %"struct.__gnu_cxx::__ops::_Iter_less_iter"* %0, metadata !3779, metadata !DIExpression()), !dbg !3780
  %this1 = load %"struct.__gnu_cxx::__ops::_Iter_less_val"*, %"struct.__gnu_cxx::__ops::_Iter_less_val"** %this.addr, align 8
  ret void, !dbg !3781
}

; Function Attrs: noinline optnone uwtable
define linkonce_odr void @_ZSt11__push_heapIPdldN9__gnu_cxx5__ops14_Iter_less_valEEvT_T0_S5_T1_RT2_(double* %__first, i64 %__holeIndex, i64 %__topIndex, double %__value, %"struct.__gnu_cxx::__ops::_Iter_less_val"* nonnull align 1 dereferenceable(1) %__comp) #0 comdat !dbg !3782 {
entry:
  %__first.addr = alloca double*, align 8
  %__holeIndex.addr = alloca i64, align 8
  %__topIndex.addr = alloca i64, align 8
  %__value.addr = alloca double, align 8
  %__comp.addr = alloca %"struct.__gnu_cxx::__ops::_Iter_less_val"*, align 8
  %__parent = alloca i64, align 8
  store double* %__first, double** %__first.addr, align 8
  call void @llvm.dbg.declare(metadata double** %__first.addr, metadata !3788, metadata !DIExpression()), !dbg !3789
  store i64 %__holeIndex, i64* %__holeIndex.addr, align 8
  call void @llvm.dbg.declare(metadata i64* %__holeIndex.addr, metadata !3790, metadata !DIExpression()), !dbg !3791
  store i64 %__topIndex, i64* %__topIndex.addr, align 8
  call void @llvm.dbg.declare(metadata i64* %__topIndex.addr, metadata !3792, metadata !DIExpression()), !dbg !3793
  store double %__value, double* %__value.addr, align 8
  call void @llvm.dbg.declare(metadata double* %__value.addr, metadata !3794, metadata !DIExpression()), !dbg !3795
  store %"struct.__gnu_cxx::__ops::_Iter_less_val"* %__comp, %"struct.__gnu_cxx::__ops::_Iter_less_val"** %__comp.addr, align 8
  call void @llvm.dbg.declare(metadata %"struct.__gnu_cxx::__ops::_Iter_less_val"** %__comp.addr, metadata !3796, metadata !DIExpression()), !dbg !3797
  call void @llvm.dbg.declare(metadata i64* %__parent, metadata !3798, metadata !DIExpression()), !dbg !3799
  %0 = load i64, i64* %__holeIndex.addr, align 8, !dbg !3800
  %sub = sub nsw i64 %0, 1, !dbg !3801
  %div = sdiv i64 %sub, 2, !dbg !3802
  store i64 %div, i64* %__parent, align 8, !dbg !3799
  br label %while.cond, !dbg !3803

while.cond:                                       ; preds = %while.body, %entry
  %1 = load i64, i64* %__holeIndex.addr, align 8, !dbg !3804
  %2 = load i64, i64* %__topIndex.addr, align 8, !dbg !3805
  %cmp = icmp sgt i64 %1, %2, !dbg !3806
  br i1 %cmp, label %land.rhs, label %land.end, !dbg !3807

land.rhs:                                         ; preds = %while.cond
  %3 = load %"struct.__gnu_cxx::__ops::_Iter_less_val"*, %"struct.__gnu_cxx::__ops::_Iter_less_val"** %__comp.addr, align 8, !dbg !3808
  %4 = load double*, double** %__first.addr, align 8, !dbg !3809
  %5 = load i64, i64* %__parent, align 8, !dbg !3810
  %add.ptr = getelementptr inbounds double, double* %4, i64 %5, !dbg !3811
  %call = call zeroext i1 @_ZNK9__gnu_cxx5__ops14_Iter_less_valclIPddEEbT_RT0_(%"struct.__gnu_cxx::__ops::_Iter_less_val"* %3, double* %add.ptr, double* nonnull align 8 dereferenceable(8) %__value.addr), !dbg !3808
  br label %land.end

land.end:                                         ; preds = %land.rhs, %while.cond
  %6 = phi i1 [ false, %while.cond ], [ %call, %land.rhs ], !dbg !3812
  br i1 %6, label %while.body, label %while.end, !dbg !3803

while.body:                                       ; preds = %land.end
  %7 = load double*, double** %__first.addr, align 8, !dbg !3813
  %8 = load i64, i64* %__parent, align 8, !dbg !3813
  %add.ptr1 = getelementptr inbounds double, double* %7, i64 %8, !dbg !3813
  %call2 = call nonnull align 8 dereferenceable(8) double* @_ZSt4moveIRdEONSt16remove_referenceIT_E4typeEOS2_(double* nonnull align 8 dereferenceable(8) %add.ptr1) #10, !dbg !3813
  %9 = load double, double* %call2, align 8, !dbg !3813
  %10 = load double*, double** %__first.addr, align 8, !dbg !3815
  %11 = load i64, i64* %__holeIndex.addr, align 8, !dbg !3816
  %add.ptr3 = getelementptr inbounds double, double* %10, i64 %11, !dbg !3817
  store double %9, double* %add.ptr3, align 8, !dbg !3818
  %12 = load i64, i64* %__parent, align 8, !dbg !3819
  store i64 %12, i64* %__holeIndex.addr, align 8, !dbg !3820
  %13 = load i64, i64* %__holeIndex.addr, align 8, !dbg !3821
  %sub4 = sub nsw i64 %13, 1, !dbg !3822
  %div5 = sdiv i64 %sub4, 2, !dbg !3823
  store i64 %div5, i64* %__parent, align 8, !dbg !3824
  br label %while.cond, !dbg !3803, !llvm.loop !3825

while.end:                                        ; preds = %land.end
  %call6 = call nonnull align 8 dereferenceable(8) double* @_ZSt4moveIRdEONSt16remove_referenceIT_E4typeEOS2_(double* nonnull align 8 dereferenceable(8) %__value.addr) #10, !dbg !3827
  %14 = load double, double* %call6, align 8, !dbg !3827
  %15 = load double*, double** %__first.addr, align 8, !dbg !3828
  %16 = load i64, i64* %__holeIndex.addr, align 8, !dbg !3829
  %add.ptr7 = getelementptr inbounds double, double* %15, i64 %16, !dbg !3830
  store double %14, double* %add.ptr7, align 8, !dbg !3831
  ret void, !dbg !3832
}

; Function Attrs: noinline nounwind optnone uwtable
define linkonce_odr zeroext i1 @_ZNK9__gnu_cxx5__ops14_Iter_less_valclIPddEEbT_RT0_(%"struct.__gnu_cxx::__ops::_Iter_less_val"* %this, double* %__it, double* nonnull align 8 dereferenceable(8) %__val) #5 comdat align 2 !dbg !3833 {
entry:
  %this.addr = alloca %"struct.__gnu_cxx::__ops::_Iter_less_val"*, align 8
  %__it.addr = alloca double*, align 8
  %__val.addr = alloca double*, align 8
  store %"struct.__gnu_cxx::__ops::_Iter_less_val"* %this, %"struct.__gnu_cxx::__ops::_Iter_less_val"** %this.addr, align 8
  call void @llvm.dbg.declare(metadata %"struct.__gnu_cxx::__ops::_Iter_less_val"** %this.addr, metadata !3841, metadata !DIExpression()), !dbg !3843
  store double* %__it, double** %__it.addr, align 8
  call void @llvm.dbg.declare(metadata double** %__it.addr, metadata !3844, metadata !DIExpression()), !dbg !3845
  store double* %__val, double** %__val.addr, align 8
  call void @llvm.dbg.declare(metadata double** %__val.addr, metadata !3846, metadata !DIExpression()), !dbg !3847
  %this1 = load %"struct.__gnu_cxx::__ops::_Iter_less_val"*, %"struct.__gnu_cxx::__ops::_Iter_less_val"** %this.addr, align 8
  %0 = load double*, double** %__it.addr, align 8, !dbg !3848
  %1 = load double, double* %0, align 8, !dbg !3849
  %2 = load double*, double** %__val.addr, align 8, !dbg !3850
  %3 = load double, double* %2, align 8, !dbg !3850
  %cmp = fcmp olt double %1, %3, !dbg !3851
  ret i1 %cmp, !dbg !3852
}

; Function Attrs: noinline optnone uwtable
define linkonce_odr void @_ZSt22__move_median_to_firstIPdN9__gnu_cxx5__ops15_Iter_less_iterEEvT_S4_S4_S4_T0_(double* %__result, double* %__a, double* %__b, double* %__c) #0 comdat !dbg !3853 {
entry:
  %__comp = alloca %"struct.__gnu_cxx::__ops::_Iter_less_iter", align 1
  %__result.addr = alloca double*, align 8
  %__a.addr = alloca double*, align 8
  %__b.addr = alloca double*, align 8
  %__c.addr = alloca double*, align 8
  store double* %__result, double** %__result.addr, align 8
  call void @llvm.dbg.declare(metadata double** %__result.addr, metadata !3857, metadata !DIExpression()), !dbg !3858
  store double* %__a, double** %__a.addr, align 8
  call void @llvm.dbg.declare(metadata double** %__a.addr, metadata !3859, metadata !DIExpression()), !dbg !3860
  store double* %__b, double** %__b.addr, align 8
  call void @llvm.dbg.declare(metadata double** %__b.addr, metadata !3861, metadata !DIExpression()), !dbg !3862
  store double* %__c, double** %__c.addr, align 8
  call void @llvm.dbg.declare(metadata double** %__c.addr, metadata !3863, metadata !DIExpression()), !dbg !3864
  call void @llvm.dbg.declare(metadata %"struct.__gnu_cxx::__ops::_Iter_less_iter"* %__comp, metadata !3865, metadata !DIExpression()), !dbg !3866
  %0 = load double*, double** %__a.addr, align 8, !dbg !3867
  %1 = load double*, double** %__b.addr, align 8, !dbg !3869
  %call = call zeroext i1 @_ZNK9__gnu_cxx5__ops15_Iter_less_iterclIPdS3_EEbT_T0_(%"struct.__gnu_cxx::__ops::_Iter_less_iter"* %__comp, double* %0, double* %1), !dbg !3870
  br i1 %call, label %if.then, label %if.else7, !dbg !3871

if.then:                                          ; preds = %entry
  %2 = load double*, double** %__b.addr, align 8, !dbg !3872
  %3 = load double*, double** %__c.addr, align 8, !dbg !3875
  %call1 = call zeroext i1 @_ZNK9__gnu_cxx5__ops15_Iter_less_iterclIPdS3_EEbT_T0_(%"struct.__gnu_cxx::__ops::_Iter_less_iter"* %__comp, double* %2, double* %3), !dbg !3876
  br i1 %call1, label %if.then2, label %if.else, !dbg !3877

if.then2:                                         ; preds = %if.then
  %4 = load double*, double** %__result.addr, align 8, !dbg !3878
  %5 = load double*, double** %__b.addr, align 8, !dbg !3879
  call void @_ZSt9iter_swapIPdS0_EvT_T0_(double* %4, double* %5), !dbg !3880
  br label %if.end6, !dbg !3880

if.else:                                          ; preds = %if.then
  %6 = load double*, double** %__a.addr, align 8, !dbg !3881
  %7 = load double*, double** %__c.addr, align 8, !dbg !3883
  %call3 = call zeroext i1 @_ZNK9__gnu_cxx5__ops15_Iter_less_iterclIPdS3_EEbT_T0_(%"struct.__gnu_cxx::__ops::_Iter_less_iter"* %__comp, double* %6, double* %7), !dbg !3884
  br i1 %call3, label %if.then4, label %if.else5, !dbg !3885

if.then4:                                         ; preds = %if.else
  %8 = load double*, double** %__result.addr, align 8, !dbg !3886
  %9 = load double*, double** %__c.addr, align 8, !dbg !3887
  call void @_ZSt9iter_swapIPdS0_EvT_T0_(double* %8, double* %9), !dbg !3888
  br label %if.end, !dbg !3888

if.else5:                                         ; preds = %if.else
  %10 = load double*, double** %__result.addr, align 8, !dbg !3889
  %11 = load double*, double** %__a.addr, align 8, !dbg !3890
  call void @_ZSt9iter_swapIPdS0_EvT_T0_(double* %10, double* %11), !dbg !3891
  br label %if.end

if.end:                                           ; preds = %if.else5, %if.then4
  br label %if.end6

if.end6:                                          ; preds = %if.end, %if.then2
  br label %if.end16, !dbg !3892

if.else7:                                         ; preds = %entry
  %12 = load double*, double** %__a.addr, align 8, !dbg !3893
  %13 = load double*, double** %__c.addr, align 8, !dbg !3895
  %call8 = call zeroext i1 @_ZNK9__gnu_cxx5__ops15_Iter_less_iterclIPdS3_EEbT_T0_(%"struct.__gnu_cxx::__ops::_Iter_less_iter"* %__comp, double* %12, double* %13), !dbg !3896
  br i1 %call8, label %if.then9, label %if.else10, !dbg !3897

if.then9:                                         ; preds = %if.else7
  %14 = load double*, double** %__result.addr, align 8, !dbg !3898
  %15 = load double*, double** %__a.addr, align 8, !dbg !3899
  call void @_ZSt9iter_swapIPdS0_EvT_T0_(double* %14, double* %15), !dbg !3900
  br label %if.end15, !dbg !3900

if.else10:                                        ; preds = %if.else7
  %16 = load double*, double** %__b.addr, align 8, !dbg !3901
  %17 = load double*, double** %__c.addr, align 8, !dbg !3903
  %call11 = call zeroext i1 @_ZNK9__gnu_cxx5__ops15_Iter_less_iterclIPdS3_EEbT_T0_(%"struct.__gnu_cxx::__ops::_Iter_less_iter"* %__comp, double* %16, double* %17), !dbg !3904
  br i1 %call11, label %if.then12, label %if.else13, !dbg !3905

if.then12:                                        ; preds = %if.else10
  %18 = load double*, double** %__result.addr, align 8, !dbg !3906
  %19 = load double*, double** %__c.addr, align 8, !dbg !3907
  call void @_ZSt9iter_swapIPdS0_EvT_T0_(double* %18, double* %19), !dbg !3908
  br label %if.end14, !dbg !3908

if.else13:                                        ; preds = %if.else10
  %20 = load double*, double** %__result.addr, align 8, !dbg !3909
  %21 = load double*, double** %__b.addr, align 8, !dbg !3910
  call void @_ZSt9iter_swapIPdS0_EvT_T0_(double* %20, double* %21), !dbg !3911
  br label %if.end14

if.end14:                                         ; preds = %if.else13, %if.then12
  br label %if.end15

if.end15:                                         ; preds = %if.end14, %if.then9
  br label %if.end16

if.end16:                                         ; preds = %if.end15, %if.end6
  ret void, !dbg !3912
}

; Function Attrs: noinline nounwind optnone uwtable
define linkonce_odr double* @_ZSt21__unguarded_partitionIPdN9__gnu_cxx5__ops15_Iter_less_iterEET_S4_S4_S4_T0_(double* %__first, double* %__last, double* %__pivot) #5 comdat !dbg !3913 {
entry:
  %__comp = alloca %"struct.__gnu_cxx::__ops::_Iter_less_iter", align 1
  %__first.addr = alloca double*, align 8
  %__last.addr = alloca double*, align 8
  %__pivot.addr = alloca double*, align 8
  store double* %__first, double** %__first.addr, align 8
  call void @llvm.dbg.declare(metadata double** %__first.addr, metadata !3916, metadata !DIExpression()), !dbg !3917
  store double* %__last, double** %__last.addr, align 8
  call void @llvm.dbg.declare(metadata double** %__last.addr, metadata !3918, metadata !DIExpression()), !dbg !3919
  store double* %__pivot, double** %__pivot.addr, align 8
  call void @llvm.dbg.declare(metadata double** %__pivot.addr, metadata !3920, metadata !DIExpression()), !dbg !3921
  call void @llvm.dbg.declare(metadata %"struct.__gnu_cxx::__ops::_Iter_less_iter"* %__comp, metadata !3922, metadata !DIExpression()), !dbg !3923
  br label %while.body, !dbg !3924

while.body:                                       ; preds = %entry, %if.end
  br label %while.cond1, !dbg !3925

while.cond1:                                      ; preds = %while.body2, %while.body
  %0 = load double*, double** %__first.addr, align 8, !dbg !3927
  %1 = load double*, double** %__pivot.addr, align 8, !dbg !3928
  %call = call zeroext i1 @_ZNK9__gnu_cxx5__ops15_Iter_less_iterclIPdS3_EEbT_T0_(%"struct.__gnu_cxx::__ops::_Iter_less_iter"* %__comp, double* %0, double* %1), !dbg !3929
  br i1 %call, label %while.body2, label %while.end, !dbg !3925

while.body2:                                      ; preds = %while.cond1
  %2 = load double*, double** %__first.addr, align 8, !dbg !3930
  %incdec.ptr = getelementptr inbounds double, double* %2, i32 1, !dbg !3930
  store double* %incdec.ptr, double** %__first.addr, align 8, !dbg !3930
  br label %while.cond1, !dbg !3925, !llvm.loop !3931

while.end:                                        ; preds = %while.cond1
  %3 = load double*, double** %__last.addr, align 8, !dbg !3933
  %incdec.ptr3 = getelementptr inbounds double, double* %3, i32 -1, !dbg !3933
  store double* %incdec.ptr3, double** %__last.addr, align 8, !dbg !3933
  br label %while.cond4, !dbg !3934

while.cond4:                                      ; preds = %while.body6, %while.end
  %4 = load double*, double** %__pivot.addr, align 8, !dbg !3935
  %5 = load double*, double** %__last.addr, align 8, !dbg !3936
  %call5 = call zeroext i1 @_ZNK9__gnu_cxx5__ops15_Iter_less_iterclIPdS3_EEbT_T0_(%"struct.__gnu_cxx::__ops::_Iter_less_iter"* %__comp, double* %4, double* %5), !dbg !3937
  br i1 %call5, label %while.body6, label %while.end8, !dbg !3934

while.body6:                                      ; preds = %while.cond4
  %6 = load double*, double** %__last.addr, align 8, !dbg !3938
  %incdec.ptr7 = getelementptr inbounds double, double* %6, i32 -1, !dbg !3938
  store double* %incdec.ptr7, double** %__last.addr, align 8, !dbg !3938
  br label %while.cond4, !dbg !3934, !llvm.loop !3939

while.end8:                                       ; preds = %while.cond4
  %7 = load double*, double** %__first.addr, align 8, !dbg !3941
  %8 = load double*, double** %__last.addr, align 8, !dbg !3943
  %cmp = icmp ult double* %7, %8, !dbg !3944
  br i1 %cmp, label %if.end, label %if.then, !dbg !3945

if.then:                                          ; preds = %while.end8
  %9 = load double*, double** %__first.addr, align 8, !dbg !3946
  ret double* %9, !dbg !3947

if.end:                                           ; preds = %while.end8
  %10 = load double*, double** %__first.addr, align 8, !dbg !3948
  %11 = load double*, double** %__last.addr, align 8, !dbg !3949
  call void @_ZSt9iter_swapIPdS0_EvT_T0_(double* %10, double* %11), !dbg !3950
  %12 = load double*, double** %__first.addr, align 8, !dbg !3951
  %incdec.ptr9 = getelementptr inbounds double, double* %12, i32 1, !dbg !3951
  store double* %incdec.ptr9, double** %__first.addr, align 8, !dbg !3951
  br label %while.body, !dbg !3924, !llvm.loop !3952
}

; Function Attrs: noinline nounwind optnone uwtable
define linkonce_odr void @_ZSt9iter_swapIPdS0_EvT_T0_(double* %__a, double* %__b) #5 comdat !dbg !3954 {
entry:
  %__a.addr = alloca double*, align 8
  %__b.addr = alloca double*, align 8
  store double* %__a, double** %__a.addr, align 8
  call void @llvm.dbg.declare(metadata double** %__a.addr, metadata !3958, metadata !DIExpression()), !dbg !3959
  store double* %__b, double** %__b.addr, align 8
  call void @llvm.dbg.declare(metadata double** %__b.addr, metadata !3960, metadata !DIExpression()), !dbg !3961
  %0 = load double*, double** %__a.addr, align 8, !dbg !3962
  %1 = load double*, double** %__b.addr, align 8, !dbg !3963
  call void @_ZSt4swapIdENSt9enable_ifIXsr6__and_ISt6__not_ISt15__is_tuple_likeIT_EESt21is_move_constructibleIS3_ESt18is_move_assignableIS3_EEE5valueEvE4typeERS3_SC_(double* nonnull align 8 dereferenceable(8) %0, double* nonnull align 8 dereferenceable(8) %1) #10, !dbg !3964
  ret void, !dbg !3965
}

; Function Attrs: noinline nounwind optnone uwtable
define linkonce_odr void @_ZSt4swapIdENSt9enable_ifIXsr6__and_ISt6__not_ISt15__is_tuple_likeIT_EESt21is_move_constructibleIS3_ESt18is_move_assignableIS3_EEE5valueEvE4typeERS3_SC_(double* nonnull align 8 dereferenceable(8) %__a, double* nonnull align 8 dereferenceable(8) %__b) #5 comdat !dbg !3966 {
entry:
  %__a.addr = alloca double*, align 8
  %__b.addr = alloca double*, align 8
  %__tmp = alloca double, align 8
  store double* %__a, double** %__a.addr, align 8
  call void @llvm.dbg.declare(metadata double** %__a.addr, metadata !3974, metadata !DIExpression()), !dbg !3975
  store double* %__b, double** %__b.addr, align 8
  call void @llvm.dbg.declare(metadata double** %__b.addr, metadata !3976, metadata !DIExpression()), !dbg !3977
  call void @llvm.dbg.declare(metadata double* %__tmp, metadata !3978, metadata !DIExpression()), !dbg !3979
  %0 = load double*, double** %__a.addr, align 8, !dbg !3980
  %call = call nonnull align 8 dereferenceable(8) double* @_ZSt4moveIRdEONSt16remove_referenceIT_E4typeEOS2_(double* nonnull align 8 dereferenceable(8) %0) #10, !dbg !3980
  %1 = load double, double* %call, align 8, !dbg !3980
  store double %1, double* %__tmp, align 8, !dbg !3979
  %2 = load double*, double** %__b.addr, align 8, !dbg !3981
  %call1 = call nonnull align 8 dereferenceable(8) double* @_ZSt4moveIRdEONSt16remove_referenceIT_E4typeEOS2_(double* nonnull align 8 dereferenceable(8) %2) #10, !dbg !3981
  %3 = load double, double* %call1, align 8, !dbg !3981
  %4 = load double*, double** %__a.addr, align 8, !dbg !3982
  store double %3, double* %4, align 8, !dbg !3983
  %call2 = call nonnull align 8 dereferenceable(8) double* @_ZSt4moveIRdEONSt16remove_referenceIT_E4typeEOS2_(double* nonnull align 8 dereferenceable(8) %__tmp) #10, !dbg !3984
  %5 = load double, double* %call2, align 8, !dbg !3984
  %6 = load double*, double** %__b.addr, align 8, !dbg !3985
  store double %5, double* %6, align 8, !dbg !3986
  ret void, !dbg !3987
}

; Function Attrs: nounwind readnone speculatable willreturn
declare i64 @llvm.ctlz.i64(i64, i1 immarg) #1

; Function Attrs: noinline optnone uwtable
define linkonce_odr void @_ZSt16__insertion_sortIPdN9__gnu_cxx5__ops15_Iter_less_iterEEvT_S4_T0_(double* %__first, double* %__last) #0 comdat !dbg !3988 {
entry:
  %__comp = alloca %"struct.__gnu_cxx::__ops::_Iter_less_iter", align 1
  %__first.addr = alloca double*, align 8
  %__last.addr = alloca double*, align 8
  %__i = alloca double*, align 8
  %__val = alloca double, align 8
  %agg.tmp = alloca %"struct.__gnu_cxx::__ops::_Val_less_iter", align 1
  %agg.tmp7 = alloca %"struct.__gnu_cxx::__ops::_Iter_less_iter", align 1
  %undef.agg.tmp = alloca %"struct.__gnu_cxx::__ops::_Val_less_iter", align 1
  store double* %__first, double** %__first.addr, align 8
  call void @llvm.dbg.declare(metadata double** %__first.addr, metadata !3989, metadata !DIExpression()), !dbg !3990
  store double* %__last, double** %__last.addr, align 8
  call void @llvm.dbg.declare(metadata double** %__last.addr, metadata !3991, metadata !DIExpression()), !dbg !3992
  call void @llvm.dbg.declare(metadata %"struct.__gnu_cxx::__ops::_Iter_less_iter"* %__comp, metadata !3993, metadata !DIExpression()), !dbg !3994
  %0 = load double*, double** %__first.addr, align 8, !dbg !3995
  %1 = load double*, double** %__last.addr, align 8, !dbg !3997
  %cmp = icmp eq double* %0, %1, !dbg !3998
  br i1 %cmp, label %if.then, label %if.end, !dbg !3999

if.then:                                          ; preds = %entry
  br label %for.end, !dbg !4000

if.end:                                           ; preds = %entry
  call void @llvm.dbg.declare(metadata double** %__i, metadata !4001, metadata !DIExpression()), !dbg !4003
  %2 = load double*, double** %__first.addr, align 8, !dbg !4004
  %add.ptr = getelementptr inbounds double, double* %2, i64 1, !dbg !4005
  store double* %add.ptr, double** %__i, align 8, !dbg !4003
  br label %for.cond, !dbg !4006

for.cond:                                         ; preds = %for.inc, %if.end
  %3 = load double*, double** %__i, align 8, !dbg !4007
